
MSC_Standalone_Appli.elf:     file format elf32-littlearm

Sections:
Idx Name          Size      VMA       LMA       File off  Algn
  0 .isr_vector   000002b0  70000000  70000000  00001000  2**0
                  CONTENTS, ALLOC, LOAD, READONLY, DATA
  1 .text         00009828  700002b0  700002b0  000012b0  2**2
                  CONTENTS, ALLOC, LOAD, READONLY, CODE
  2 .rodata       000000c8  70009ad8  70009ad8  0000aad8  2**2
                  CONTENTS, ALLOC, LOAD, READONLY, DATA
  3 .ARM.extab    00000000  70009ba0  70009ba0  0000b1dc  2**0
                  CONTENTS, READONLY
  4 .ARM          00000008  70009ba0  70009ba0  0000aba0  2**2
                  CONTENTS, ALLOC, LOAD, READONLY, DATA
  5 .preinit_array 00000000  70009ba8  70009ba8  0000b1dc  2**0
                  CONTENTS, ALLOC, LOAD, DATA
  6 .init_array   00000004  70009ba8  70009ba8  0000aba8  2**2
                  CONTENTS, ALLOC, LOAD, READONLY, DATA
  7 .fini_array   00000004  70009bac  70009bac  0000abac  2**2
                  CONTENTS, ALLOC, LOAD, READONLY, DATA
  8 .data         000001dc  24000000  70009bb0  0000b000  2**2
                  CONTENTS, ALLOC, LOAD, DATA
  9 .bss          00001810  240001dc  70009d8c  0000b1dc  2**2
                  ALLOC
 10 ._user_heap_stack 00000600  20000000  20000000  00001000  2**0
                  ALLOC
 11 .ARM.attributes 00000032  00000000  00000000  0000b1dc  2**0
                  CONTENTS, READONLY
 12 .comment      00000fa8  00000000  00000000  0000b20e  2**0
                  CONTENTS, READONLY
 13 .iar.rtmodel  000000d8  00000000  00000000  0000c1b6  2**0
                  CONTENTS, READONLY
 14 .iar_vfe_header 00000008  00000000  00000000  0000c290  2**2
                  CONTENTS, READONLY
 15 .debug_frame  00000142  00000000  00000000  0000c298  2**0
                  CONTENTS, READONLY, DEBUGGING, OCTETS

Disassembly of section .text:

700002b0 <USBPD_CAD_Init>:
700002b0:	e92d 43f8 	stmdb	sp!, {r3, r4, r5, r6, r7, r8, r9, lr}
700002b4:	2600      	movs	r6, #0
700002b6:	4681      	mov	r9, r0
700002b8:	460c      	mov	r4, r1
700002ba:	4690      	mov	r8, r2
700002bc:	461f      	mov	r7, r3
700002be:	2803      	cmp	r0, #3
700002c0:	bf28      	it	cs
700002c2:	2601      	movcs	r6, #1
700002c4:	d219      	bcs.n	700002fa <??USBPD_CAD_Init_0>
700002c6:	b90c      	cbnz	r4, 700002cc <??USBPD_CAD_Init_1>
700002c8:	2602      	movs	r6, #2
700002ca:	e016      	b.n	700002fa <??USBPD_CAD_Init_0>

700002cc <??USBPD_CAD_Init_1>:
700002cc:	200c      	movs	r0, #12
700002ce:	f009 faf9 	bl	700098c4 <malloc>
700002d2:	0005      	movs	r5, r0
700002d4:	bf08      	it	eq
700002d6:	2603      	moveq	r6, #3
700002d8:	d00f      	beq.n	700002fa <??USBPD_CAD_Init_0>
700002da:	210c      	movs	r1, #12
700002dc:	f009 fbec 	bl	70009ab8 <__aeabi_memclr>
700002e0:	602f      	str	r7, [r5, #0]
700002e2:	493c      	ldr	r1, [pc, #240]	@ (700003d4 <??DataTable2>)
700002e4:	722e      	strb	r6, [r5, #8]
700002e6:	464a      	mov	r2, r9
700002e8:	606c      	str	r4, [r5, #4]
700002ea:	4648      	mov	r0, r9
700002ec:	f841 5022 	str.w	r5, [r1, r2, lsl #2]
700002f0:	6863      	ldr	r3, [r4, #4]
700002f2:	463a      	mov	r2, r7
700002f4:	4641      	mov	r1, r8
700002f6:	f007 fd3f 	bl	70007d78 <CAD_Init>

700002fa <??USBPD_CAD_Init_0>:
700002fa:	4630      	mov	r0, r6
700002fc:	e8bd 83f2 	ldmia.w	sp!, {r1, r4, r5, r6, r7, r8, r9, pc}

70000300 <USBPD_CAD_PortEnable>:
70000300:	2803      	cmp	r0, #3
70000302:	d203      	bcs.n	7000030c <??USBPD_CAD_PortEnable_0>
70000304:	4a33      	ldr	r2, [pc, #204]	@ (700003d4 <??DataTable2>)
70000306:	f852 0020 	ldr.w	r0, [r2, r0, lsl #2]
7000030a:	7201      	strb	r1, [r0, #8]

7000030c <??USBPD_CAD_PortEnable_0>:
7000030c:	4770      	bx	lr

7000030e <USBPD_CAD_Process>:
7000030e:	b5fe      	push	{r1, r2, r3, r4, r5, r6, r7, lr}
70000310:	2100      	movs	r1, #0
70000312:	f04f 35ff 	mov.w	r5, #4294967295	@ 0xffffffff
70000316:	f88d 1000 	strb.w	r1, [sp]
7000031a:	2600      	movs	r6, #0
7000031c:	9101      	str	r1, [sp, #4]
7000031e:	4c2d      	ldr	r4, [pc, #180]	@ (700003d4 <??DataTable2>)

70000320 <??USBPD_CAD_Process_0>:
70000320:	f854 0026 	ldr.w	r0, [r4, r6, lsl #2]
70000324:	2800      	cmp	r0, #0
70000326:	d04f      	beq.n	700003c8 <??USBPD_CAD_Process_1>
70000328:	7a03      	ldrb	r3, [r0, #8]
7000032a:	2b01      	cmp	r3, #1
7000032c:	d14c      	bne.n	700003c8 <??USBPD_CAD_Process_1>
7000032e:	aa01      	add	r2, sp, #4
70000330:	4669      	mov	r1, sp
70000332:	b2f0      	uxtb	r0, r6
70000334:	f007 fda6 	bl	70007e84 <CAD_StateMachine>
70000338:	42a8      	cmp	r0, r5
7000033a:	bf98      	it	ls
7000033c:	4605      	movls	r5, r0
7000033e:	f89d 3000 	ldrb.w	r3, [sp]
70000342:	2b01      	cmp	r3, #1
70000344:	d004      	beq.n	70000350 <??USBPD_CAD_Process_2>
70000346:	2b02      	cmp	r3, #2
70000348:	bf18      	it	ne
7000034a:	2b04      	cmpne	r3, #4
7000034c:	d012      	beq.n	70000374 <??USBPD_CAD_Process_3>
7000034e:	e02e      	b.n	700003ae <??USBPD_CAD_Process_4>

70000350 <??USBPD_CAD_Process_2>:
70000350:	f854 0026 	ldr.w	r0, [r4, r6, lsl #2]
70000354:	6801      	ldr	r1, [r0, #0]
70000356:	680a      	ldr	r2, [r1, #0]
70000358:	f422 5280 	bic.w	r2, r2, #4096	@ 0x1000
7000035c:	600a      	str	r2, [r1, #0]
7000035e:	6801      	ldr	r1, [r0, #0]
70000360:	680b      	ldr	r3, [r1, #0]
70000362:	f023 03c0 	bic.w	r3, r3, #192	@ 0xc0
70000366:	600b      	str	r3, [r1, #0]
70000368:	6800      	ldr	r0, [r0, #0]
7000036a:	6801      	ldr	r1, [r0, #0]
7000036c:	f421 41c0 	bic.w	r1, r1, #24576	@ 0x6000
70000370:	6001      	str	r1, [r0, #0]
70000372:	e01f      	b.n	700003b4 <??USBPD_CAD_Process_5>

70000374 <??USBPD_CAD_Process_3>:
70000374:	f854 0026 	ldr.w	r0, [r4, r6, lsl #2]
70000378:	9901      	ldr	r1, [sp, #4]
7000037a:	6802      	ldr	r2, [r0, #0]
7000037c:	6813      	ldr	r3, [r2, #0]
7000037e:	f001 0103 	and.w	r1, r1, #3
70000382:	f361 1387 	bfi	r3, r1, #6, #2
70000386:	6013      	str	r3, [r2, #0]
70000388:	6801      	ldr	r1, [r0, #0]
7000038a:	680a      	ldr	r2, [r1, #0]
7000038c:	f442 5280 	orr.w	r2, r2, #4096	@ 0x1000
70000390:	600a      	str	r2, [r1, #0]
70000392:	6801      	ldr	r1, [r0, #0]
70000394:	6808      	ldr	r0, [r1, #0]
70000396:	f3c0 0080 	ubfx	r0, r0, #2, #1
7000039a:	b920      	cbnz	r0, 700003a6 <??USBPD_CAD_Process_6>
7000039c:	780a      	ldrb	r2, [r1, #0]
7000039e:	f002 02f7 	and.w	r2, r2, #247	@ 0xf7
700003a2:	700a      	strb	r2, [r1, #0]
700003a4:	e003      	b.n	700003ae <??USBPD_CAD_Process_4>

700003a6 <??USBPD_CAD_Process_6>:
700003a6:	780b      	ldrb	r3, [r1, #0]
700003a8:	f043 0308 	orr.w	r3, r3, #8
700003ac:	700b      	strb	r3, [r1, #0]

700003ae <??USBPD_CAD_Process_4>:
700003ae:	f89d 0000 	ldrb.w	r0, [sp]
700003b2:	b148      	cbz	r0, 700003c8 <??USBPD_CAD_Process_1>

700003b4 <??USBPD_CAD_Process_5>:
700003b4:	f854 3026 	ldr.w	r3, [r4, r6, lsl #2]
700003b8:	f89d 1000 	ldrb.w	r1, [sp]
700003bc:	9a01      	ldr	r2, [sp, #4]
700003be:	b2f0      	uxtb	r0, r6
700003c0:	685f      	ldr	r7, [r3, #4]
700003c2:	f8d7 c000 	ldr.w	ip, [r7]
700003c6:	47e0      	blx	ip

700003c8 <??USBPD_CAD_Process_1>:
700003c8:	1c76      	adds	r6, r6, #1
700003ca:	2e03      	cmp	r6, #3
700003cc:	d3a8      	bcc.n	70000320 <??USBPD_CAD_Process_0>
700003ce:	4628      	mov	r0, r5
700003d0:	bdfe      	pop	{r1, r2, r3, r4, r5, r6, r7, pc}
	...

700003d4 <??DataTable2>:
700003d4:	01dc 2400                                   ...$

700003d8 <USBPD_CAD_AssertRd>:
700003d8:	b510      	push	{r4, lr}
700003da:	4604      	mov	r4, r0
700003dc:	f007 feec 	bl	700081b8 <USBPDM1_DeAssertRp>
700003e0:	4620      	mov	r0, r4
700003e2:	e8bd 4010 	ldmia.w	sp!, {r4, lr}
700003e6:	f007 bee9 	b.w	700081bc <USBPDM1_AssertRd>

700003ea <USBPD_CAD_AssertRp>:
700003ea:	b510      	push	{r4, lr}
700003ec:	4604      	mov	r4, r0
700003ee:	f007 ff23 	bl	70008238 <USBPDM1_DeAssertRd>
700003f2:	4620      	mov	r0, r4
700003f4:	e8bd 4010 	ldmia.w	sp!, {r4, lr}
700003f8:	f007 be4a 	b.w	70008090 <USBPDM1_AssertRp>

700003fc <USBPD_CAD_EnterErrorRecovery>:
700003fc:	f007 bd2a 	b.w	70007e54 <CAD_Enter_ErrorRecovery>

70000400 <USBPD_CAD_GetMemoryConsumption>:
70000400:	2024      	movs	r0, #36	@ 0x24
70000402:	4770      	bx	lr

70000404 <USBPD_PE_SetTrace>:
70000404:	0001      	movs	r1, r0
70000406:	bf08      	it	eq
70000408:	f20f 0021 	addweq	r0, pc, #33	@ 0x21
7000040c:	4904      	ldr	r1, [pc, #16]	@ (70000420 <??DataTable1>)
7000040e:	6008      	str	r0, [r1, #0]
70000410:	4770      	bx	lr

70000412 <USBPD_PE_CheckLIB>:
70000412:	4601      	mov	r1, r0
70000414:	2000      	movs	r0, #0
70000416:	4a03      	ldr	r2, [pc, #12]	@ (70000424 <??DataTable1_1>)
70000418:	4291      	cmp	r1, r2
7000041a:	bf08      	it	eq
7000041c:	2001      	moveq	r0, #1
7000041e:	4770      	bx	lr

70000420 <??DataTable1>:
70000420:	0000 2400                                   ...$

70000424 <??DataTable1_1>:
70000424:	0100 0041                                   ..A.

70000428 <USBPD_PE_GetMemoryConsumption>:
70000428:	f7ff bfea 	b.w	70000400 <USBPD_CAD_GetMemoryConsumption>

7000042c <PE_Trace_Empty>:
7000042c:	4770      	bx	lr

7000042e <strlen>:
7000042e:	4603      	mov	r3, r0
70000430:	f813 2b01 	ldrb.w	r2, [r3], #1
70000434:	2a00      	cmp	r2, #0
70000436:	d1fb      	bne.n	70000430 <strlen+0x2>
70000438:	1a18      	subs	r0, r3, r0
7000043a:	3801      	subs	r0, #1
7000043c:	4770      	bx	lr

7000043e <__aeabi_memset>:
7000043e:	b470      	push	{r4, r5, r6}
70000440:	0784      	lsls	r4, r0, #30
70000442:	d046      	beq.n	700004d2 <__aeabi_memset+0x94>
70000444:	1e4c      	subs	r4, r1, #1
70000446:	2900      	cmp	r1, #0
70000448:	d041      	beq.n	700004ce <__aeabi_memset+0x90>
7000044a:	b2d5      	uxtb	r5, r2
7000044c:	4603      	mov	r3, r0
7000044e:	e002      	b.n	70000456 <__aeabi_memset+0x18>
70000450:	1e61      	subs	r1, r4, #1
70000452:	b3e4      	cbz	r4, 700004ce <__aeabi_memset+0x90>
70000454:	460c      	mov	r4, r1
70000456:	f803 5b01 	strb.w	r5, [r3], #1
7000045a:	0799      	lsls	r1, r3, #30
7000045c:	d1f8      	bne.n	70000450 <__aeabi_memset+0x12>
7000045e:	2c03      	cmp	r4, #3
70000460:	d92e      	bls.n	700004c0 <__aeabi_memset+0x82>
70000462:	b2d5      	uxtb	r5, r2
70000464:	ea45 2505 	orr.w	r5, r5, r5, lsl #8
70000468:	2c0f      	cmp	r4, #15
7000046a:	ea45 4505 	orr.w	r5, r5, r5, lsl #16
7000046e:	d919      	bls.n	700004a4 <__aeabi_memset+0x66>
70000470:	4626      	mov	r6, r4
70000472:	f103 0110 	add.w	r1, r3, #16
70000476:	3e10      	subs	r6, #16
70000478:	2e0f      	cmp	r6, #15
7000047a:	f841 5c10 	str.w	r5, [r1, #-16]
7000047e:	f841 5c0c 	str.w	r5, [r1, #-12]
70000482:	f841 5c08 	str.w	r5, [r1, #-8]
70000486:	f841 5c04 	str.w	r5, [r1, #-4]
7000048a:	f101 0110 	add.w	r1, r1, #16
7000048e:	d8f2      	bhi.n	70000476 <__aeabi_memset+0x38>
70000490:	f1a4 0110 	sub.w	r1, r4, #16
70000494:	f021 010f 	bic.w	r1, r1, #15
70000498:	f004 040f 	and.w	r4, r4, #15
7000049c:	3110      	adds	r1, #16
7000049e:	2c03      	cmp	r4, #3
700004a0:	440b      	add	r3, r1
700004a2:	d90d      	bls.n	700004c0 <__aeabi_memset+0x82>
700004a4:	461e      	mov	r6, r3
700004a6:	4621      	mov	r1, r4
700004a8:	3904      	subs	r1, #4
700004aa:	2903      	cmp	r1, #3
700004ac:	f846 5b04 	str.w	r5, [r6], #4
700004b0:	d8fa      	bhi.n	700004a8 <__aeabi_memset+0x6a>
700004b2:	1f21      	subs	r1, r4, #4
700004b4:	f021 0103 	bic.w	r1, r1, #3
700004b8:	3104      	adds	r1, #4
700004ba:	440b      	add	r3, r1
700004bc:	f004 0403 	and.w	r4, r4, #3
700004c0:	b12c      	cbz	r4, 700004ce <__aeabi_memset+0x90>
700004c2:	b2d2      	uxtb	r2, r2
700004c4:	441c      	add	r4, r3
700004c6:	f803 2b01 	strb.w	r2, [r3], #1
700004ca:	42a3      	cmp	r3, r4
700004cc:	d1fb      	bne.n	700004c6 <__aeabi_memset+0x88>
700004ce:	bc70      	pop	{r4, r5, r6}
700004d0:	4770      	bx	lr
700004d2:	460c      	mov	r4, r1
700004d4:	4603      	mov	r3, r0
700004d6:	e7c2      	b.n	7000045e <__aeabi_memset+0x20>

700004d8 <__do_global_dtors_aux>:
700004d8:	b510      	push	{r4, lr}
700004da:	4c05      	ldr	r4, [pc, #20]	@ (700004f0 <__do_global_dtors_aux+0x18>)
700004dc:	7823      	ldrb	r3, [r4, #0]
700004de:	b933      	cbnz	r3, 700004ee <__do_global_dtors_aux+0x16>
700004e0:	4b04      	ldr	r3, [pc, #16]	@ (700004f4 <__do_global_dtors_aux+0x1c>)
700004e2:	b113      	cbz	r3, 700004ea <__do_global_dtors_aux+0x12>
700004e4:	4804      	ldr	r0, [pc, #16]	@ (700004f8 <__do_global_dtors_aux+0x20>)
700004e6:	f3af 8000 	nop.w
700004ea:	2301      	movs	r3, #1
700004ec:	7023      	strb	r3, [r4, #0]
700004ee:	bd10      	pop	{r4, pc}
700004f0:	240001e8 	.word	0x240001e8
700004f4:	00000000 	.word	0x00000000
700004f8:	70009ac0 	.word	0x70009ac0

700004fc <frame_dummy>:
700004fc:	b508      	push	{r3, lr}
700004fe:	4b03      	ldr	r3, [pc, #12]	@ (7000050c <frame_dummy+0x10>)
70000500:	b11b      	cbz	r3, 7000050a <frame_dummy+0xe>
70000502:	4903      	ldr	r1, [pc, #12]	@ (70000510 <frame_dummy+0x14>)
70000504:	4803      	ldr	r0, [pc, #12]	@ (70000514 <frame_dummy+0x18>)
70000506:	f3af 8000 	nop.w
7000050a:	bd08      	pop	{r3, pc}
7000050c:	00000000 	.word	0x00000000
70000510:	240001ec 	.word	0x240001ec
70000514:	70009ac0 	.word	0x70009ac0

70000518 <Reset_Handler>:
70000518:	480d      	ldr	r0, [pc, #52]	@ (70000550 <LoopForever+0x2>)
7000051a:	4685      	mov	sp, r0
7000051c:	f001 fca8 	bl	70001e70 <SystemInit>
70000520:	480c      	ldr	r0, [pc, #48]	@ (70000554 <LoopForever+0x6>)
70000522:	490d      	ldr	r1, [pc, #52]	@ (70000558 <LoopForever+0xa>)
70000524:	4a0d      	ldr	r2, [pc, #52]	@ (7000055c <LoopForever+0xe>)
70000526:	2300      	movs	r3, #0
70000528:	e002      	b.n	70000530 <LoopCopyDataInit>

7000052a <CopyDataInit>:
7000052a:	58d4      	ldr	r4, [r2, r3]
7000052c:	50c4      	str	r4, [r0, r3]
7000052e:	3304      	adds	r3, #4

70000530 <LoopCopyDataInit>:
70000530:	18c4      	adds	r4, r0, r3
70000532:	428c      	cmp	r4, r1
70000534:	d3f9      	bcc.n	7000052a <CopyDataInit>
70000536:	4a0a      	ldr	r2, [pc, #40]	@ (70000560 <LoopForever+0x12>)
70000538:	4c0a      	ldr	r4, [pc, #40]	@ (70000564 <LoopForever+0x16>)
7000053a:	2300      	movs	r3, #0
7000053c:	e001      	b.n	70000542 <LoopFillZerobss>

7000053e <FillZerobss>:
7000053e:	6013      	str	r3, [r2, #0]
70000540:	3204      	adds	r2, #4

70000542 <LoopFillZerobss>:
70000542:	42a2      	cmp	r2, r4
70000544:	d3fb      	bcc.n	7000053e <FillZerobss>
70000546:	f009 fa91 	bl	70009a6c <__libc_init_array>
7000054a:	f000 f80f 	bl	7000056c <main>

7000054e <LoopForever>:
7000054e:	e7fe      	b.n	7000054e <LoopForever>
70000550:	20010000 	.word	0x20010000
70000554:	24000000 	.word	0x24000000
70000558:	240001dc 	.word	0x240001dc
7000055c:	70009bb0 	.word	0x70009bb0
70000560:	240001dc 	.word	0x240001dc
70000564:	240019ec 	.word	0x240019ec

70000568 <ADC1_2_IRQHandler>:
70000568:	e7fe      	b.n	70000568 <ADC1_2_IRQHandler>
	...

7000056c <main>:
7000056c:	4b8c      	ldr	r3, [pc, #560]	@ (700007a0 <main+0x234>)
7000056e:	695a      	ldr	r2, [r3, #20]
70000570:	f412 3200 	ands.w	r2, r2, #131072	@ 0x20000
70000574:	b500      	push	{lr}
70000576:	b0b5      	sub	sp, #212	@ 0xd4
70000578:	d111      	bne.n	7000059e <main+0x32>
7000057a:	f3bf 8f4f 	dsb	sy
7000057e:	f3bf 8f6f 	isb	sy
70000582:	f8c3 2250 	str.w	r2, [r3, #592]	@ 0x250
70000586:	f3bf 8f4f 	dsb	sy
7000058a:	f3bf 8f6f 	isb	sy
7000058e:	695a      	ldr	r2, [r3, #20]
70000590:	f442 3200 	orr.w	r2, r2, #131072	@ 0x20000
70000594:	615a      	str	r2, [r3, #20]
70000596:	f3bf 8f4f 	dsb	sy
7000059a:	f3bf 8f6f 	isb	sy
7000059e:	4a80      	ldr	r2, [pc, #512]	@ (700007a0 <main+0x234>)
700005a0:	6953      	ldr	r3, [r2, #20]
700005a2:	f413 3380 	ands.w	r3, r3, #65536	@ 0x10000
700005a6:	d123      	bne.n	700005f0 <main+0x84>
700005a8:	f8c2 3084 	str.w	r3, [r2, #132]	@ 0x84
700005ac:	f3bf 8f4f 	dsb	sy
700005b0:	f8d2 3080 	ldr.w	r3, [r2, #128]	@ 0x80
700005b4:	f643 74e0 	movw	r4, #16352	@ 0x3fe0
700005b8:	f3c3 00c9 	ubfx	r0, r3, #3, #10
700005bc:	f3c3 334e 	ubfx	r3, r3, #13, #15
700005c0:	015b      	lsls	r3, r3, #5
700005c2:	ea03 0604 	and.w	r6, r3, r4
700005c6:	4601      	mov	r1, r0
700005c8:	ea46 7581 	orr.w	r5, r6, r1, lsl #30
700005cc:	3901      	subs	r1, #1
700005ce:	f8c2 5260 	str.w	r5, [r2, #608]	@ 0x260
700005d2:	d2f9      	bcs.n	700005c8 <main+0x5c>
700005d4:	3b20      	subs	r3, #32
700005d6:	f113 0f20 	cmn.w	r3, #32
700005da:	d1f2      	bne.n	700005c2 <main+0x56>
700005dc:	f3bf 8f4f 	dsb	sy
700005e0:	6953      	ldr	r3, [r2, #20]
700005e2:	f443 3380 	orr.w	r3, r3, #65536	@ 0x10000
700005e6:	6153      	str	r3, [r2, #20]
700005e8:	f3bf 8f4f 	dsb	sy
700005ec:	f3bf 8f6f 	isb	sy
700005f0:	4c6c      	ldr	r4, [pc, #432]	@ (700007a4 <main+0x238>)
700005f2:	f001 fc4b 	bl	70001e8c <SystemCoreClockUpdate>
700005f6:	f001 fd0d 	bl	70002014 <HAL_Init>
700005fa:	2200      	movs	r2, #0
700005fc:	f8d4 3140 	ldr.w	r3, [r4, #320]	@ 0x140
70000600:	2106      	movs	r1, #6
70000602:	2027      	movs	r0, #39	@ 0x27
70000604:	2501      	movs	r5, #1
70000606:	f443 5380 	orr.w	r3, r3, #4096	@ 0x1000
7000060a:	f44f 3600 	mov.w	r6, #131072	@ 0x20000
7000060e:	f8c4 3140 	str.w	r3, [r4, #320]	@ 0x140
70000612:	f8d4 3140 	ldr.w	r3, [r4, #320]	@ 0x140
70000616:	9302      	str	r3, [sp, #8]
70000618:	9b02      	ldr	r3, [sp, #8]
7000061a:	f8d4 3140 	ldr.w	r3, [r4, #320]	@ 0x140
7000061e:	f043 0308 	orr.w	r3, r3, #8
70000622:	f8c4 3140 	str.w	r3, [r4, #320]	@ 0x140
70000626:	f8d4 3140 	ldr.w	r3, [r4, #320]	@ 0x140
7000062a:	9303      	str	r3, [sp, #12]
7000062c:	9b03      	ldr	r3, [sp, #12]
7000062e:	f8d4 3140 	ldr.w	r3, [r4, #320]	@ 0x140
70000632:	f043 0304 	orr.w	r3, r3, #4
70000636:	f8c4 3140 	str.w	r3, [r4, #320]	@ 0x140
7000063a:	f8d4 3140 	ldr.w	r3, [r4, #320]	@ 0x140
7000063e:	9304      	str	r3, [sp, #16]
70000640:	9b04      	ldr	r3, [sp, #16]
70000642:	f8d4 3140 	ldr.w	r3, [r4, #320]	@ 0x140
70000646:	f043 0320 	orr.w	r3, r3, #32
7000064a:	f8c4 3140 	str.w	r3, [r4, #320]	@ 0x140
7000064e:	f8d4 3140 	ldr.w	r3, [r4, #320]	@ 0x140
70000652:	9305      	str	r3, [sp, #20]
70000654:	9b05      	ldr	r3, [sp, #20]
70000656:	f8d4 3138 	ldr.w	r3, [r4, #312]	@ 0x138
7000065a:	f043 0310 	orr.w	r3, r3, #16
7000065e:	f8c4 3138 	str.w	r3, [r4, #312]	@ 0x138
70000662:	f8d4 3138 	ldr.w	r3, [r4, #312]	@ 0x138
70000666:	9301      	str	r3, [sp, #4]
70000668:	9b01      	ldr	r3, [sp, #4]
7000066a:	f002 f937 	bl	700028dc <HAL_NVIC_SetPriority>
7000066e:	2027      	movs	r0, #39	@ 0x27
70000670:	f002 f966 	bl	70002940 <HAL_NVIC_EnableIRQ>
70000674:	2200      	movs	r2, #0
70000676:	2106      	movs	r1, #6
70000678:	2028      	movs	r0, #40	@ 0x28
7000067a:	f002 f92f 	bl	700028dc <HAL_NVIC_SetPriority>
7000067e:	2028      	movs	r0, #40	@ 0x28
70000680:	f002 f95e 	bl	70002940 <HAL_NVIC_EnableIRQ>
70000684:	f000 f8e6 	bl	70000854 <MX_USB_DEVICE_Init>
70000688:	2210      	movs	r2, #16
7000068a:	2100      	movs	r1, #0
7000068c:	a80a      	add	r0, sp, #40	@ 0x28
7000068e:	f009 f9cf 	bl	70009a30 <memset>
70000692:	2298      	movs	r2, #152	@ 0x98
70000694:	2100      	movs	r1, #0
70000696:	a80e      	add	r0, sp, #56	@ 0x38
70000698:	f009 f9ca 	bl	70009a30 <memset>
7000069c:	f8d4 314c 	ldr.w	r3, [r4, #332]	@ 0x14c
700006a0:	a908      	add	r1, sp, #32
700006a2:	4841      	ldr	r0, [pc, #260]	@ (700007a8 <main+0x23c>)
700006a4:	f043 6300 	orr.w	r3, r3, #134217728	@ 0x8000000
700006a8:	f8c4 314c 	str.w	r3, [r4, #332]	@ 0x14c
700006ac:	f8d4 314c 	ldr.w	r3, [r4, #332]	@ 0x14c
700006b0:	f003 6300 	and.w	r3, r3, #134217728	@ 0x8000000
700006b4:	9307      	str	r3, [sp, #28]
700006b6:	9b07      	ldr	r3, [sp, #28]
700006b8:	f8d4 3140 	ldr.w	r3, [r4, #320]	@ 0x140
700006bc:	f443 5380 	orr.w	r3, r3, #4096	@ 0x1000
700006c0:	f8c4 3140 	str.w	r3, [r4, #320]	@ 0x140
700006c4:	f8d4 3140 	ldr.w	r3, [r4, #320]	@ 0x140
700006c8:	2400      	movs	r4, #0
700006ca:	f403 5380 	and.w	r3, r3, #4096	@ 0x1000
700006ce:	9306      	str	r3, [sp, #24]
700006d0:	9b06      	ldr	r3, [sp, #24]
700006d2:	2303      	movs	r3, #3
700006d4:	e9cd 3308 	strd	r3, r3, [sp, #32]
700006d8:	f006 f83c 	bl	70006754 <LL_GPIO_Init>
700006dc:	f44f 6380 	mov.w	r3, #1024	@ 0x400
700006e0:	aa0e      	add	r2, sp, #56	@ 0x38
700006e2:	4629      	mov	r1, r5
700006e4:	4831      	ldr	r0, [pc, #196]	@ (700007ac <main+0x240>)
700006e6:	9412      	str	r4, [sp, #72]	@ 0x48
700006e8:	941e      	str	r4, [sp, #120]	@ 0x78
700006ea:	e9cd 3410 	strd	r3, r4, [sp, #64]	@ 0x40
700006ee:	2308      	movs	r3, #8
700006f0:	e9cd 3417 	strd	r3, r4, [sp, #92]	@ 0x5c
700006f4:	2362      	movs	r3, #98	@ 0x62
700006f6:	e9cd 440e 	strd	r4, r4, [sp, #56]	@ 0x38
700006fa:	e9cd 341f 	strd	r3, r4, [sp, #124]	@ 0x7c
700006fe:	e9cd 4415 	strd	r4, r4, [sp, #84]	@ 0x54
70000702:	e9cd 4419 	strd	r4, r4, [sp, #100]	@ 0x64
70000706:	e9cd 441c 	strd	r4, r4, [sp, #112]	@ 0x70
7000070a:	e9cd 4425 	strd	r4, r4, [sp, #148]	@ 0x94
7000070e:	e9cd 6427 	strd	r6, r4, [sp, #156]	@ 0x9c
70000712:	e9cd 4431 	strd	r4, r4, [sp, #196]	@ 0xc4
70000716:	e9cd 5513 	strd	r5, r5, [sp, #76]	@ 0x4c
7000071a:	f005 ff41 	bl	700065a0 <LL_DMA_Init>
7000071e:	f44f 2300 	mov.w	r3, #524288	@ 0x80000
70000722:	4621      	mov	r1, r4
70000724:	aa0e      	add	r2, sp, #56	@ 0x38
70000726:	4821      	ldr	r0, [pc, #132]	@ (700007ac <main+0x240>)
70000728:	941a      	str	r4, [sp, #104]	@ 0x68
7000072a:	941e      	str	r4, [sp, #120]	@ 0x78
7000072c:	e9cd 3418 	strd	r3, r4, [sp, #96]	@ 0x60
70000730:	2363      	movs	r3, #99	@ 0x63
70000732:	e9cd 440e 	strd	r4, r4, [sp, #56]	@ 0x38
70000736:	e9cd 341f 	strd	r3, r4, [sp, #124]	@ 0x7c
7000073a:	e9cd 4410 	strd	r4, r4, [sp, #64]	@ 0x40
7000073e:	e9cd 4512 	strd	r4, r5, [sp, #72]	@ 0x48
70000742:	e9cd 5414 	strd	r5, r4, [sp, #80]	@ 0x50
70000746:	e9cd 4416 	strd	r4, r4, [sp, #88]	@ 0x58
7000074a:	e9cd 441c 	strd	r4, r4, [sp, #112]	@ 0x70
7000074e:	e9cd 4425 	strd	r4, r4, [sp, #148]	@ 0x94
70000752:	e9cd 6427 	strd	r6, r4, [sp, #156]	@ 0x9c
70000756:	e9cd 4431 	strd	r4, r4, [sp, #196]	@ 0xc4
7000075a:	f005 ff21 	bl	700065a0 <LL_DMA_Init>
7000075e:	4b10      	ldr	r3, [pc, #64]	@ (700007a0 <main+0x234>)
70000760:	68db      	ldr	r3, [r3, #12]
70000762:	f3c3 2302 	ubfx	r3, r3, #8, #3
70000766:	f1c3 0207 	rsb	r2, r3, #7
7000076a:	1d19      	adds	r1, r3, #4
7000076c:	2a04      	cmp	r2, #4
7000076e:	bf28      	it	cs
70000770:	2204      	movcs	r2, #4
70000772:	2906      	cmp	r1, #6
70000774:	bf88      	it	hi
70000776:	1edc      	subhi	r4, r3, #3
70000778:	f04f 33ff 	mov.w	r3, #4294967295	@ 0xffffffff
7000077c:	4093      	lsls	r3, r2
7000077e:	4a0c      	ldr	r2, [pc, #48]	@ (700007b0 <main+0x244>)
70000780:	43db      	mvns	r3, r3
70000782:	f003 0306 	and.w	r3, r3, #6
70000786:	40a3      	lsls	r3, r4
70000788:	011b      	lsls	r3, r3, #4
7000078a:	b2db      	uxtb	r3, r3
7000078c:	f882 3380 	strb.w	r3, [r2, #896]	@ 0x380
70000790:	2301      	movs	r3, #1
70000792:	6113      	str	r3, [r2, #16]
70000794:	f000 fadc 	bl	70000d50 <MX_USBPD_Init>
70000798:	f000 fb28 	bl	70000dec <USBPD_DPM_Run>
7000079c:	e7fc      	b.n	70000798 <main+0x22c>
7000079e:	bf00      	nop
700007a0:	e000ed00 	.word	0xe000ed00
700007a4:	58024400 	.word	0x58024400
700007a8:	58023000 	.word	0x58023000
700007ac:	40021000 	.word	0x40021000
700007b0:	e000e100 	.word	0xe000e100

700007b4 <Error_Handler>:
700007b4:	e7fe      	b.n	700007b4 <Error_Handler>

700007b6 <HAL_MspInit>:
700007b6:	b508      	push	{r3, lr}
700007b8:	f003 fb64 	bl	70003e84 <HAL_PWREx_EnableUSBVoltageDetector>
700007bc:	b108      	cbz	r0, 700007c2 <HAL_MspInit+0xc>
700007be:	f7ff fff9 	bl	700007b4 <Error_Handler>
700007c2:	e8bd 4008 	ldmia.w	sp!, {r3, lr}
700007c6:	f003 bb75 	b.w	70003eb4 <HAL_PWREx_EnableUSBHSregulator>

700007ca <NMI_Handler>:
700007ca:	e7fe      	b.n	700007ca <NMI_Handler>

700007cc <HardFault_Handler>:
700007cc:	e7fe      	b.n	700007cc <HardFault_Handler>

700007ce <MemManage_Handler>:
700007ce:	e7fe      	b.n	700007ce <MemManage_Handler>

700007d0 <BusFault_Handler>:
700007d0:	e7fe      	b.n	700007d0 <BusFault_Handler>

700007d2 <UsageFault_Handler>:
700007d2:	e7fe      	b.n	700007d2 <UsageFault_Handler>

700007d4 <SVC_Handler>:
700007d4:	4770      	bx	lr

700007d6 <DebugMon_Handler>:
700007d6:	4770      	bx	lr

700007d8 <PendSV_Handler>:
700007d8:	4770      	bx	lr

700007da <SysTick_Handler>:
700007da:	f001 bc2b 	b.w	70002034 <HAL_IncTick>

700007de <GPDMA1_Channel0_IRQHandler>:
700007de:	4770      	bx	lr

700007e0 <GPDMA1_Channel1_IRQHandler>:
700007e0:	4770      	bx	lr
	...

700007e4 <OTG_HS_IRQHandler>:
700007e4:	4801      	ldr	r0, [pc, #4]	@ (700007ec <OTG_HS_IRQHandler+0x8>)
700007e6:	f002 bf6b 	b.w	700036c0 <HAL_PCD_IRQHandler>
700007ea:	bf00      	nop
700007ec:	2400076c 	.word	0x2400076c

700007f0 <UCPD1_IRQHandler>:
700007f0:	f007 bc4a 	b.w	70008088 <USBPD_PORT0_IRQHandler>

700007f4 <SDMMC1_IRQHandler>:
700007f4:	2000      	movs	r0, #0
700007f6:	f000 bff3 	b.w	700017e0 <BSP_SD_IRQHandler>

700007fa <EXTI8_IRQHandler>:
700007fa:	b510      	push	{r4, lr}
700007fc:	f04f 44b0 	mov.w	r4, #1476395008	@ 0x58000000
70000800:	f8d4 3088 	ldr.w	r3, [r4, #136]	@ 0x88
70000804:	05db      	lsls	r3, r3, #23
70000806:	d506      	bpl.n	70000816 <EXTI8_IRQHandler+0x1c>
70000808:	2000      	movs	r0, #0
7000080a:	f001 fabb 	bl	70001d84 <BSP_USBPD_PWR_EventCallback>
7000080e:	f44f 7380 	mov.w	r3, #256	@ 0x100
70000812:	f8c4 3088 	str.w	r3, [r4, #136]	@ 0x88
70000816:	bd10      	pop	{r4, pc}

70000818 <_sbrk>:
70000818:	4a0a      	ldr	r2, [pc, #40]	@ (70000844 <_sbrk+0x2c>)
7000081a:	4603      	mov	r3, r0
7000081c:	6810      	ldr	r0, [r2, #0]
7000081e:	b510      	push	{r4, lr}
70000820:	b908      	cbnz	r0, 70000826 <_sbrk+0xe>
70000822:	4809      	ldr	r0, [pc, #36]	@ (70000848 <_sbrk+0x30>)
70000824:	6010      	str	r0, [r2, #0]
70000826:	4909      	ldr	r1, [pc, #36]	@ (7000084c <_sbrk+0x34>)
70000828:	4403      	add	r3, r0
7000082a:	4c09      	ldr	r4, [pc, #36]	@ (70000850 <_sbrk+0x38>)
7000082c:	1b09      	subs	r1, r1, r4
7000082e:	428b      	cmp	r3, r1
70000830:	d906      	bls.n	70000840 <_sbrk+0x28>
70000832:	f009 f915 	bl	70009a60 <__errno>
70000836:	230c      	movs	r3, #12
70000838:	6003      	str	r3, [r0, #0]
7000083a:	f04f 30ff 	mov.w	r0, #4294967295	@ 0xffffffff
7000083e:	bd10      	pop	{r4, pc}
70000840:	6013      	str	r3, [r2, #0]
70000842:	e7fc      	b.n	7000083e <_sbrk+0x26>
70000844:	24000204 	.word	0x24000204
70000848:	20000000 	.word	0x20000000
7000084c:	20010000 	.word	0x20010000
70000850:	00000400 	.word	0x00000400

70000854 <MX_USB_DEVICE_Init>:
70000854:	b508      	push	{r3, lr}
70000856:	2201      	movs	r2, #1
70000858:	490b      	ldr	r1, [pc, #44]	@ (70000888 <MX_USB_DEVICE_Init+0x34>)
7000085a:	480c      	ldr	r0, [pc, #48]	@ (7000088c <MX_USB_DEVICE_Init+0x38>)
7000085c:	f007 fd1e 	bl	7000829c <USBD_Init>
70000860:	b108      	cbz	r0, 70000866 <MX_USB_DEVICE_Init+0x12>
70000862:	f7ff ffa7 	bl	700007b4 <Error_Handler>
70000866:	490a      	ldr	r1, [pc, #40]	@ (70000890 <MX_USB_DEVICE_Init+0x3c>)
70000868:	4808      	ldr	r0, [pc, #32]	@ (7000088c <MX_USB_DEVICE_Init+0x38>)
7000086a:	f007 fd2a 	bl	700082c2 <USBD_RegisterClass>
7000086e:	b108      	cbz	r0, 70000874 <MX_USB_DEVICE_Init+0x20>
70000870:	f7ff ffa0 	bl	700007b4 <Error_Handler>
70000874:	4907      	ldr	r1, [pc, #28]	@ (70000894 <MX_USB_DEVICE_Init+0x40>)
70000876:	4805      	ldr	r0, [pc, #20]	@ (7000088c <MX_USB_DEVICE_Init+0x38>)
70000878:	f008 fac2 	bl	70008e00 <USBD_MSC_RegisterStorage>
7000087c:	b118      	cbz	r0, 70000886 <MX_USB_DEVICE_Init+0x32>
7000087e:	e8bd 4008 	ldmia.w	sp!, {r3, lr}
70000882:	f7ff bf97 	b.w	700007b4 <Error_Handler>
70000886:	bd08      	pop	{r3, pc}
70000888:	24000038 	.word	0x24000038
7000088c:	24000208 	.word	0x24000208
70000890:	24000138 	.word	0x24000138
70000894:	24000054 	.word	0x24000054

70000898 <HAL_PCD_MspInit>:
70000898:	b510      	push	{r4, lr}
7000089a:	b0a6      	sub	sp, #152	@ 0x98
7000089c:	4604      	mov	r4, r0
7000089e:	2290      	movs	r2, #144	@ 0x90
700008a0:	2100      	movs	r1, #0
700008a2:	a802      	add	r0, sp, #8
700008a4:	f009 f8c4 	bl	70009a30 <memset>
700008a8:	6822      	ldr	r2, [r4, #0]
700008aa:	4b17      	ldr	r3, [pc, #92]	@ (70000908 <HAL_PCD_MspInit+0x70>)
700008ac:	429a      	cmp	r2, r3
700008ae:	d129      	bne.n	70000904 <HAL_PCD_MspInit+0x6c>
700008b0:	f04f 4280 	mov.w	r2, #1073741824	@ 0x40000000
700008b4:	2300      	movs	r3, #0
700008b6:	a802      	add	r0, sp, #8
700008b8:	e9cd 2302 	strd	r2, r3, [sp, #8]
700008bc:	f003 fda4 	bl	70004408 <HAL_RCCEx_PeriphCLKConfig>
700008c0:	b108      	cbz	r0, 700008c6 <HAL_PCD_MspInit+0x2e>
700008c2:	f7ff ff77 	bl	700007b4 <Error_Handler>
700008c6:	f003 fadd 	bl	70003e84 <HAL_PWREx_EnableUSBVoltageDetector>
700008ca:	4b10      	ldr	r3, [pc, #64]	@ (7000090c <HAL_PCD_MspInit+0x74>)
700008cc:	205b      	movs	r0, #91	@ 0x5b
700008ce:	2106      	movs	r1, #6
700008d0:	f8d3 2138 	ldr.w	r2, [r3, #312]	@ 0x138
700008d4:	f042 7200 	orr.w	r2, r2, #33554432	@ 0x2000000
700008d8:	f8c3 2138 	str.w	r2, [r3, #312]	@ 0x138
700008dc:	f8d3 2138 	ldr.w	r2, [r3, #312]	@ 0x138
700008e0:	9200      	str	r2, [sp, #0]
700008e2:	9a00      	ldr	r2, [sp, #0]
700008e4:	f8d3 2138 	ldr.w	r2, [r3, #312]	@ 0x138
700008e8:	f042 6280 	orr.w	r2, r2, #67108864	@ 0x4000000
700008ec:	f8c3 2138 	str.w	r2, [r3, #312]	@ 0x138
700008f0:	2200      	movs	r2, #0
700008f2:	f8d3 3138 	ldr.w	r3, [r3, #312]	@ 0x138
700008f6:	9301      	str	r3, [sp, #4]
700008f8:	9b01      	ldr	r3, [sp, #4]
700008fa:	f001 ffef 	bl	700028dc <HAL_NVIC_SetPriority>
700008fe:	205b      	movs	r0, #91	@ 0x5b
70000900:	f002 f81e 	bl	70002940 <HAL_NVIC_EnableIRQ>
70000904:	b026      	add	sp, #152	@ 0x98
70000906:	bd10      	pop	{r4, pc}
70000908:	40040000 	.word	0x40040000
7000090c:	58024400 	.word	0x58024400

70000910 <HAL_PCD_SetupStageCallback>:
70000910:	f200 419c 	addw	r1, r0, #1180	@ 0x49c
70000914:	f8d0 04e0 	ldr.w	r0, [r0, #1248]	@ 0x4e0
70000918:	f007 bd0b 	b.w	70008332 <USBD_LL_SetupStage>

7000091c <HAL_PCD_DataOutStageCallback>:
7000091c:	2324      	movs	r3, #36	@ 0x24
7000091e:	fb03 0301 	mla	r3, r3, r1, r0
70000922:	f8d0 04e0 	ldr.w	r0, [r0, #1248]	@ 0x4e0
70000926:	f8d3 2260 	ldr.w	r2, [r3, #608]	@ 0x260
7000092a:	f007 bd32 	b.w	70008392 <USBD_LL_DataOutStage>

7000092e <HAL_PCD_DataInStageCallback>:
7000092e:	2324      	movs	r3, #36	@ 0x24
70000930:	fb03 0301 	mla	r3, r3, r1, r0
70000934:	f8d0 04e0 	ldr.w	r0, [r0, #1248]	@ 0x4e0
70000938:	6a1a      	ldr	r2, [r3, #32]
7000093a:	f007 bd64 	b.w	70008406 <USBD_LL_DataInStage>

7000093e <HAL_PCD_SOFCallback>:
7000093e:	f8d0 04e0 	ldr.w	r0, [r0, #1248]	@ 0x4e0
70000942:	f007 be00 	b.w	70008546 <USBD_LL_SOF>

70000946 <HAL_PCD_ResetCallback>:
70000946:	b510      	push	{r4, lr}
70000948:	79c1      	ldrb	r1, [r0, #7]
7000094a:	4604      	mov	r4, r0
7000094c:	b121      	cbz	r1, 70000958 <HAL_PCD_ResetCallback+0x12>
7000094e:	2902      	cmp	r1, #2
70000950:	d001      	beq.n	70000956 <HAL_PCD_ResetCallback+0x10>
70000952:	f7ff ff2f 	bl	700007b4 <Error_Handler>
70000956:	2101      	movs	r1, #1
70000958:	f8d4 04e0 	ldr.w	r0, [r4, #1248]	@ 0x4e0
7000095c:	f007 fdd7 	bl	7000850e <USBD_LL_SetSpeed>
70000960:	f8d4 04e0 	ldr.w	r0, [r4, #1248]	@ 0x4e0
70000964:	e8bd 4010 	ldmia.w	sp!, {r4, lr}
70000968:	f007 bda1 	b.w	700084ae <USBD_LL_Reset>

7000096c <HAL_PCD_SuspendCallback>:
7000096c:	b510      	push	{r4, lr}
7000096e:	4604      	mov	r4, r0
70000970:	f8d0 04e0 	ldr.w	r0, [r0, #1248]	@ 0x4e0
70000974:	f007 fdce 	bl	70008514 <USBD_LL_Suspend>
70000978:	7ae3      	ldrb	r3, [r4, #11]
7000097a:	b173      	cbz	r3, 7000099a <HAL_PCD_SuspendCallback+0x2e>
7000097c:	6822      	ldr	r2, [r4, #0]
7000097e:	f8d2 3e00 	ldr.w	r3, [r2, #3584]	@ 0xe00
70000982:	f043 0301 	orr.w	r3, r3, #1
70000986:	f8c2 3e00 	str.w	r3, [r2, #3584]	@ 0xe00
7000098a:	f001 fb77 	bl	7000207c <HAL_SuspendTick>
7000098e:	f003 fa55 	bl	70003e3c <HAL_PWR_EnterSTANDBYMode>
70000992:	e8bd 4010 	ldmia.w	sp!, {r4, lr}
70000996:	f003 ba65 	b.w	70003e64 <HAL_PWR_EnableSleepOnExit>
7000099a:	bd10      	pop	{r4, pc}

7000099c <HAL_PCD_ResumeCallback>:
7000099c:	b510      	push	{r4, lr}
7000099e:	7ac3      	ldrb	r3, [r0, #11]
700009a0:	4604      	mov	r4, r0
700009a2:	b143      	cbz	r3, 700009b6 <HAL_PCD_ResumeCallback+0x1a>
700009a4:	f001 fb71 	bl	7000208a <HAL_ResumeTick>
700009a8:	4a09      	ldr	r2, [pc, #36]	@ (700009d0 <HAL_PCD_ResumeCallback+0x34>)
700009aa:	6913      	ldr	r3, [r2, #16]
700009ac:	f023 0304 	bic.w	r3, r3, #4
700009b0:	6113      	str	r3, [r2, #16]
700009b2:	f003 fa5f 	bl	70003e74 <HAL_PWR_DisableSleepOnExit>
700009b6:	6822      	ldr	r2, [r4, #0]
700009b8:	f8d4 04e0 	ldr.w	r0, [r4, #1248]	@ 0x4e0
700009bc:	f8d2 3e00 	ldr.w	r3, [r2, #3584]	@ 0xe00
700009c0:	f023 0301 	bic.w	r3, r3, #1
700009c4:	e8bd 4010 	ldmia.w	sp!, {r4, lr}
700009c8:	f8c2 3e00 	str.w	r3, [r2, #3584]	@ 0xe00
700009cc:	f007 bdb0 	b.w	70008530 <USBD_LL_Resume>
700009d0:	e000ed00 	.word	0xe000ed00

700009d4 <HAL_PCD_ISOOUTIncompleteCallback>:
700009d4:	f8d0 04e0 	ldr.w	r0, [r0, #1248]	@ 0x4e0
700009d8:	f007 bdd5 	b.w	70008586 <USBD_LL_IsoOUTIncomplete>

700009dc <HAL_PCD_ISOINIncompleteCallback>:
700009dc:	f8d0 04e0 	ldr.w	r0, [r0, #1248]	@ 0x4e0
700009e0:	f007 bdbe 	b.w	70008560 <USBD_LL_IsoINIncomplete>

700009e4 <HAL_PCD_ConnectCallback>:
700009e4:	f8d0 04e0 	ldr.w	r0, [r0, #1248]	@ 0x4e0
700009e8:	f007 bde0 	b.w	700085ac <USBD_LL_DevConnected>

700009ec <HAL_PCD_DisconnectCallback>:
700009ec:	f8d0 04e0 	ldr.w	r0, [r0, #1248]	@ 0x4e0
700009f0:	f007 bdde 	b.w	700085b0 <USBD_LL_DevDisconnected>

700009f4 <USBD_LL_Init>:
700009f4:	b508      	push	{r3, lr}
700009f6:	7802      	ldrb	r2, [r0, #0]
700009f8:	4603      	mov	r3, r0
700009fa:	2a01      	cmp	r2, #1
700009fc:	d124      	bne.n	70000a48 <USBD_LL_Init+0x54>
700009fe:	4813      	ldr	r0, [pc, #76]	@ (70000a4c <USBD_LL_Init+0x58>)
70000a00:	2203      	movs	r2, #3
70000a02:	f8c0 34e0 	str.w	r3, [r0, #1248]	@ 0x4e0
70000a06:	f8c3 02c8 	str.w	r0, [r3, #712]	@ 0x2c8
70000a0a:	4b11      	ldr	r3, [pc, #68]	@ (70000a50 <USBD_LL_Init+0x5c>)
70000a0c:	7242      	strb	r2, [r0, #9]
70000a0e:	6003      	str	r3, [r0, #0]
70000a10:	2309      	movs	r3, #9
70000a12:	7103      	strb	r3, [r0, #4]
70000a14:	2300      	movs	r3, #0
70000a16:	80c3      	strh	r3, [r0, #6]
70000a18:	8143      	strh	r3, [r0, #10]
70000a1a:	7303      	strb	r3, [r0, #12]
70000a1c:	81c3      	strh	r3, [r0, #14]
70000a1e:	f002 fc6f 	bl	70003300 <HAL_PCD_Init>
70000a22:	b108      	cbz	r0, 70000a28 <USBD_LL_Init+0x34>
70000a24:	f7ff fec6 	bl	700007b4 <Error_Handler>
70000a28:	f44f 7100 	mov.w	r1, #512	@ 0x200
70000a2c:	4807      	ldr	r0, [pc, #28]	@ (70000a4c <USBD_LL_Init+0x58>)
70000a2e:	f003 f9ed 	bl	70003e0c <HAL_PCDEx_SetRxFiFo>
70000a32:	2240      	movs	r2, #64	@ 0x40
70000a34:	2100      	movs	r1, #0
70000a36:	4805      	ldr	r0, [pc, #20]	@ (70000a4c <USBD_LL_Init+0x58>)
70000a38:	f003 f9c9 	bl	70003dce <HAL_PCDEx_SetTxFiFo>
70000a3c:	f44f 7280 	mov.w	r2, #256	@ 0x100
70000a40:	2101      	movs	r1, #1
70000a42:	4802      	ldr	r0, [pc, #8]	@ (70000a4c <USBD_LL_Init+0x58>)
70000a44:	f003 f9c3 	bl	70003dce <HAL_PCDEx_SetTxFiFo>
70000a48:	2000      	movs	r0, #0
70000a4a:	bd08      	pop	{r3, pc}
70000a4c:	2400076c 	.word	0x2400076c
70000a50:	40040000 	.word	0x40040000

70000a54 <USBD_LL_IsStallEP>:
70000a54:	f011 0f80 	tst.w	r1, #128	@ 0x80
70000a58:	f8d0 32c8 	ldr.w	r3, [r0, #712]	@ 0x2c8
70000a5c:	f04f 0224 	mov.w	r2, #36	@ 0x24
70000a60:	bf17      	itett	ne
70000a62:	f001 017f 	andne.w	r1, r1, #127	@ 0x7f
70000a66:	fb02 3301 	mlaeq	r3, r2, r1, r3
70000a6a:	fb02 3301 	mlane	r3, r2, r1, r3
70000a6e:	7d98      	ldrbne	r0, [r3, #22]
70000a70:	bf08      	it	eq
70000a72:	f893 0256 	ldrbeq.w	r0, [r3, #598]	@ 0x256
70000a76:	4770      	bx	lr

70000a78 <USBD_LL_GetRxDataSize>:
70000a78:	f8d0 02c8 	ldr.w	r0, [r0, #712]	@ 0x2c8
70000a7c:	f002 bd87 	b.w	7000358e <HAL_PCD_EP_GetRxCount>

70000a80 <USBD_static_malloc>:
70000a80:	4800      	ldr	r0, [pc, #0]	@ (70000a84 <USBD_static_malloc+0x4>)
70000a82:	4770      	bx	lr
70000a84:	240004e4 	.word	0x240004e4

70000a88 <USBD_static_free>:
70000a88:	4770      	bx	lr

70000a8a <USBD_Get_USB_Status>:
70000a8a:	b118      	cbz	r0, 70000a94 <USBD_Get_USB_Status+0xa>
70000a8c:	2802      	cmp	r0, #2
70000a8e:	bf0c      	ite	eq
70000a90:	2001      	moveq	r0, #1
70000a92:	2003      	movne	r0, #3
70000a94:	4770      	bx	lr

70000a96 <USBD_LL_Start>:
70000a96:	b508      	push	{r3, lr}
70000a98:	f8d0 02c8 	ldr.w	r0, [r0, #712]	@ 0x2c8
70000a9c:	f002 fca6 	bl	700033ec <HAL_PCD_Start>
70000aa0:	e8bd 4008 	ldmia.w	sp!, {r3, lr}
70000aa4:	f7ff bff1 	b.w	70000a8a <USBD_Get_USB_Status>

70000aa8 <USBD_LL_Stop>:
70000aa8:	b508      	push	{r3, lr}
70000aaa:	f8d0 02c8 	ldr.w	r0, [r0, #712]	@ 0x2c8
70000aae:	f002 fcbc 	bl	7000342a <HAL_PCD_Stop>
70000ab2:	e8bd 4008 	ldmia.w	sp!, {r3, lr}
70000ab6:	f7ff bfe8 	b.w	70000a8a <USBD_Get_USB_Status>

70000aba <USBD_LL_OpenEP>:
70000aba:	b510      	push	{r4, lr}
70000abc:	4614      	mov	r4, r2
70000abe:	f8d0 02c8 	ldr.w	r0, [r0, #712]	@ 0x2c8
70000ac2:	461a      	mov	r2, r3
70000ac4:	4623      	mov	r3, r4
70000ac6:	f002 fce7 	bl	70003498 <HAL_PCD_EP_Open>
70000aca:	e8bd 4010 	ldmia.w	sp!, {r4, lr}
70000ace:	f7ff bfdc 	b.w	70000a8a <USBD_Get_USB_Status>

70000ad2 <USBD_LL_CloseEP>:
70000ad2:	b508      	push	{r3, lr}
70000ad4:	f8d0 02c8 	ldr.w	r0, [r0, #712]	@ 0x2c8
70000ad8:	f002 fd13 	bl	70003502 <HAL_PCD_EP_Close>
70000adc:	e8bd 4008 	ldmia.w	sp!, {r3, lr}
70000ae0:	f7ff bfd3 	b.w	70000a8a <USBD_Get_USB_Status>

70000ae4 <USBD_LL_FlushEP>:
70000ae4:	b508      	push	{r3, lr}
70000ae6:	f8d0 02c8 	ldr.w	r0, [r0, #712]	@ 0x2c8
70000aea:	f003 f957 	bl	70003d9c <HAL_PCD_EP_Flush>
70000aee:	e8bd 4008 	ldmia.w	sp!, {r3, lr}
70000af2:	f7ff bfca 	b.w	70000a8a <USBD_Get_USB_Status>

70000af6 <USBD_LL_StallEP>:
70000af6:	b508      	push	{r3, lr}
70000af8:	f8d0 02c8 	ldr.w	r0, [r0, #712]	@ 0x2c8
70000afc:	f002 fd69 	bl	700035d2 <HAL_PCD_EP_SetStall>
70000b00:	e8bd 4008 	ldmia.w	sp!, {r3, lr}
70000b04:	f7ff bfc1 	b.w	70000a8a <USBD_Get_USB_Status>

70000b08 <USBD_LL_ClearStallEP>:
70000b08:	b508      	push	{r3, lr}
70000b0a:	f8d0 02c8 	ldr.w	r0, [r0, #712]	@ 0x2c8
70000b0e:	f002 fd97 	bl	70003640 <HAL_PCD_EP_ClrStall>
70000b12:	e8bd 4008 	ldmia.w	sp!, {r3, lr}
70000b16:	f7ff bfb8 	b.w	70000a8a <USBD_Get_USB_Status>

70000b1a <USBD_LL_SetUSBAddress>:
70000b1a:	b508      	push	{r3, lr}
70000b1c:	f8d0 02c8 	ldr.w	r0, [r0, #712]	@ 0x2c8
70000b20:	f002 fca7 	bl	70003472 <HAL_PCD_SetAddress>
70000b24:	e8bd 4008 	ldmia.w	sp!, {r3, lr}
70000b28:	f7ff bfaf 	b.w	70000a8a <USBD_Get_USB_Status>

70000b2c <USBD_LL_Transmit>:
70000b2c:	b508      	push	{r3, lr}
70000b2e:	f8d0 02c8 	ldr.w	r0, [r0, #712]	@ 0x2c8
70000b32:	f002 fd34 	bl	7000359e <HAL_PCD_EP_Transmit>
70000b36:	e8bd 4008 	ldmia.w	sp!, {r3, lr}
70000b3a:	f7ff bfa6 	b.w	70000a8a <USBD_Get_USB_Status>

70000b3e <USBD_LL_PrepareReceive>:
70000b3e:	b508      	push	{r3, lr}
70000b40:	f8d0 02c8 	ldr.w	r0, [r0, #712]	@ 0x2c8
70000b44:	f002 fd06 	bl	70003554 <HAL_PCD_EP_Receive>
70000b48:	e8bd 4008 	ldmia.w	sp!, {r3, lr}
70000b4c:	f7ff bf9d 	b.w	70000a8a <USBD_Get_USB_Status>

70000b50 <USBD_MSC_DeviceDescriptor>:
70000b50:	2312      	movs	r3, #18
70000b52:	4801      	ldr	r0, [pc, #4]	@ (70000b58 <USBD_MSC_DeviceDescriptor+0x8>)
70000b54:	800b      	strh	r3, [r1, #0]
70000b56:	4770      	bx	lr
70000b58:	24000024 	.word	0x24000024

70000b5c <USBD_MSC_LangIDStrDescriptor>:
70000b5c:	2304      	movs	r3, #4
70000b5e:	4801      	ldr	r0, [pc, #4]	@ (70000b64 <USBD_MSC_LangIDStrDescriptor+0x8>)
70000b60:	800b      	strh	r3, [r1, #0]
70000b62:	4770      	bx	lr
70000b64:	24000020 	.word	0x24000020

70000b68 <IntToUnicode>:
70000b68:	2300      	movs	r3, #0
70000b6a:	b570      	push	{r4, r5, r6, lr}
70000b6c:	1c4d      	adds	r5, r1, #1
70000b6e:	461e      	mov	r6, r3
70000b70:	0f04      	lsrs	r4, r0, #28
70000b72:	f1b0 4f20 	cmp.w	r0, #2684354560	@ 0xa0000000
70000b76:	ea4f 1000 	mov.w	r0, r0, lsl #4
70000b7a:	bf34      	ite	cc
70000b7c:	3430      	addcc	r4, #48	@ 0x30
70000b7e:	3437      	addcs	r4, #55	@ 0x37
70000b80:	f801 4013 	strb.w	r4, [r1, r3, lsl #1]
70000b84:	f805 6013 	strb.w	r6, [r5, r3, lsl #1]
70000b88:	3301      	adds	r3, #1
70000b8a:	b2dc      	uxtb	r4, r3
70000b8c:	42a2      	cmp	r2, r4
70000b8e:	d8ef      	bhi.n	70000b70 <IntToUnicode+0x8>
70000b90:	bd70      	pop	{r4, r5, r6, pc}
	...

70000b94 <USBD_MSC_SerialStrDescriptor>:
70000b94:	231a      	movs	r3, #26
70000b96:	b510      	push	{r4, lr}
70000b98:	800b      	strh	r3, [r1, #0]
70000b9a:	4b0a      	ldr	r3, [pc, #40]	@ (70000bc4 <USBD_MSC_SerialStrDescriptor+0x30>)
70000b9c:	f8d3 0800 	ldr.w	r0, [r3, #2048]	@ 0x800
70000ba0:	f8d3 2808 	ldr.w	r2, [r3, #2056]	@ 0x808
70000ba4:	1880      	adds	r0, r0, r2
70000ba6:	d00a      	beq.n	70000bbe <USBD_MSC_SerialStrDescriptor+0x2a>
70000ba8:	f8d3 4804 	ldr.w	r4, [r3, #2052]	@ 0x804
70000bac:	2208      	movs	r2, #8
70000bae:	4906      	ldr	r1, [pc, #24]	@ (70000bc8 <USBD_MSC_SerialStrDescriptor+0x34>)
70000bb0:	f7ff ffda 	bl	70000b68 <IntToUnicode>
70000bb4:	2204      	movs	r2, #4
70000bb6:	3110      	adds	r1, #16
70000bb8:	4620      	mov	r0, r4
70000bba:	f7ff ffd5 	bl	70000b68 <IntToUnicode>
70000bbe:	4803      	ldr	r0, [pc, #12]	@ (70000bcc <USBD_MSC_SerialStrDescriptor+0x38>)
70000bc0:	bd10      	pop	{r4, pc}
70000bc2:	bf00      	nop
70000bc4:	08fff000 	.word	0x08fff000
70000bc8:	24000006 	.word	0x24000006
70000bcc:	24000004 	.word	0x24000004

70000bd0 <USBD_MSC_ProductStrDescriptor>:
70000bd0:	460a      	mov	r2, r1
70000bd2:	4803      	ldr	r0, [pc, #12]	@ (70000be0 <USBD_MSC_ProductStrDescriptor+0x10>)
70000bd4:	4903      	ldr	r1, [pc, #12]	@ (70000be4 <USBD_MSC_ProductStrDescriptor+0x14>)
70000bd6:	b508      	push	{r3, lr}
70000bd8:	f007 ff6a 	bl	70008ab0 <USBD_GetString>
70000bdc:	4801      	ldr	r0, [pc, #4]	@ (70000be4 <USBD_MSC_ProductStrDescriptor+0x14>)
70000bde:	bd08      	pop	{r3, pc}
70000be0:	70009ad8 	.word	0x70009ad8
70000be4:	24000c50 	.word	0x24000c50

70000be8 <USBD_MSC_ManufacturerStrDescriptor>:
70000be8:	460a      	mov	r2, r1
70000bea:	4803      	ldr	r0, [pc, #12]	@ (70000bf8 <USBD_MSC_ManufacturerStrDescriptor+0x10>)
70000bec:	4903      	ldr	r1, [pc, #12]	@ (70000bfc <USBD_MSC_ManufacturerStrDescriptor+0x14>)
70000bee:	b508      	push	{r3, lr}
70000bf0:	f007 ff5e 	bl	70008ab0 <USBD_GetString>
70000bf4:	4801      	ldr	r0, [pc, #4]	@ (70000bfc <USBD_MSC_ManufacturerStrDescriptor+0x14>)
70000bf6:	bd08      	pop	{r3, pc}
70000bf8:	70009aeb 	.word	0x70009aeb
70000bfc:	24000c50 	.word	0x24000c50

70000c00 <USBD_MSC_ConfigStrDescriptor>:
70000c00:	460a      	mov	r2, r1
70000c02:	4803      	ldr	r0, [pc, #12]	@ (70000c10 <USBD_MSC_ConfigStrDescriptor+0x10>)
70000c04:	4903      	ldr	r1, [pc, #12]	@ (70000c14 <USBD_MSC_ConfigStrDescriptor+0x14>)
70000c06:	b508      	push	{r3, lr}
70000c08:	f007 ff52 	bl	70008ab0 <USBD_GetString>
70000c0c:	4801      	ldr	r0, [pc, #4]	@ (70000c14 <USBD_MSC_ConfigStrDescriptor+0x14>)
70000c0e:	bd08      	pop	{r3, pc}
70000c10:	70009afe 	.word	0x70009afe
70000c14:	24000c50 	.word	0x24000c50

70000c18 <USBD_MSC_InterfaceStrDescriptor>:
70000c18:	460a      	mov	r2, r1
70000c1a:	4803      	ldr	r0, [pc, #12]	@ (70000c28 <USBD_MSC_InterfaceStrDescriptor+0x10>)
70000c1c:	4903      	ldr	r1, [pc, #12]	@ (70000c2c <USBD_MSC_InterfaceStrDescriptor+0x14>)
70000c1e:	b508      	push	{r3, lr}
70000c20:	f007 ff46 	bl	70008ab0 <USBD_GetString>
70000c24:	4801      	ldr	r0, [pc, #4]	@ (70000c2c <USBD_MSC_InterfaceStrDescriptor+0x14>)
70000c26:	bd08      	pop	{r3, pc}
70000c28:	70009b09 	.word	0x70009b09
70000c2c:	24000c50 	.word	0x24000c50

70000c30 <STORAGE_IsWriteProtected_HS>:
70000c30:	2000      	movs	r0, #0
70000c32:	4770      	bx	lr

70000c34 <STORAGE_GetMaxLun_HS>:
70000c34:	2000      	movs	r0, #0
70000c36:	4770      	bx	lr

70000c38 <STORAGE_Write_HS>:
70000c38:	b570      	push	{r4, r5, r6, lr}
70000c3a:	2000      	movs	r0, #0
70000c3c:	460c      	mov	r4, r1
70000c3e:	4615      	mov	r5, r2
70000c40:	461e      	mov	r6, r3
70000c42:	f000 fcdf 	bl	70001604 <BSP_SD_IsDetected>
70000c46:	b908      	cbnz	r0, 70000c4c <STORAGE_Write_HS+0x14>
70000c48:	2003      	movs	r0, #3
70000c4a:	bd70      	pop	{r4, r5, r6, pc}
70000c4c:	4633      	mov	r3, r6
70000c4e:	462a      	mov	r2, r5
70000c50:	4621      	mov	r1, r4
70000c52:	2000      	movs	r0, #0
70000c54:	f000 fd98 	bl	70001788 <BSP_SD_WriteBlocks_DMA>
70000c58:	4b07      	ldr	r3, [pc, #28]	@ (70000c78 <STORAGE_Write_HS+0x40>)
70000c5a:	681a      	ldr	r2, [r3, #0]
70000c5c:	2a00      	cmp	r2, #0
70000c5e:	d0fc      	beq.n	70000c5a <STORAGE_Write_HS+0x22>
70000c60:	2200      	movs	r2, #0
70000c62:	4c06      	ldr	r4, [pc, #24]	@ (70000c7c <STORAGE_Write_HS+0x44>)
70000c64:	601a      	str	r2, [r3, #0]
70000c66:	2000      	movs	r0, #0
70000c68:	f000 fd9e 	bl	700017a8 <BSP_SD_GetCardState>
70000c6c:	2800      	cmp	r0, #0
70000c6e:	d0ec      	beq.n	70000c4a <STORAGE_Write_HS+0x12>
70000c70:	3c01      	subs	r4, #1
70000c72:	d1f8      	bne.n	70000c66 <STORAGE_Write_HS+0x2e>
70000c74:	e7e8      	b.n	70000c48 <STORAGE_Write_HS+0x10>
70000c76:	bf00      	nop
70000c78:	24000c98 	.word	0x24000c98
70000c7c:	000186a1 	.word	0x000186a1

70000c80 <STORAGE_Read_HS>:
70000c80:	b570      	push	{r4, r5, r6, lr}
70000c82:	2000      	movs	r0, #0
70000c84:	460c      	mov	r4, r1
70000c86:	4615      	mov	r5, r2
70000c88:	461e      	mov	r6, r3
70000c8a:	f000 fcbb 	bl	70001604 <BSP_SD_IsDetected>
70000c8e:	b908      	cbnz	r0, 70000c94 <STORAGE_Read_HS+0x14>
70000c90:	2003      	movs	r0, #3
70000c92:	bd70      	pop	{r4, r5, r6, pc}
70000c94:	4633      	mov	r3, r6
70000c96:	462a      	mov	r2, r5
70000c98:	4621      	mov	r1, r4
70000c9a:	2000      	movs	r0, #0
70000c9c:	f000 fd64 	bl	70001768 <BSP_SD_ReadBlocks_DMA>
70000ca0:	4b07      	ldr	r3, [pc, #28]	@ (70000cc0 <STORAGE_Read_HS+0x40>)
70000ca2:	681a      	ldr	r2, [r3, #0]
70000ca4:	2a00      	cmp	r2, #0
70000ca6:	d0fc      	beq.n	70000ca2 <STORAGE_Read_HS+0x22>
70000ca8:	2200      	movs	r2, #0
70000caa:	4c06      	ldr	r4, [pc, #24]	@ (70000cc4 <STORAGE_Read_HS+0x44>)
70000cac:	601a      	str	r2, [r3, #0]
70000cae:	2000      	movs	r0, #0
70000cb0:	f000 fd7a 	bl	700017a8 <BSP_SD_GetCardState>
70000cb4:	2800      	cmp	r0, #0
70000cb6:	d0ec      	beq.n	70000c92 <STORAGE_Read_HS+0x12>
70000cb8:	3c01      	subs	r4, #1
70000cba:	d1f8      	bne.n	70000cae <STORAGE_Read_HS+0x2e>
70000cbc:	e7e8      	b.n	70000c90 <STORAGE_Read_HS+0x10>
70000cbe:	bf00      	nop
70000cc0:	24000c94 	.word	0x24000c94
70000cc4:	000186a1 	.word	0x000186a1

70000cc8 <STORAGE_IsReady_HS>:
70000cc8:	b510      	push	{r4, lr}
70000cca:	4c0c      	ldr	r4, [pc, #48]	@ (70000cfc <STORAGE_IsReady_HS+0x34>)
70000ccc:	2000      	movs	r0, #0
70000cce:	f000 fc99 	bl	70001604 <BSP_SD_IsDetected>
70000cd2:	f994 3000 	ldrsb.w	r3, [r4]
70000cd6:	b160      	cbz	r0, 70000cf2 <STORAGE_IsReady_HS+0x2a>
70000cd8:	2b00      	cmp	r3, #0
70000cda:	da04      	bge.n	70000ce6 <STORAGE_IsReady_HS+0x1e>
70000cdc:	2000      	movs	r0, #0
70000cde:	f000 fca1 	bl	70001624 <BSP_SD_Init>
70000ce2:	2300      	movs	r3, #0
70000ce4:	7023      	strb	r3, [r4, #0]
70000ce6:	2000      	movs	r0, #0
70000ce8:	f000 fd5e 	bl	700017a8 <BSP_SD_GetCardState>
70000cec:	b100      	cbz	r0, 70000cf0 <STORAGE_IsReady_HS+0x28>
70000cee:	2003      	movs	r0, #3
70000cf0:	bd10      	pop	{r4, pc}
70000cf2:	2b00      	cmp	r3, #0
70000cf4:	d1fb      	bne.n	70000cee <STORAGE_IsReady_HS+0x26>
70000cf6:	2303      	movs	r3, #3
70000cf8:	7023      	strb	r3, [r4, #0]
70000cfa:	e7f8      	b.n	70000cee <STORAGE_IsReady_HS+0x26>
70000cfc:	24000c90 	.word	0x24000c90

70000d00 <STORAGE_Init_HS>:
70000d00:	b508      	push	{r3, lr}
70000d02:	2000      	movs	r0, #0
70000d04:	f000 fc8e 	bl	70001624 <BSP_SD_Init>
70000d08:	2000      	movs	r0, #0
70000d0a:	bd08      	pop	{r3, pc}

70000d0c <STORAGE_GetCapacity_HS>:
70000d0c:	b530      	push	{r4, r5, lr}
70000d0e:	2000      	movs	r0, #0
70000d10:	b08b      	sub	sp, #44	@ 0x2c
70000d12:	460d      	mov	r5, r1
70000d14:	4614      	mov	r4, r2
70000d16:	f000 fc75 	bl	70001604 <BSP_SD_IsDetected>
70000d1a:	b158      	cbz	r0, 70000d34 <STORAGE_GetCapacity_HS+0x28>
70000d1c:	a901      	add	r1, sp, #4
70000d1e:	2000      	movs	r0, #0
70000d20:	f000 fd50 	bl	700017c4 <BSP_SD_GetCardInfo>
70000d24:	9b07      	ldr	r3, [sp, #28]
70000d26:	2000      	movs	r0, #0
70000d28:	3b01      	subs	r3, #1
70000d2a:	602b      	str	r3, [r5, #0]
70000d2c:	9b08      	ldr	r3, [sp, #32]
70000d2e:	8023      	strh	r3, [r4, #0]
70000d30:	b00b      	add	sp, #44	@ 0x2c
70000d32:	bd30      	pop	{r4, r5, pc}
70000d34:	2003      	movs	r0, #3
70000d36:	e7fb      	b.n	70000d30 <STORAGE_GetCapacity_HS+0x24>

70000d38 <BSP_SD_WriteCpltCallback>:
70000d38:	4b01      	ldr	r3, [pc, #4]	@ (70000d40 <BSP_SD_WriteCpltCallback+0x8>)
70000d3a:	2201      	movs	r2, #1
70000d3c:	601a      	str	r2, [r3, #0]
70000d3e:	4770      	bx	lr
70000d40:	24000c98 	.word	0x24000c98

70000d44 <BSP_SD_ReadCpltCallback>:
70000d44:	4b01      	ldr	r3, [pc, #4]	@ (70000d4c <BSP_SD_ReadCpltCallback+0x8>)
70000d46:	2201      	movs	r2, #1
70000d48:	601a      	str	r2, [r3, #0]
70000d4a:	4770      	bx	lr
70000d4c:	24000c94 	.word	0x24000c94

70000d50 <MX_USBPD_Init>:
70000d50:	b508      	push	{r3, lr}
70000d52:	f000 f823 	bl	70000d9c <USBPD_DPM_InitCore>
70000d56:	b100      	cbz	r0, 70000d5a <MX_USBPD_Init+0xa>
70000d58:	e7fe      	b.n	70000d58 <MX_USBPD_Init+0x8>
70000d5a:	f000 f845 	bl	70000de8 <USBPD_DPM_InitOS>
70000d5e:	b100      	cbz	r0, 70000d62 <MX_USBPD_Init+0x12>
70000d60:	e7fe      	b.n	70000d60 <MX_USBPD_Init+0x10>
70000d62:	bd08      	pop	{r3, pc}

70000d64 <USBPD_DPM_CADTaskWakeUp>:
70000d64:	4b01      	ldr	r3, [pc, #4]	@ (70000d6c <USBPD_DPM_CADTaskWakeUp+0x8>)
70000d66:	2200      	movs	r2, #0
70000d68:	605a      	str	r2, [r3, #4]
70000d6a:	4770      	bx	lr
70000d6c:	24000ca8 	.word	0x24000ca8

70000d70 <USBPD_DPM_CADCallback>:
70000d70:	1e4b      	subs	r3, r1, #1
70000d72:	b510      	push	{r4, lr}
70000d74:	4604      	mov	r4, r0
70000d76:	2b03      	cmp	r3, #3
70000d78:	d80f      	bhi.n	70000d9a <USBPD_DPM_CADCallback+0x2a>
70000d7a:	e8df f003 	tbb	[pc, r3]
70000d7e:	020a      	.short	0x020a
70000d80:	020a      	.short	0x020a
70000d82:	f000 f84c 	bl	70000e1e <USBPD_DPM_UserCableDetection>
70000d86:	2168      	movs	r1, #104	@ 0x68
70000d88:	4620      	mov	r0, r4
70000d8a:	e8bd 4010 	ldmia.w	sp!, {r4, lr}
70000d8e:	f000 b847 	b.w	70000e20 <USBPD_DPM_Notification>
70000d92:	f000 f844 	bl	70000e1e <USBPD_DPM_UserCableDetection>
70000d96:	2169      	movs	r1, #105	@ 0x69
70000d98:	e7f6      	b.n	70000d88 <USBPD_DPM_CADCallback+0x18>
70000d9a:	bd10      	pop	{r4, pc}

70000d9c <USBPD_DPM_InitCore>:
70000d9c:	b538      	push	{r3, r4, r5, lr}
70000d9e:	480e      	ldr	r0, [pc, #56]	@ (70000dd8 <USBPD_DPM_InitCore+0x3c>)
70000da0:	f7ff fb37 	bl	70000412 <USBPD_PE_CheckLIB>
70000da4:	2801      	cmp	r0, #1
70000da6:	4605      	mov	r5, r0
70000da8:	d002      	beq.n	70000db0 <USBPD_DPM_InitCore+0x14>
70000daa:	2402      	movs	r4, #2
70000dac:	4620      	mov	r0, r4
70000dae:	bd38      	pop	{r3, r4, r5, pc}
70000db0:	f7ff fb3a 	bl	70000428 <USBPD_PE_GetMemoryConsumption>
70000db4:	4b09      	ldr	r3, [pc, #36]	@ (70000ddc <USBPD_DPM_InitCore+0x40>)
70000db6:	4a0a      	ldr	r2, [pc, #40]	@ (70000de0 <USBPD_DPM_InitCore+0x44>)
70000db8:	7819      	ldrb	r1, [r3, #0]
70000dba:	7810      	ldrb	r0, [r2, #0]
70000dbc:	f360 0182 	bfi	r1, r0, #2, #1
70000dc0:	2000      	movs	r0, #0
70000dc2:	7019      	strb	r1, [r3, #0]
70000dc4:	4907      	ldr	r1, [pc, #28]	@ (70000de4 <USBPD_DPM_InitCore+0x48>)
70000dc6:	f7ff fa73 	bl	700002b0 <USBPD_CAD_Init>
70000dca:	4604      	mov	r4, r0
70000dcc:	2800      	cmp	r0, #0
70000dce:	d1ec      	bne.n	70000daa <USBPD_DPM_InitCore+0xe>
70000dd0:	4629      	mov	r1, r5
70000dd2:	f7ff fa95 	bl	70000300 <USBPD_CAD_PortEnable>
70000dd6:	e7e9      	b.n	70000dac <USBPD_DPM_InitCore+0x10>
70000dd8:	00410100 	.word	0x00410100
70000ddc:	24000c9c 	.word	0x24000c9c
70000de0:	24000cb0 	.word	0x24000cb0
70000de4:	70009b58 	.word	0x70009b58

70000de8 <USBPD_DPM_InitOS>:
70000de8:	2000      	movs	r0, #0
70000dea:	4770      	bx	lr

70000dec <USBPD_DPM_Run>:
70000dec:	4c09      	ldr	r4, [pc, #36]	@ (70000e14 <USBPD_DPM_Run+0x28>)
70000dee:	4d0a      	ldr	r5, [pc, #40]	@ (70000e18 <USBPD_DPM_Run+0x2c>)
70000df0:	b508      	push	{r3, lr}
70000df2:	f001 f92b 	bl	7000204c <HAL_GetTick>
70000df6:	6863      	ldr	r3, [r4, #4]
70000df8:	1ac0      	subs	r0, r0, r3
70000dfa:	686b      	ldr	r3, [r5, #4]
70000dfc:	4298      	cmp	r0, r3
70000dfe:	d305      	bcc.n	70000e0c <USBPD_DPM_Run+0x20>
70000e00:	f7ff fa85 	bl	7000030e <USBPD_CAD_Process>
70000e04:	6068      	str	r0, [r5, #4]
70000e06:	f001 f921 	bl	7000204c <HAL_GetTick>
70000e0a:	6060      	str	r0, [r4, #4]
70000e0c:	2000      	movs	r0, #0
70000e0e:	f000 f805 	bl	70000e1c <USBPD_DPM_UserExecute>
70000e12:	e7ee      	b.n	70000df2 <USBPD_DPM_Run+0x6>
70000e14:	24000ca0 	.word	0x24000ca0
70000e18:	24000ca8 	.word	0x24000ca8

70000e1c <USBPD_DPM_UserExecute>:
70000e1c:	4770      	bx	lr

70000e1e <USBPD_DPM_UserCableDetection>:
70000e1e:	4770      	bx	lr

70000e20 <USBPD_DPM_Notification>:
70000e20:	2968      	cmp	r1, #104	@ 0x68
70000e22:	d002      	beq.n	70000e2a <USBPD_DPM_Notification+0xa>
70000e24:	2969      	cmp	r1, #105	@ 0x69
70000e26:	d002      	beq.n	70000e2e <USBPD_DPM_Notification+0xe>
70000e28:	4770      	bx	lr
70000e2a:	f000 b821 	b.w	70000e70 <USBPD_USBIF_DeviceStart>
70000e2e:	f000 b82b 	b.w	70000e88 <USBPD_USBIF_DeviceStop>

70000e32 <USBPD_PWR_IF_GetVBUSStatus>:
70000e32:	b510      	push	{r4, lr}
70000e34:	460c      	mov	r4, r1
70000e36:	f007 fa27 	bl	70008288 <HW_IF_PWR_GetVoltage>
70000e3a:	2c01      	cmp	r4, #1
70000e3c:	d009      	beq.n	70000e52 <USBPD_PWR_IF_GetVBUSStatus+0x20>
70000e3e:	2c02      	cmp	r4, #2
70000e40:	d00d      	beq.n	70000e5e <USBPD_PWR_IF_GetVBUSStatus+0x2c>
70000e42:	b994      	cbnz	r4, 70000e6a <USBPD_PWR_IF_GetVBUSStatus+0x38>
70000e44:	f240 23ed 	movw	r3, #749	@ 0x2ed
70000e48:	4298      	cmp	r0, r3
70000e4a:	bf8c      	ite	hi
70000e4c:	2000      	movhi	r0, #0
70000e4e:	2001      	movls	r0, #1
70000e50:	bd10      	pop	{r4, pc}
70000e52:	f5b0 6f2f 	cmp.w	r0, #2800	@ 0xaf0
70000e56:	bf34      	ite	cc
70000e58:	2000      	movcc	r0, #0
70000e5a:	2001      	movcs	r0, #1
70000e5c:	e7f8      	b.n	70000e50 <USBPD_PWR_IF_GetVBUSStatus+0x1e>
70000e5e:	f5b0 6f2f 	cmp.w	r0, #2800	@ 0xaf0
70000e62:	bf2c      	ite	cs
70000e64:	2000      	movcs	r0, #0
70000e66:	2001      	movcc	r0, #1
70000e68:	e7f2      	b.n	70000e50 <USBPD_PWR_IF_GetVBUSStatus+0x1e>
70000e6a:	2000      	movs	r0, #0
70000e6c:	e7f0      	b.n	70000e50 <USBPD_PWR_IF_GetVBUSStatus+0x1e>
	...

70000e70 <USBPD_USBIF_DeviceStart>:
70000e70:	b508      	push	{r3, lr}
70000e72:	4804      	ldr	r0, [pc, #16]	@ (70000e84 <USBPD_USBIF_DeviceStart+0x14>)
70000e74:	f007 fa3e 	bl	700082f4 <USBD_Start>
70000e78:	b118      	cbz	r0, 70000e82 <USBPD_USBIF_DeviceStart+0x12>
70000e7a:	e8bd 4008 	ldmia.w	sp!, {r3, lr}
70000e7e:	f7ff bc99 	b.w	700007b4 <Error_Handler>
70000e82:	bd08      	pop	{r3, pc}
70000e84:	24000208 	.word	0x24000208

70000e88 <USBPD_USBIF_DeviceStop>:
70000e88:	2311      	movs	r3, #17
70000e8a:	b507      	push	{r0, r1, r2, lr}
70000e8c:	b2c1      	uxtb	r1, r0
70000e8e:	9300      	str	r3, [sp, #0]
70000e90:	2006      	movs	r0, #6
70000e92:	4b08      	ldr	r3, [pc, #32]	@ (70000eb4 <USBPD_USBIF_DeviceStop+0x2c>)
70000e94:	2200      	movs	r2, #0
70000e96:	f007 fa00 	bl	7000829a <USBPD_TRACE_Add>
70000e9a:	4807      	ldr	r0, [pc, #28]	@ (70000eb8 <USBPD_USBIF_DeviceStop+0x30>)
70000e9c:	f007 fa2c 	bl	700082f8 <USBD_Stop>
70000ea0:	b120      	cbz	r0, 70000eac <USBPD_USBIF_DeviceStop+0x24>
70000ea2:	b003      	add	sp, #12
70000ea4:	f85d eb04 	ldr.w	lr, [sp], #4
70000ea8:	f7ff bc84 	b.w	700007b4 <Error_Handler>
70000eac:	b003      	add	sp, #12
70000eae:	f85d fb04 	ldr.w	pc, [sp], #4
70000eb2:	bf00      	nop
70000eb4:	70009b17 	.word	0x70009b17
70000eb8:	24000208 	.word	0x24000208

70000ebc <TCPP0203_ReadRegWrap>:
70000ebc:	b410      	push	{r4}
70000ebe:	6904      	ldr	r4, [r0, #16]
70000ec0:	8900      	ldrh	r0, [r0, #8]
70000ec2:	46a4      	mov	ip, r4
70000ec4:	f85d 4b04 	ldr.w	r4, [sp], #4
70000ec8:	4760      	bx	ip

70000eca <TCPP0203_WriteRegWrap>:
70000eca:	b410      	push	{r4}
70000ecc:	68c4      	ldr	r4, [r0, #12]
70000ece:	8900      	ldrh	r0, [r0, #8]
70000ed0:	46a4      	mov	ip, r4
70000ed2:	f85d 4b04 	ldr.w	r4, [sp], #4
70000ed6:	4760      	bx	ip

70000ed8 <TCPP0203_Init>:
70000ed8:	b513      	push	{r0, r1, r4, lr}
70000eda:	f890 3024 	ldrb.w	r3, [r0, #36]	@ 0x24
70000ede:	4604      	mov	r4, r0
70000ee0:	b113      	cbz	r3, 70000ee8 <TCPP0203_Init+0x10>
70000ee2:	2000      	movs	r0, #0
70000ee4:	b002      	add	sp, #8
70000ee6:	bd10      	pop	{r4, pc}
70000ee8:	f10d 0207 	add.w	r2, sp, #7
70000eec:	2301      	movs	r3, #1
70000eee:	2102      	movs	r1, #2
70000ef0:	3018      	adds	r0, #24
70000ef2:	f000 f9a9 	bl	70001248 <tcpp0203_read_reg>
70000ef6:	4a09      	ldr	r2, [pc, #36]	@ (70000f1c <TCPP0203_Init+0x44>)
70000ef8:	b940      	cbnz	r0, 70000f0c <TCPP0203_Init+0x34>
70000efa:	f89d 3007 	ldrb.w	r3, [sp, #7]
70000efe:	f023 037f 	bic.w	r3, r3, #127	@ 0x7f
70000f02:	7013      	strb	r3, [r2, #0]
70000f04:	2301      	movs	r3, #1
70000f06:	f884 3024 	strb.w	r3, [r4, #36]	@ 0x24
70000f0a:	e7ea      	b.n	70000ee2 <TCPP0203_Init+0xa>
70000f0c:	2380      	movs	r3, #128	@ 0x80
70000f0e:	f04f 30ff 	mov.w	r0, #4294967295	@ 0xffffffff
70000f12:	7013      	strb	r3, [r2, #0]
70000f14:	2301      	movs	r3, #1
70000f16:	f884 3024 	strb.w	r3, [r4, #36]	@ 0x24
70000f1a:	e7e3      	b.n	70000ee4 <TCPP0203_Init+0xc>
70000f1c:	24000cb4 	.word	0x24000cb4

70000f20 <TCPP0203_GetVConnSwitchAck>:
70000f20:	2301      	movs	r3, #1
70000f22:	b513      	push	{r0, r1, r4, lr}
70000f24:	460c      	mov	r4, r1
70000f26:	f10d 0207 	add.w	r2, sp, #7
70000f2a:	4619      	mov	r1, r3
70000f2c:	3018      	adds	r0, #24
70000f2e:	f000 f98b 	bl	70001248 <tcpp0203_read_reg>
70000f32:	f89d 3007 	ldrb.w	r3, [sp, #7]
70000f36:	f003 0303 	and.w	r3, r3, #3
70000f3a:	7023      	strb	r3, [r4, #0]
70000f3c:	b002      	add	sp, #8
70000f3e:	bd10      	pop	{r4, pc}

70000f40 <TCPP0203_GetGateDriverProviderAck>:
70000f40:	2301      	movs	r3, #1
70000f42:	b513      	push	{r0, r1, r4, lr}
70000f44:	460c      	mov	r4, r1
70000f46:	f10d 0207 	add.w	r2, sp, #7
70000f4a:	4619      	mov	r1, r3
70000f4c:	3018      	adds	r0, #24
70000f4e:	f000 f97b 	bl	70001248 <tcpp0203_read_reg>
70000f52:	f89d 3007 	ldrb.w	r3, [sp, #7]
70000f56:	f003 0304 	and.w	r3, r3, #4
70000f5a:	7023      	strb	r3, [r4, #0]
70000f5c:	b002      	add	sp, #8
70000f5e:	bd10      	pop	{r4, pc}

70000f60 <TCPP0203_GetGateDriverConsumerAck>:
70000f60:	4b0a      	ldr	r3, [pc, #40]	@ (70000f8c <TCPP0203_GetGateDriverConsumerAck+0x2c>)
70000f62:	b513      	push	{r0, r1, r4, lr}
70000f64:	781b      	ldrb	r3, [r3, #0]
70000f66:	460c      	mov	r4, r1
70000f68:	b96b      	cbnz	r3, 70000f86 <TCPP0203_GetGateDriverConsumerAck+0x26>
70000f6a:	2301      	movs	r3, #1
70000f6c:	f10d 0207 	add.w	r2, sp, #7
70000f70:	3018      	adds	r0, #24
70000f72:	4619      	mov	r1, r3
70000f74:	f000 f968 	bl	70001248 <tcpp0203_read_reg>
70000f78:	f89d 3007 	ldrb.w	r3, [sp, #7]
70000f7c:	f003 0308 	and.w	r3, r3, #8
70000f80:	7023      	strb	r3, [r4, #0]
70000f82:	b002      	add	sp, #8
70000f84:	bd10      	pop	{r4, pc}
70000f86:	f04f 30ff 	mov.w	r0, #4294967295	@ 0xffffffff
70000f8a:	e7fa      	b.n	70000f82 <TCPP0203_GetGateDriverConsumerAck+0x22>
70000f8c:	24000cb4 	.word	0x24000cb4

70000f90 <TCPP0203_GetPowerModeAck>:
70000f90:	2301      	movs	r3, #1
70000f92:	b513      	push	{r0, r1, r4, lr}
70000f94:	460c      	mov	r4, r1
70000f96:	f10d 0207 	add.w	r2, sp, #7
70000f9a:	4619      	mov	r1, r3
70000f9c:	3018      	adds	r0, #24
70000f9e:	f000 f953 	bl	70001248 <tcpp0203_read_reg>
70000fa2:	f89d 3007 	ldrb.w	r3, [sp, #7]
70000fa6:	f003 0330 	and.w	r3, r3, #48	@ 0x30
70000faa:	7023      	strb	r3, [r4, #0]
70000fac:	b002      	add	sp, #8
70000fae:	bd10      	pop	{r4, pc}

70000fb0 <TCPP0203_GetVBusDischargeAck>:
70000fb0:	2301      	movs	r3, #1
70000fb2:	b513      	push	{r0, r1, r4, lr}
70000fb4:	460c      	mov	r4, r1
70000fb6:	f10d 0207 	add.w	r2, sp, #7
70000fba:	4619      	mov	r1, r3
70000fbc:	3018      	adds	r0, #24
70000fbe:	f000 f943 	bl	70001248 <tcpp0203_read_reg>
70000fc2:	f89d 3007 	ldrb.w	r3, [sp, #7]
70000fc6:	f003 0340 	and.w	r3, r3, #64	@ 0x40
70000fca:	7023      	strb	r3, [r4, #0]
70000fcc:	b002      	add	sp, #8
70000fce:	bd10      	pop	{r4, pc}

70000fd0 <TCPP0203_GetVConnDischargeAck>:
70000fd0:	2301      	movs	r3, #1
70000fd2:	b513      	push	{r0, r1, r4, lr}
70000fd4:	460c      	mov	r4, r1
70000fd6:	f10d 0207 	add.w	r2, sp, #7
70000fda:	4619      	mov	r1, r3
70000fdc:	3018      	adds	r0, #24
70000fde:	f000 f933 	bl	70001248 <tcpp0203_read_reg>
70000fe2:	f89d 3007 	ldrb.w	r3, [sp, #7]
70000fe6:	f023 037f 	bic.w	r3, r3, #127	@ 0x7f
70000fea:	7023      	strb	r3, [r4, #0]
70000fec:	b002      	add	sp, #8
70000fee:	bd10      	pop	{r4, pc}

70000ff0 <TCPP0203_GetOCPVConnFlag>:
70000ff0:	b513      	push	{r0, r1, r4, lr}
70000ff2:	2301      	movs	r3, #1
70000ff4:	460c      	mov	r4, r1
70000ff6:	f10d 0207 	add.w	r2, sp, #7
70000ffa:	2102      	movs	r1, #2
70000ffc:	3018      	adds	r0, #24
70000ffe:	f000 f923 	bl	70001248 <tcpp0203_read_reg>
70001002:	f89d 3007 	ldrb.w	r3, [sp, #7]
70001006:	f003 0301 	and.w	r3, r3, #1
7000100a:	7023      	strb	r3, [r4, #0]
7000100c:	b002      	add	sp, #8
7000100e:	bd10      	pop	{r4, pc}

70001010 <TCPP0203_GetOCPVBusFlag>:
70001010:	b513      	push	{r0, r1, r4, lr}
70001012:	2301      	movs	r3, #1
70001014:	460c      	mov	r4, r1
70001016:	f10d 0207 	add.w	r2, sp, #7
7000101a:	2102      	movs	r1, #2
7000101c:	3018      	adds	r0, #24
7000101e:	f000 f913 	bl	70001248 <tcpp0203_read_reg>
70001022:	f89d 3007 	ldrb.w	r3, [sp, #7]
70001026:	f003 0302 	and.w	r3, r3, #2
7000102a:	7023      	strb	r3, [r4, #0]
7000102c:	b002      	add	sp, #8
7000102e:	bd10      	pop	{r4, pc}

70001030 <TCPP0203_GetOVPVBusFlag>:
70001030:	b513      	push	{r0, r1, r4, lr}
70001032:	2301      	movs	r3, #1
70001034:	460c      	mov	r4, r1
70001036:	f10d 0207 	add.w	r2, sp, #7
7000103a:	2102      	movs	r1, #2
7000103c:	3018      	adds	r0, #24
7000103e:	f000 f903 	bl	70001248 <tcpp0203_read_reg>
70001042:	f89d 3007 	ldrb.w	r3, [sp, #7]
70001046:	f003 0304 	and.w	r3, r3, #4
7000104a:	7023      	strb	r3, [r4, #0]
7000104c:	b002      	add	sp, #8
7000104e:	bd10      	pop	{r4, pc}

70001050 <TCPP0203_GetOVPCCFlag>:
70001050:	b513      	push	{r0, r1, r4, lr}
70001052:	2301      	movs	r3, #1
70001054:	460c      	mov	r4, r1
70001056:	f10d 0207 	add.w	r2, sp, #7
7000105a:	2102      	movs	r1, #2
7000105c:	3018      	adds	r0, #24
7000105e:	f000 f8f3 	bl	70001248 <tcpp0203_read_reg>
70001062:	f89d 3007 	ldrb.w	r3, [sp, #7]
70001066:	f003 0308 	and.w	r3, r3, #8
7000106a:	7023      	strb	r3, [r4, #0]
7000106c:	b002      	add	sp, #8
7000106e:	bd10      	pop	{r4, pc}

70001070 <TCPP0203_GetOTPFlag>:
70001070:	b513      	push	{r0, r1, r4, lr}
70001072:	2301      	movs	r3, #1
70001074:	460c      	mov	r4, r1
70001076:	f10d 0207 	add.w	r2, sp, #7
7000107a:	2102      	movs	r1, #2
7000107c:	3018      	adds	r0, #24
7000107e:	f000 f8e3 	bl	70001248 <tcpp0203_read_reg>
70001082:	f89d 3007 	ldrb.w	r3, [sp, #7]
70001086:	f003 0310 	and.w	r3, r3, #16
7000108a:	7023      	strb	r3, [r4, #0]
7000108c:	b002      	add	sp, #8
7000108e:	bd10      	pop	{r4, pc}

70001090 <TCPP0203_GetVBusOkFlag>:
70001090:	b513      	push	{r0, r1, r4, lr}
70001092:	2301      	movs	r3, #1
70001094:	460c      	mov	r4, r1
70001096:	f10d 0207 	add.w	r2, sp, #7
7000109a:	2102      	movs	r1, #2
7000109c:	3018      	adds	r0, #24
7000109e:	f000 f8d3 	bl	70001248 <tcpp0203_read_reg>
700010a2:	f89d 3007 	ldrb.w	r3, [sp, #7]
700010a6:	f003 0320 	and.w	r3, r3, #32
700010aa:	7023      	strb	r3, [r4, #0]
700010ac:	b002      	add	sp, #8
700010ae:	bd10      	pop	{r4, pc}

700010b0 <TCPP0203_ReadTCPPType>:
700010b0:	b513      	push	{r0, r1, r4, lr}
700010b2:	2301      	movs	r3, #1
700010b4:	460c      	mov	r4, r1
700010b6:	f10d 0207 	add.w	r2, sp, #7
700010ba:	2102      	movs	r1, #2
700010bc:	3018      	adds	r0, #24
700010be:	f000 f8c3 	bl	70001248 <tcpp0203_read_reg>
700010c2:	f89d 3007 	ldrb.w	r3, [sp, #7]
700010c6:	f023 037f 	bic.w	r3, r3, #127	@ 0x7f
700010ca:	7023      	strb	r3, [r4, #0]
700010cc:	b002      	add	sp, #8
700010ce:	bd10      	pop	{r4, pc}

700010d0 <TCPP0203_ReadVCONNPower>:
700010d0:	b513      	push	{r0, r1, r4, lr}
700010d2:	2301      	movs	r3, #1
700010d4:	460c      	mov	r4, r1
700010d6:	f10d 0207 	add.w	r2, sp, #7
700010da:	2102      	movs	r1, #2
700010dc:	3018      	adds	r0, #24
700010de:	f000 f8b3 	bl	70001248 <tcpp0203_read_reg>
700010e2:	f89d 3007 	ldrb.w	r3, [sp, #7]
700010e6:	f003 0340 	and.w	r3, r3, #64	@ 0x40
700010ea:	7023      	strb	r3, [r4, #0]
700010ec:	b002      	add	sp, #8
700010ee:	bd10      	pop	{r4, pc}

700010f0 <TCPP0203_ReadAckRegister>:
700010f0:	2301      	movs	r3, #1
700010f2:	460a      	mov	r2, r1
700010f4:	3018      	adds	r0, #24
700010f6:	4619      	mov	r1, r3
700010f8:	f000 b8a6 	b.w	70001248 <tcpp0203_read_reg>

700010fc <TCPP0203_ReadFlagRegister>:
700010fc:	460a      	mov	r2, r1
700010fe:	2301      	movs	r3, #1
70001100:	2102      	movs	r1, #2
70001102:	3018      	adds	r0, #24
70001104:	f000 b8a0 	b.w	70001248 <tcpp0203_read_reg>

70001108 <TCPP0203_Reset>:
70001108:	b507      	push	{r0, r1, r2, lr}
7000110a:	2100      	movs	r1, #0
7000110c:	2301      	movs	r3, #1
7000110e:	f10d 0207 	add.w	r2, sp, #7
70001112:	3018      	adds	r0, #24
70001114:	f88d 1007 	strb.w	r1, [sp, #7]
70001118:	f000 f89d 	bl	70001256 <tcpp0203_write_reg>
7000111c:	3800      	subs	r0, #0
7000111e:	bf18      	it	ne
70001120:	2001      	movne	r0, #1
70001122:	4240      	negs	r0, r0
70001124:	b003      	add	sp, #12
70001126:	f85d fb04 	ldr.w	pc, [sp], #4

7000112a <TCPP0203_ModifyReg0>:
7000112a:	b5f7      	push	{r0, r1, r2, r4, r5, r6, r7, lr}
7000112c:	2301      	movs	r3, #1
7000112e:	f100 0518 	add.w	r5, r0, #24
70001132:	460f      	mov	r7, r1
70001134:	4614      	mov	r4, r2
70001136:	4619      	mov	r1, r3
70001138:	f10d 0207 	add.w	r2, sp, #7
7000113c:	4628      	mov	r0, r5
7000113e:	f000 f883 	bl	70001248 <tcpp0203_read_reg>
70001142:	f89d 3007 	ldrb.w	r3, [sp, #7]
70001146:	4606      	mov	r6, r0
70001148:	f10d 0207 	add.w	r2, sp, #7
7000114c:	ea23 0304 	bic.w	r3, r3, r4
70001150:	403c      	ands	r4, r7
70001152:	2100      	movs	r1, #0
70001154:	4628      	mov	r0, r5
70001156:	4323      	orrs	r3, r4
70001158:	f88d 3007 	strb.w	r3, [sp, #7]
7000115c:	2301      	movs	r3, #1
7000115e:	f000 f87a 	bl	70001256 <tcpp0203_write_reg>
70001162:	4430      	add	r0, r6
70001164:	b003      	add	sp, #12
70001166:	bdf0      	pop	{r4, r5, r6, r7, pc}

70001168 <TCPP0203_SetVConnSwitch>:
70001168:	2902      	cmp	r1, #2
7000116a:	d802      	bhi.n	70001172 <TCPP0203_SetVConnSwitch+0xa>
7000116c:	2203      	movs	r2, #3
7000116e:	f7ff bfdc 	b.w	7000112a <TCPP0203_ModifyReg0>
70001172:	f04f 30ff 	mov.w	r0, #4294967295	@ 0xffffffff
70001176:	4770      	bx	lr

70001178 <TCPP0203_SetPowerMode>:
70001178:	f011 0fef 	tst.w	r1, #239	@ 0xef
7000117c:	d001      	beq.n	70001182 <TCPP0203_SetPowerMode+0xa>
7000117e:	2920      	cmp	r1, #32
70001180:	d102      	bne.n	70001188 <TCPP0203_SetPowerMode+0x10>
70001182:	2230      	movs	r2, #48	@ 0x30
70001184:	f7ff bfd1 	b.w	7000112a <TCPP0203_ModifyReg0>
70001188:	f04f 30ff 	mov.w	r0, #4294967295	@ 0xffffffff
7000118c:	4770      	bx	lr

7000118e <TCPP0203_SetVBusDischarge>:
7000118e:	f011 0fbf 	tst.w	r1, #191	@ 0xbf
70001192:	d102      	bne.n	7000119a <TCPP0203_SetVBusDischarge+0xc>
70001194:	2240      	movs	r2, #64	@ 0x40
70001196:	f7ff bfc8 	b.w	7000112a <TCPP0203_ModifyReg0>
7000119a:	f04f 30ff 	mov.w	r0, #4294967295	@ 0xffffffff
7000119e:	4770      	bx	lr

700011a0 <TCPP0203_SetVConnDischarge>:
700011a0:	064b      	lsls	r3, r1, #25
700011a2:	d102      	bne.n	700011aa <TCPP0203_SetVConnDischarge+0xa>
700011a4:	2280      	movs	r2, #128	@ 0x80
700011a6:	f7ff bfc0 	b.w	7000112a <TCPP0203_ModifyReg0>
700011aa:	f04f 30ff 	mov.w	r0, #4294967295	@ 0xffffffff
700011ae:	4770      	bx	lr

700011b0 <TCPP0203_WriteCtrlRegister>:
700011b0:	460a      	mov	r2, r1
700011b2:	2301      	movs	r3, #1
700011b4:	2100      	movs	r1, #0
700011b6:	3018      	adds	r0, #24
700011b8:	f000 b84d 	b.w	70001256 <tcpp0203_write_reg>

700011bc <TCPP0203_DeInit>:
700011bc:	b510      	push	{r4, lr}
700011be:	f890 3024 	ldrb.w	r3, [r0, #36]	@ 0x24
700011c2:	4604      	mov	r4, r0
700011c4:	2b01      	cmp	r3, #1
700011c6:	d104      	bne.n	700011d2 <TCPP0203_DeInit+0x16>
700011c8:	6843      	ldr	r3, [r0, #4]
700011ca:	4798      	blx	r3
700011cc:	2300      	movs	r3, #0
700011ce:	f884 3024 	strb.w	r3, [r4, #36]	@ 0x24
700011d2:	2000      	movs	r0, #0
700011d4:	bd10      	pop	{r4, pc}

700011d6 <TCPP0203_SetGateDriverProvider>:
700011d6:	b129      	cbz	r1, 700011e4 <TCPP0203_SetGateDriverProvider+0xe>
700011d8:	2904      	cmp	r1, #4
700011da:	d105      	bne.n	700011e8 <TCPP0203_SetGateDriverProvider+0x12>
700011dc:	220c      	movs	r2, #12
700011de:	4611      	mov	r1, r2
700011e0:	f7ff bfa3 	b.w	7000112a <TCPP0203_ModifyReg0>
700011e4:	2204      	movs	r2, #4
700011e6:	e7fb      	b.n	700011e0 <TCPP0203_SetGateDriverProvider+0xa>
700011e8:	f04f 30ff 	mov.w	r0, #4294967295	@ 0xffffffff
700011ec:	4770      	bx	lr
	...

700011f0 <TCPP0203_SetGateDriverConsumer>:
700011f0:	4b06      	ldr	r3, [pc, #24]	@ (7000120c <TCPP0203_SetGateDriverConsumer+0x1c>)
700011f2:	460a      	mov	r2, r1
700011f4:	781b      	ldrb	r3, [r3, #0]
700011f6:	b92b      	cbnz	r3, 70001204 <TCPP0203_SetGateDriverConsumer+0x14>
700011f8:	2908      	cmp	r1, #8
700011fa:	d001      	beq.n	70001200 <TCPP0203_SetGateDriverConsumer+0x10>
700011fc:	b911      	cbnz	r1, 70001204 <TCPP0203_SetGateDriverConsumer+0x14>
700011fe:	220c      	movs	r2, #12
70001200:	f7ff bf93 	b.w	7000112a <TCPP0203_ModifyReg0>
70001204:	f04f 30ff 	mov.w	r0, #4294967295	@ 0xffffffff
70001208:	4770      	bx	lr
7000120a:	bf00      	nop
7000120c:	24000cb4 	.word	0x24000cb4

70001210 <TCPP0203_RegisterBusIO>:
70001210:	b190      	cbz	r0, 70001238 <TCPP0203_RegisterBusIO+0x28>
70001212:	684a      	ldr	r2, [r1, #4]
70001214:	680b      	ldr	r3, [r1, #0]
70001216:	6042      	str	r2, [r0, #4]
70001218:	890a      	ldrh	r2, [r1, #8]
7000121a:	6003      	str	r3, [r0, #0]
7000121c:	8102      	strh	r2, [r0, #8]
7000121e:	68ca      	ldr	r2, [r1, #12]
70001220:	60c2      	str	r2, [r0, #12]
70001222:	690a      	ldr	r2, [r1, #16]
70001224:	6102      	str	r2, [r0, #16]
70001226:	694a      	ldr	r2, [r1, #20]
70001228:	6200      	str	r0, [r0, #32]
7000122a:	6142      	str	r2, [r0, #20]
7000122c:	4a04      	ldr	r2, [pc, #16]	@ (70001240 <TCPP0203_RegisterBusIO+0x30>)
7000122e:	61c2      	str	r2, [r0, #28]
70001230:	4a04      	ldr	r2, [pc, #16]	@ (70001244 <TCPP0203_RegisterBusIO+0x34>)
70001232:	6182      	str	r2, [r0, #24]
70001234:	b103      	cbz	r3, 70001238 <TCPP0203_RegisterBusIO+0x28>
70001236:	4718      	bx	r3
70001238:	f04f 30ff 	mov.w	r0, #4294967295	@ 0xffffffff
7000123c:	4770      	bx	lr
7000123e:	bf00      	nop
70001240:	70000ebd 	.word	0x70000ebd
70001244:	70000ecb 	.word	0x70000ecb

70001248 <tcpp0203_read_reg>:
70001248:	b410      	push	{r4}
7000124a:	e9d0 4001 	ldrd	r4, r0, [r0, #4]
7000124e:	46a4      	mov	ip, r4
70001250:	f85d 4b04 	ldr.w	r4, [sp], #4
70001254:	4760      	bx	ip

70001256 <tcpp0203_write_reg>:
70001256:	b410      	push	{r4}
70001258:	6804      	ldr	r4, [r0, #0]
7000125a:	6880      	ldr	r0, [r0, #8]
7000125c:	46a4      	mov	ip, r4
7000125e:	f85d 4b04 	ldr.w	r4, [sp], #4
70001262:	4760      	bx	ip

70001264 <BSP_I2C1_DeInit>:
70001264:	4a0f      	ldr	r2, [pc, #60]	@ (700012a4 <BSP_I2C1_DeInit+0x40>)
70001266:	b508      	push	{r3, lr}
70001268:	6813      	ldr	r3, [r2, #0]
7000126a:	3b01      	subs	r3, #1
7000126c:	6013      	str	r3, [r2, #0]
7000126e:	b10b      	cbz	r3, 70001274 <BSP_I2C1_DeInit+0x10>
70001270:	2000      	movs	r0, #0
70001272:	bd08      	pop	{r3, pc}
70001274:	2140      	movs	r1, #64	@ 0x40
70001276:	480c      	ldr	r0, [pc, #48]	@ (700012a8 <BSP_I2C1_DeInit+0x44>)
70001278:	f001 fc28 	bl	70002acc <HAL_GPIO_DeInit>
7000127c:	480a      	ldr	r0, [pc, #40]	@ (700012a8 <BSP_I2C1_DeInit+0x44>)
7000127e:	f44f 7100 	mov.w	r1, #512	@ 0x200
70001282:	f001 fc23 	bl	70002acc <HAL_GPIO_DeInit>
70001286:	4a09      	ldr	r2, [pc, #36]	@ (700012ac <BSP_I2C1_DeInit+0x48>)
70001288:	4809      	ldr	r0, [pc, #36]	@ (700012b0 <BSP_I2C1_DeInit+0x4c>)
7000128a:	f8d2 3148 	ldr.w	r3, [r2, #328]	@ 0x148
7000128e:	f423 1300 	bic.w	r3, r3, #2097152	@ 0x200000
70001292:	f8c2 3148 	str.w	r3, [r2, #328]	@ 0x148
70001296:	f001 fe12 	bl	70002ebe <HAL_I2C_DeInit>
7000129a:	2800      	cmp	r0, #0
7000129c:	d0e8      	beq.n	70001270 <BSP_I2C1_DeInit+0xc>
7000129e:	f06f 0007 	mvn.w	r0, #7
700012a2:	e7e6      	b.n	70001272 <BSP_I2C1_DeInit+0xe>
700012a4:	24001710 	.word	0x24001710
700012a8:	58020400 	.word	0x58020400
700012ac:	58024400 	.word	0x58024400
700012b0:	24000cb8 	.word	0x24000cb8

700012b4 <MX_I2C1_Init>:
700012b4:	2300      	movs	r3, #0
700012b6:	2201      	movs	r2, #1
700012b8:	b510      	push	{r4, lr}
700012ba:	6041      	str	r1, [r0, #4]
700012bc:	4604      	mov	r4, r0
700012be:	6203      	str	r3, [r0, #32]
700012c0:	e9c0 3202 	strd	r3, r2, [r0, #8]
700012c4:	e9c0 3304 	strd	r3, r3, [r0, #16]
700012c8:	e9c0 3306 	strd	r3, r3, [r0, #24]
700012cc:	f001 fda1 	bl	70002e12 <HAL_I2C_Init>
700012d0:	4601      	mov	r1, r0
700012d2:	b108      	cbz	r0, 700012d8 <MX_I2C1_Init+0x24>
700012d4:	2001      	movs	r0, #1
700012d6:	bd10      	pop	{r4, pc}
700012d8:	4620      	mov	r0, r4
700012da:	f001 ffc6 	bl	7000326a <HAL_I2CEx_ConfigAnalogFilter>
700012de:	4601      	mov	r1, r0
700012e0:	2800      	cmp	r0, #0
700012e2:	d1f7      	bne.n	700012d4 <MX_I2C1_Init+0x20>
700012e4:	4620      	mov	r0, r4
700012e6:	f001 ffe6 	bl	700032b6 <HAL_I2CEx_ConfigDigitalFilter>
700012ea:	3800      	subs	r0, #0
700012ec:	bf18      	it	ne
700012ee:	2001      	movne	r0, #1
700012f0:	e7f1      	b.n	700012d6 <MX_I2C1_Init+0x22>
	...

700012f4 <BSP_I2C1_Init>:
700012f4:	4b96      	ldr	r3, [pc, #600]	@ (70001550 <BSP_I2C1_Init+0x25c>)
700012f6:	4a97      	ldr	r2, [pc, #604]	@ (70001554 <BSP_I2C1_Init+0x260>)
700012f8:	e92d 4ff0 	stmdb	sp!, {r4, r5, r6, r7, r8, r9, sl, fp, lr}
700012fc:	b091      	sub	sp, #68	@ 0x44
700012fe:	6013      	str	r3, [r2, #0]
70001300:	4b95      	ldr	r3, [pc, #596]	@ (70001558 <BSP_I2C1_Init+0x264>)
70001302:	681a      	ldr	r2, [r3, #0]
70001304:	9201      	str	r2, [sp, #4]
70001306:	b11a      	cbz	r2, 70001310 <BSP_I2C1_Init+0x1c>
70001308:	2000      	movs	r0, #0
7000130a:	b011      	add	sp, #68	@ 0x44
7000130c:	e8bd 8ff0 	ldmia.w	sp!, {r4, r5, r6, r7, r8, r9, sl, fp, pc}
70001310:	2201      	movs	r2, #1
70001312:	4890      	ldr	r0, [pc, #576]	@ (70001554 <BSP_I2C1_Init+0x260>)
70001314:	601a      	str	r2, [r3, #0]
70001316:	f001 ffa3 	bl	70003260 <HAL_I2C_GetState>
7000131a:	2800      	cmp	r0, #0
7000131c:	d1f4      	bne.n	70001308 <BSP_I2C1_Init+0x14>
7000131e:	4d8f      	ldr	r5, [pc, #572]	@ (7000155c <BSP_I2C1_Init+0x268>)
70001320:	2240      	movs	r2, #64	@ 0x40
70001322:	2604      	movs	r6, #4
70001324:	a90b      	add	r1, sp, #44	@ 0x2c
70001326:	f8d5 3140 	ldr.w	r3, [r5, #320]	@ 0x140
7000132a:	488d      	ldr	r0, [pc, #564]	@ (70001560 <BSP_I2C1_Init+0x26c>)
7000132c:	f043 0302 	orr.w	r3, r3, #2
70001330:	f8c5 3140 	str.w	r3, [r5, #320]	@ 0x140
70001334:	f8d5 3140 	ldr.w	r3, [r5, #320]	@ 0x140
70001338:	9308      	str	r3, [sp, #32]
7000133a:	9b08      	ldr	r3, [sp, #32]
7000133c:	f8d5 3140 	ldr.w	r3, [r5, #320]	@ 0x140
70001340:	f043 0302 	orr.w	r3, r3, #2
70001344:	f8c5 3140 	str.w	r3, [r5, #320]	@ 0x140
70001348:	f8d5 3140 	ldr.w	r3, [r5, #320]	@ 0x140
7000134c:	9309      	str	r3, [sp, #36]	@ 0x24
7000134e:	9b09      	ldr	r3, [sp, #36]	@ 0x24
70001350:	2312      	movs	r3, #18
70001352:	e9cd 230b 	strd	r2, r3, [sp, #44]	@ 0x2c
70001356:	9b01      	ldr	r3, [sp, #4]
70001358:	930d      	str	r3, [sp, #52]	@ 0x34
7000135a:	2302      	movs	r3, #2
7000135c:	e9cd 360e 	strd	r3, r6, [sp, #56]	@ 0x38
70001360:	f001 fb10 	bl	70002984 <HAL_GPIO_Init>
70001364:	f44f 7300 	mov.w	r3, #512	@ 0x200
70001368:	a90b      	add	r1, sp, #44	@ 0x2c
7000136a:	487d      	ldr	r0, [pc, #500]	@ (70001560 <BSP_I2C1_Init+0x26c>)
7000136c:	930b      	str	r3, [sp, #44]	@ 0x2c
7000136e:	960f      	str	r6, [sp, #60]	@ 0x3c
70001370:	f001 fb08 	bl	70002984 <HAL_GPIO_Init>
70001374:	f8d5 3148 	ldr.w	r3, [r5, #328]	@ 0x148
70001378:	f443 1300 	orr.w	r3, r3, #2097152	@ 0x200000
7000137c:	f8c5 3148 	str.w	r3, [r5, #328]	@ 0x148
70001380:	f8d5 3148 	ldr.w	r3, [r5, #328]	@ 0x148
70001384:	930a      	str	r3, [sp, #40]	@ 0x28
70001386:	9b0a      	ldr	r3, [sp, #40]	@ 0x28
70001388:	f8d5 3090 	ldr.w	r3, [r5, #144]	@ 0x90
7000138c:	f443 1300 	orr.w	r3, r3, #2097152	@ 0x200000
70001390:	f8c5 3090 	str.w	r3, [r5, #144]	@ 0x90
70001394:	f8d5 3090 	ldr.w	r3, [r5, #144]	@ 0x90
70001398:	f423 1300 	bic.w	r3, r3, #2097152	@ 0x200000
7000139c:	f8c5 3090 	str.w	r3, [r5, #144]	@ 0x90
700013a0:	f002 ff5a 	bl	70004258 <HAL_RCC_GetPCLK2Freq>
700013a4:	2800      	cmp	r0, #0
700013a6:	d068      	beq.n	7000147a <BSP_I2C1_Init+0x186>
700013a8:	4b6e      	ldr	r3, [pc, #440]	@ (70001564 <BSP_I2C1_Init+0x270>)
700013aa:	f640 16f6 	movw	r6, #2550	@ 0x9f6
700013ae:	9a01      	ldr	r2, [sp, #4]
700013b0:	f04f 0910 	mov.w	r9, #16
700013b4:	eb03 0350 	add.w	r3, r3, r0, lsr #1
700013b8:	f8df b1b0 	ldr.w	fp, [pc, #432]	@ 7000156c <BSP_I2C1_Init+0x278>
700013bc:	4692      	mov	sl, r2
700013be:	fbb3 f0f0 	udiv	r0, r3, r0
700013c2:	eb00 0540 	add.w	r5, r0, r0, lsl #1
700013c6:	4b68      	ldr	r3, [pc, #416]	@ (70001568 <BSP_I2C1_Init+0x274>)
700013c8:	eba6 0680 	sub.w	r6, r6, r0, lsl #2
700013cc:	4601      	mov	r1, r0
700013ce:	f1c5 25ff 	rsb	r5, r5, #4278255360	@ 0xff00ff00
700013d2:	681b      	ldr	r3, [r3, #0]
700013d4:	ea26 76e6 	bic.w	r6, r6, r6, asr #31
700013d8:	f505 057f 	add.w	r5, r5, #16711680	@ 0xff0000
700013dc:	9302      	str	r3, [sp, #8]
700013de:	35e2      	adds	r5, #226	@ 0xe2
700013e0:	ea25 75e5 	bic.w	r5, r5, r5, asr #31
700013e4:	4688      	mov	r8, r1
700013e6:	f04f 0c00 	mov.w	ip, #0
700013ea:	f240 3479 	movw	r4, #889	@ 0x379
700013ee:	f8cd c00c 	str.w	ip, [sp, #12]
700013f2:	f10c 0c01 	add.w	ip, ip, #1
700013f6:	45a0      	cmp	r8, r4
700013f8:	d952      	bls.n	700014a0 <BSP_I2C1_Init+0x1ac>
700013fa:	2700      	movs	r7, #0
700013fc:	46be      	mov	lr, r7
700013fe:	42af      	cmp	r7, r5
70001400:	d348      	bcc.n	70001494 <BSP_I2C1_Init+0x1a0>
70001402:	42b7      	cmp	r7, r6
70001404:	d846      	bhi.n	70001494 <BSP_I2C1_Init+0x1a0>
70001406:	4591      	cmp	r9, r2
70001408:	d044      	beq.n	70001494 <BSP_I2C1_Init+0x1a0>
7000140a:	2414      	movs	r4, #20
7000140c:	fb04 fa03 	mul.w	sl, r4, r3
70001410:	3301      	adds	r3, #1
70001412:	9c03      	ldr	r4, [sp, #12]
70001414:	eb0b 090a 	add.w	r9, fp, sl
70001418:	2b7f      	cmp	r3, #127	@ 0x7f
7000141a:	f84b 200a 	str.w	r2, [fp, sl]
7000141e:	e9c9 4e01 	strd	r4, lr, [r9, #4]
70001422:	d934      	bls.n	7000148e <BSP_I2C1_Init+0x19a>
70001424:	4a50      	ldr	r2, [pc, #320]	@ (70001568 <BSP_I2C1_Init+0x274>)
70001426:	9302      	str	r3, [sp, #8]
70001428:	6013      	str	r3, [r2, #0]
7000142a:	f242 7310 	movw	r3, #10000	@ 0x2710
7000142e:	0041      	lsls	r1, r0, #1
70001430:	4a4e      	ldr	r2, [pc, #312]	@ (7000156c <BSP_I2C1_Init+0x278>)
70001432:	2700      	movs	r7, #0
70001434:	3132      	adds	r1, #50	@ 0x32
70001436:	9304      	str	r3, [sp, #16]
70001438:	4693      	mov	fp, r2
7000143a:	f04f 33ff 	mov.w	r3, #4294967295	@ 0xffffffff
7000143e:	9107      	str	r1, [sp, #28]
70001440:	9902      	ldr	r1, [sp, #8]
70001442:	42b9      	cmp	r1, r7
70001444:	d138      	bne.n	700014b8 <BSP_I2C1_Init+0x1c4>
70001446:	2b7f      	cmp	r3, #127	@ 0x7f
70001448:	d817      	bhi.n	7000147a <BSP_I2C1_Init+0x186>
7000144a:	2214      	movs	r2, #20
7000144c:	4353      	muls	r3, r2
7000144e:	eb0b 0203 	add.w	r2, fp, r3
70001452:	f85b 3003 	ldr.w	r3, [fp, r3]
70001456:	7c14      	ldrb	r4, [r2, #16]
70001458:	ea44 7403 	orr.w	r4, r4, r3, lsl #28
7000145c:	6853      	ldr	r3, [r2, #4]
7000145e:	051b      	lsls	r3, r3, #20
70001460:	f403 0370 	and.w	r3, r3, #15728640	@ 0xf00000
70001464:	431c      	orrs	r4, r3
70001466:	6893      	ldr	r3, [r2, #8]
70001468:	041b      	lsls	r3, r3, #16
7000146a:	f403 2370 	and.w	r3, r3, #983040	@ 0xf0000
7000146e:	431c      	orrs	r4, r3
70001470:	68d3      	ldr	r3, [r2, #12]
70001472:	021b      	lsls	r3, r3, #8
70001474:	b29b      	uxth	r3, r3
70001476:	4323      	orrs	r3, r4
70001478:	9301      	str	r3, [sp, #4]
7000147a:	9901      	ldr	r1, [sp, #4]
7000147c:	4835      	ldr	r0, [pc, #212]	@ (70001554 <BSP_I2C1_Init+0x260>)
7000147e:	f7ff ff19 	bl	700012b4 <MX_I2C1_Init>
70001482:	2800      	cmp	r0, #0
70001484:	f43f af40 	beq.w	70001308 <BSP_I2C1_Init+0x14>
70001488:	f06f 0007 	mvn.w	r0, #7
7000148c:	e73d      	b.n	7000130a <BSP_I2C1_Init+0x16>
7000148e:	4691      	mov	r9, r2
70001490:	f04f 0a01 	mov.w	sl, #1
70001494:	f10e 0e01 	add.w	lr, lr, #1
70001498:	440f      	add	r7, r1
7000149a:	f1be 0f10 	cmp.w	lr, #16
7000149e:	d1ae      	bne.n	700013fe <BSP_I2C1_Init+0x10a>
700014a0:	f1bc 0f10 	cmp.w	ip, #16
700014a4:	4488      	add	r8, r1
700014a6:	d1a0      	bne.n	700013ea <BSP_I2C1_Init+0xf6>
700014a8:	3201      	adds	r2, #1
700014aa:	4401      	add	r1, r0
700014ac:	2a10      	cmp	r2, #16
700014ae:	d199      	bne.n	700013e4 <BSP_I2C1_Init+0xf0>
700014b0:	f1ba 0f00 	cmp.w	sl, #0
700014b4:	d1b6      	bne.n	70001424 <BSP_I2C1_Init+0x130>
700014b6:	e7b8      	b.n	7000142a <BSP_I2C1_Init+0x136>
700014b8:	6816      	ldr	r6, [r2, #0]
700014ba:	f04f 0c00 	mov.w	ip, #0
700014be:	9907      	ldr	r1, [sp, #28]
700014c0:	fb06 0600 	mla	r6, r6, r0, r0
700014c4:	4431      	add	r1, r6
700014c6:	9103      	str	r1, [sp, #12]
700014c8:	f241 245c 	movw	r4, #4700	@ 0x125c
700014cc:	f8cd c014 	str.w	ip, [sp, #20]
700014d0:	f10c 0c01 	add.w	ip, ip, #1
700014d4:	42a1      	cmp	r1, r4
700014d6:	d933      	bls.n	70001540 <BSP_I2C1_Init+0x24c>
700014d8:	f1a1 0532 	sub.w	r5, r1, #50	@ 0x32
700014dc:	ebb0 0f95 	cmp.w	r0, r5, lsr #2
700014e0:	d22e      	bcs.n	70001540 <BSP_I2C1_Init+0x24c>
700014e2:	f5a1 59ef 	sub.w	r9, r1, #7648	@ 0x1de0
700014e6:	f5a1 5a11 	sub.w	sl, r1, #9280	@ 0x2440
700014ea:	9d03      	ldr	r5, [sp, #12]
700014ec:	f04f 0e00 	mov.w	lr, #0
700014f0:	f1a9 0919 	sub.w	r9, r9, #25
700014f4:	f1aa 0a3c 	sub.w	sl, sl, #60	@ 0x3c
700014f8:	eb09 0805 	add.w	r8, r9, r5
700014fc:	f241 0447 	movw	r4, #4167	@ 0x1047
70001500:	f8cd e018 	str.w	lr, [sp, #24]
70001504:	f10e 0e01 	add.w	lr, lr, #1
70001508:	45a0      	cmp	r8, r4
7000150a:	d815      	bhi.n	70001538 <BSP_I2C1_Init+0x244>
7000150c:	f5b5 6f7a 	cmp.w	r5, #4000	@ 0xfa0
70001510:	d312      	bcc.n	70001538 <BSP_I2C1_Init+0x244>
70001512:	42a8      	cmp	r0, r5
70001514:	d210      	bcs.n	70001538 <BSP_I2C1_Init+0x244>
70001516:	eb0a 0805 	add.w	r8, sl, r5
7000151a:	9c04      	ldr	r4, [sp, #16]
7000151c:	f1b8 0f00 	cmp.w	r8, #0
70001520:	bfb8      	it	lt
70001522:	f1c8 0800 	rsblt	r8, r8, #0
70001526:	45a0      	cmp	r8, r4
70001528:	d206      	bcs.n	70001538 <BSP_I2C1_Init+0x244>
7000152a:	9b05      	ldr	r3, [sp, #20]
7000152c:	f8cd 8010 	str.w	r8, [sp, #16]
70001530:	6113      	str	r3, [r2, #16]
70001532:	9b06      	ldr	r3, [sp, #24]
70001534:	60d3      	str	r3, [r2, #12]
70001536:	463b      	mov	r3, r7
70001538:	f5be 7f80 	cmp.w	lr, #256	@ 0x100
7000153c:	4435      	add	r5, r6
7000153e:	d1db      	bne.n	700014f8 <BSP_I2C1_Init+0x204>
70001540:	f5bc 7f80 	cmp.w	ip, #256	@ 0x100
70001544:	4431      	add	r1, r6
70001546:	d1bf      	bne.n	700014c8 <BSP_I2C1_Init+0x1d4>
70001548:	3701      	adds	r7, #1
7000154a:	3214      	adds	r2, #20
7000154c:	e778      	b.n	70001440 <BSP_I2C1_Init+0x14c>
7000154e:	bf00      	nop
70001550:	40005400 	.word	0x40005400
70001554:	24000cb8 	.word	0x24000cb8
70001558:	24001710 	.word	0x24001710
7000155c:	58024400 	.word	0x58024400
70001560:	58020400 	.word	0x58020400
70001564:	3b9aca00 	.word	0x3b9aca00
70001568:	24000d0c 	.word	0x24000d0c
7000156c:	24000d10 	.word	0x24000d10

70001570 <BSP_I2C1_WriteReg>:
70001570:	b51f      	push	{r0, r1, r2, r3, r4, lr}
70001572:	f44f 747a 	mov.w	r4, #1000	@ 0x3e8
70001576:	9200      	str	r2, [sp, #0]
70001578:	460a      	mov	r2, r1
7000157a:	4601      	mov	r1, r0
7000157c:	4808      	ldr	r0, [pc, #32]	@ (700015a0 <BSP_I2C1_WriteReg+0x30>)
7000157e:	e9cd 3401 	strd	r3, r4, [sp, #4]
70001582:	2301      	movs	r3, #1
70001584:	f001 fcb4 	bl	70002ef0 <HAL_I2C_Mem_Write>
70001588:	b140      	cbz	r0, 7000159c <BSP_I2C1_WriteReg+0x2c>
7000158a:	4805      	ldr	r0, [pc, #20]	@ (700015a0 <BSP_I2C1_WriteReg+0x30>)
7000158c:	f001 fe6b 	bl	70003266 <HAL_I2C_GetError>
70001590:	2804      	cmp	r0, #4
70001592:	bf14      	ite	ne
70001594:	f06f 0003 	mvnne.w	r0, #3
70001598:	f06f 0065 	mvneq.w	r0, #101	@ 0x65
7000159c:	b004      	add	sp, #16
7000159e:	bd10      	pop	{r4, pc}
700015a0:	24000cb8 	.word	0x24000cb8

700015a4 <BSP_I2C1_ReadReg>:
700015a4:	b51f      	push	{r0, r1, r2, r3, r4, lr}
700015a6:	f44f 747a 	mov.w	r4, #1000	@ 0x3e8
700015aa:	9200      	str	r2, [sp, #0]
700015ac:	460a      	mov	r2, r1
700015ae:	4601      	mov	r1, r0
700015b0:	4808      	ldr	r0, [pc, #32]	@ (700015d4 <BSP_I2C1_ReadReg+0x30>)
700015b2:	e9cd 3401 	strd	r3, r4, [sp, #4]
700015b6:	2301      	movs	r3, #1
700015b8:	f001 fd74 	bl	700030a4 <HAL_I2C_Mem_Read>
700015bc:	b140      	cbz	r0, 700015d0 <BSP_I2C1_ReadReg+0x2c>
700015be:	4805      	ldr	r0, [pc, #20]	@ (700015d4 <BSP_I2C1_ReadReg+0x30>)
700015c0:	f001 fe51 	bl	70003266 <HAL_I2C_GetError>
700015c4:	2804      	cmp	r0, #4
700015c6:	bf14      	ite	ne
700015c8:	f06f 0003 	mvnne.w	r0, #3
700015cc:	f06f 0065 	mvneq.w	r0, #101	@ 0x65
700015d0:	b004      	add	sp, #16
700015d2:	bd10      	pop	{r4, pc}
700015d4:	24000cb8 	.word	0x24000cb8

700015d8 <BSP_GetTick>:
700015d8:	f000 bd38 	b.w	7000204c <HAL_GetTick>

700015dc <MX_SDMMC1_SD_Init>:
700015dc:	4908      	ldr	r1, [pc, #32]	@ (70001600 <MX_SDMMC1_SD_Init+0x24>)
700015de:	2200      	movs	r2, #0
700015e0:	f44f 3c00 	mov.w	ip, #131072	@ 0x20000
700015e4:	b508      	push	{r3, lr}
700015e6:	e9c0 1200 	strd	r1, r2, [r0]
700015ea:	e9c0 2202 	strd	r2, r2, [r0, #8]
700015ee:	2204      	movs	r2, #4
700015f0:	e9c0 c204 	strd	ip, r2, [r0, #16]
700015f4:	f004 fe08 	bl	70006208 <HAL_SD_Init>
700015f8:	3800      	subs	r0, #0
700015fa:	bf18      	it	ne
700015fc:	2001      	movne	r0, #1
700015fe:	bd08      	pop	{r3, pc}
70001600:	52007000 	.word	0x52007000

70001604 <BSP_SD_IsDetected>:
70001604:	b508      	push	{r3, lr}
70001606:	b940      	cbnz	r0, 7000161a <BSP_SD_IsDetected+0x16>
70001608:	f44f 4180 	mov.w	r1, #16384	@ 0x4000
7000160c:	4804      	ldr	r0, [pc, #16]	@ (70001620 <BSP_SD_IsDetected+0x1c>)
7000160e:	f001 fac5 	bl	70002b9c <HAL_GPIO_ReadPin>
70001612:	3801      	subs	r0, #1
70001614:	bf18      	it	ne
70001616:	2001      	movne	r0, #1
70001618:	bd08      	pop	{r3, pc}
7000161a:	f06f 0001 	mvn.w	r0, #1
7000161e:	e7fb      	b.n	70001618 <BSP_SD_IsDetected+0x14>
70001620:	58023000 	.word	0x58023000

70001624 <BSP_SD_Init>:
70001624:	e92d 41f0 	stmdb	sp!, {r4, r5, r6, r7, r8, lr}
70001628:	b0b2      	sub	sp, #200	@ 0xc8
7000162a:	4605      	mov	r5, r0
7000162c:	2214      	movs	r2, #20
7000162e:	2100      	movs	r1, #0
70001630:	a804      	add	r0, sp, #16
70001632:	f008 f9fd 	bl	70009a30 <memset>
70001636:	2d00      	cmp	r5, #0
70001638:	f040 8085 	bne.w	70001746 <BSP_SD_Init+0x122>
7000163c:	4c45      	ldr	r4, [pc, #276]	@ (70001754 <BSP_SD_Init+0x130>)
7000163e:	f44f 4880 	mov.w	r8, #16384	@ 0x4000
70001642:	2702      	movs	r7, #2
70001644:	a904      	add	r1, sp, #16
70001646:	f8d4 3140 	ldr.w	r3, [r4, #320]	@ 0x140
7000164a:	4843      	ldr	r0, [pc, #268]	@ (70001758 <BSP_SD_Init+0x134>)
7000164c:	f443 5380 	orr.w	r3, r3, #4096	@ 0x1000
70001650:	f8c4 3140 	str.w	r3, [r4, #320]	@ 0x140
70001654:	f8d4 3140 	ldr.w	r3, [r4, #320]	@ 0x140
70001658:	f8cd 8010 	str.w	r8, [sp, #16]
7000165c:	9300      	str	r3, [sp, #0]
7000165e:	9b00      	ldr	r3, [sp, #0]
70001660:	9707      	str	r7, [sp, #28]
70001662:	f001 f98f 	bl	70002984 <HAL_GPIO_Init>
70001666:	4628      	mov	r0, r5
70001668:	f7ff ffcc 	bl	70001604 <BSP_SD_IsDetected>
7000166c:	2801      	cmp	r0, #1
7000166e:	4606      	mov	r6, r0
70001670:	d16c      	bne.n	7000174c <BSP_SD_Init+0x128>
70001672:	2214      	movs	r2, #20
70001674:	4629      	mov	r1, r5
70001676:	a809      	add	r0, sp, #36	@ 0x24
70001678:	f008 f9da 	bl	70009a30 <memset>
7000167c:	4629      	mov	r1, r5
7000167e:	2288      	movs	r2, #136	@ 0x88
70001680:	a810      	add	r0, sp, #64	@ 0x40
70001682:	f008 f9d5 	bl	70009a30 <memset>
70001686:	f44f 1200 	mov.w	r2, #2097152	@ 0x200000
7000168a:	2300      	movs	r3, #0
7000168c:	a80e      	add	r0, sp, #56	@ 0x38
7000168e:	e9cd 230e 	strd	r2, r3, [sp, #56]	@ 0x38
70001692:	f002 feb9 	bl	70004408 <HAL_RCCEx_PeriphCLKConfig>
70001696:	f8d4 3134 	ldr.w	r3, [r4, #308]	@ 0x134
7000169a:	2203      	movs	r2, #3
7000169c:	a909      	add	r1, sp, #36	@ 0x24
7000169e:	f443 7380 	orr.w	r3, r3, #256	@ 0x100
700016a2:	482e      	ldr	r0, [pc, #184]	@ (7000175c <BSP_SD_Init+0x138>)
700016a4:	f8c4 3134 	str.w	r3, [r4, #308]	@ 0x134
700016a8:	f8d4 3134 	ldr.w	r3, [r4, #308]	@ 0x134
700016ac:	9301      	str	r3, [sp, #4]
700016ae:	9b01      	ldr	r3, [sp, #4]
700016b0:	f8d4 3140 	ldr.w	r3, [r4, #320]	@ 0x140
700016b4:	f043 0304 	orr.w	r3, r3, #4
700016b8:	f8c4 3140 	str.w	r3, [r4, #320]	@ 0x140
700016bc:	f8d4 3140 	ldr.w	r3, [r4, #320]	@ 0x140
700016c0:	9302      	str	r3, [sp, #8]
700016c2:	9b02      	ldr	r3, [sp, #8]
700016c4:	f8d4 3140 	ldr.w	r3, [r4, #320]	@ 0x140
700016c8:	f043 0308 	orr.w	r3, r3, #8
700016cc:	f8c4 3140 	str.w	r3, [r4, #320]	@ 0x140
700016d0:	f8d4 3140 	ldr.w	r3, [r4, #320]	@ 0x140
700016d4:	9303      	str	r3, [sp, #12]
700016d6:	9b03      	ldr	r3, [sp, #12]
700016d8:	230c      	movs	r3, #12
700016da:	e9cd 230c 	strd	r2, r3, [sp, #48]	@ 0x30
700016de:	f44f 6380 	mov.w	r3, #1024	@ 0x400
700016e2:	e9cd 760a 	strd	r7, r6, [sp, #40]	@ 0x28
700016e6:	9309      	str	r3, [sp, #36]	@ 0x24
700016e8:	f001 f94c 	bl	70002984 <HAL_GPIO_Init>
700016ec:	230b      	movs	r3, #11
700016ee:	a909      	add	r1, sp, #36	@ 0x24
700016f0:	481a      	ldr	r0, [pc, #104]	@ (7000175c <BSP_SD_Init+0x138>)
700016f2:	930d      	str	r3, [sp, #52]	@ 0x34
700016f4:	f44f 53d8 	mov.w	r3, #6912	@ 0x1b00
700016f8:	9309      	str	r3, [sp, #36]	@ 0x24
700016fa:	f001 f943 	bl	70002984 <HAL_GPIO_Init>
700016fe:	2304      	movs	r3, #4
70001700:	a909      	add	r1, sp, #36	@ 0x24
70001702:	4817      	ldr	r0, [pc, #92]	@ (70001760 <BSP_SD_Init+0x13c>)
70001704:	9309      	str	r3, [sp, #36]	@ 0x24
70001706:	f001 f93d 	bl	70002984 <HAL_GPIO_Init>
7000170a:	462a      	mov	r2, r5
7000170c:	2105      	movs	r1, #5
7000170e:	206c      	movs	r0, #108	@ 0x6c
70001710:	f001 f8e4 	bl	700028dc <HAL_NVIC_SetPriority>
70001714:	206c      	movs	r0, #108	@ 0x6c
70001716:	f001 f913 	bl	70002940 <HAL_NVIC_EnableIRQ>
7000171a:	4812      	ldr	r0, [pc, #72]	@ (70001764 <BSP_SD_Init+0x140>)
7000171c:	f7ff ff5e 	bl	700015dc <MX_SDMMC1_SD_Init>
70001720:	b120      	cbz	r0, 7000172c <BSP_SD_Init+0x108>
70001722:	f06f 0003 	mvn.w	r0, #3
70001726:	b032      	add	sp, #200	@ 0xc8
70001728:	e8bd 81f0 	ldmia.w	sp!, {r4, r5, r6, r7, r8, pc}
7000172c:	4641      	mov	r1, r8
7000172e:	480d      	ldr	r0, [pc, #52]	@ (70001764 <BSP_SD_Init+0x140>)
70001730:	f004 fc9e 	bl	70006070 <HAL_SD_ConfigWideBusOperation>
70001734:	4604      	mov	r4, r0
70001736:	2800      	cmp	r0, #0
70001738:	d1f3      	bne.n	70001722 <BSP_SD_Init+0xfe>
7000173a:	4639      	mov	r1, r7
7000173c:	4809      	ldr	r0, [pc, #36]	@ (70001764 <BSP_SD_Init+0x140>)
7000173e:	f004 fdb5 	bl	700062ac <HAL_SD_ConfigSpeedBusOperation>
70001742:	4620      	mov	r0, r4
70001744:	e7ef      	b.n	70001726 <BSP_SD_Init+0x102>
70001746:	f06f 0001 	mvn.w	r0, #1
7000174a:	e7ec      	b.n	70001726 <BSP_SD_Init+0x102>
7000174c:	f06f 0027 	mvn.w	r0, #39	@ 0x27
70001750:	e7e9      	b.n	70001726 <BSP_SD_Init+0x102>
70001752:	bf00      	nop
70001754:	58024400 	.word	0x58024400
70001758:	58023000 	.word	0x58023000
7000175c:	58020800 	.word	0x58020800
70001760:	58020c00 	.word	0x58020c00
70001764:	24001714 	.word	0x24001714

70001768 <BSP_SD_ReadBlocks_DMA>:
70001768:	b508      	push	{r3, lr}
7000176a:	b940      	cbnz	r0, 7000177e <BSP_SD_ReadBlocks_DMA+0x16>
7000176c:	4805      	ldr	r0, [pc, #20]	@ (70001784 <BSP_SD_ReadBlocks_DMA+0x1c>)
7000176e:	f004 f911 	bl	70005994 <HAL_SD_ReadBlocks_DMA>
70001772:	2800      	cmp	r0, #0
70001774:	bf0c      	ite	eq
70001776:	2000      	moveq	r0, #0
70001778:	f06f 0003 	mvnne.w	r0, #3
7000177c:	bd08      	pop	{r3, pc}
7000177e:	f06f 0001 	mvn.w	r0, #1
70001782:	e7fb      	b.n	7000177c <BSP_SD_ReadBlocks_DMA+0x14>
70001784:	24001714 	.word	0x24001714

70001788 <BSP_SD_WriteBlocks_DMA>:
70001788:	b508      	push	{r3, lr}
7000178a:	b940      	cbnz	r0, 7000179e <BSP_SD_WriteBlocks_DMA+0x16>
7000178c:	4805      	ldr	r0, [pc, #20]	@ (700017a4 <BSP_SD_WriteBlocks_DMA+0x1c>)
7000178e:	f004 f963 	bl	70005a58 <HAL_SD_WriteBlocks_DMA>
70001792:	2800      	cmp	r0, #0
70001794:	bf0c      	ite	eq
70001796:	2000      	moveq	r0, #0
70001798:	f06f 0003 	mvnne.w	r0, #3
7000179c:	bd08      	pop	{r3, pc}
7000179e:	f06f 0001 	mvn.w	r0, #1
700017a2:	e7fb      	b.n	7000179c <BSP_SD_WriteBlocks_DMA+0x14>
700017a4:	24001714 	.word	0x24001714

700017a8 <BSP_SD_GetCardState>:
700017a8:	227c      	movs	r2, #124	@ 0x7c
700017aa:	b508      	push	{r3, lr}
700017ac:	4b04      	ldr	r3, [pc, #16]	@ (700017c0 <BSP_SD_GetCardState+0x18>)
700017ae:	fb02 3000 	mla	r0, r2, r0, r3
700017b2:	f004 fd15 	bl	700061e0 <HAL_SD_GetCardState>
700017b6:	3804      	subs	r0, #4
700017b8:	bf18      	it	ne
700017ba:	2001      	movne	r0, #1
700017bc:	bd08      	pop	{r3, pc}
700017be:	bf00      	nop
700017c0:	24001714 	.word	0x24001714

700017c4 <BSP_SD_GetCardInfo>:
700017c4:	b510      	push	{r4, lr}
700017c6:	4604      	mov	r4, r0
700017c8:	b920      	cbnz	r0, 700017d4 <BSP_SD_GetCardInfo+0x10>
700017ca:	4804      	ldr	r0, [pc, #16]	@ (700017dc <BSP_SD_GetCardInfo+0x18>)
700017cc:	f004 fc3e 	bl	7000604c <HAL_SD_GetCardInfo>
700017d0:	4620      	mov	r0, r4
700017d2:	bd10      	pop	{r4, pc}
700017d4:	f06f 0001 	mvn.w	r0, #1
700017d8:	e7fb      	b.n	700017d2 <BSP_SD_GetCardInfo+0xe>
700017da:	bf00      	nop
700017dc:	24001714 	.word	0x24001714

700017e0 <BSP_SD_IRQHandler>:
700017e0:	227c      	movs	r2, #124	@ 0x7c
700017e2:	4b02      	ldr	r3, [pc, #8]	@ (700017ec <BSP_SD_IRQHandler+0xc>)
700017e4:	fb02 3000 	mla	r0, r2, r0, r3
700017e8:	f004 bdc2 	b.w	70006370 <HAL_SD_IRQHandler>
700017ec:	24001714 	.word	0x24001714

700017f0 <HAL_SD_TxCpltCallback>:
700017f0:	b508      	push	{r3, lr}
700017f2:	4b03      	ldr	r3, [pc, #12]	@ (70001800 <HAL_SD_TxCpltCallback+0x10>)
700017f4:	1a18      	subs	r0, r3, r0
700017f6:	bf18      	it	ne
700017f8:	2001      	movne	r0, #1
700017fa:	f7ff fa9d 	bl	70000d38 <BSP_SD_WriteCpltCallback>
700017fe:	bd08      	pop	{r3, pc}
70001800:	24001714 	.word	0x24001714

70001804 <HAL_SD_RxCpltCallback>:
70001804:	b508      	push	{r3, lr}
70001806:	4b03      	ldr	r3, [pc, #12]	@ (70001814 <HAL_SD_RxCpltCallback+0x10>)
70001808:	1a18      	subs	r0, r3, r0
7000180a:	bf18      	it	ne
7000180c:	2001      	movne	r0, #1
7000180e:	f7ff fa99 	bl	70000d44 <BSP_SD_ReadCpltCallback>
70001812:	bd08      	pop	{r3, pc}
70001814:	24001714 	.word	0x24001714

70001818 <LL_GPIO_SetPinMode>:
70001818:	fa91 f3a1 	rbit	r3, r1
7000181c:	fab3 f383 	clz	r3, r3
70001820:	fa91 f1a1 	rbit	r1, r1
70001824:	b530      	push	{r4, r5, lr}
70001826:	005b      	lsls	r3, r3, #1
70001828:	2503      	movs	r5, #3
7000182a:	fab1 f181 	clz	r1, r1
7000182e:	6804      	ldr	r4, [r0, #0]
70001830:	fa05 f303 	lsl.w	r3, r5, r3
70001834:	0049      	lsls	r1, r1, #1
70001836:	ea24 0303 	bic.w	r3, r4, r3
7000183a:	408a      	lsls	r2, r1
7000183c:	431a      	orrs	r2, r3
7000183e:	6002      	str	r2, [r0, #0]
70001840:	bd30      	pop	{r4, r5, pc}
	...

70001844 <LL_GPIO_SetPinPull.constprop.0>:
70001844:	4b0b      	ldr	r3, [pc, #44]	@ (70001874 <LL_GPIO_SetPinPull.constprop.0+0x30>)
70001846:	68da      	ldr	r2, [r3, #12]
70001848:	fa90 f3a0 	rbit	r3, r0
7000184c:	fab3 f383 	clz	r3, r3
70001850:	fa90 f0a0 	rbit	r0, r0
70001854:	b510      	push	{r4, lr}
70001856:	005b      	lsls	r3, r3, #1
70001858:	2403      	movs	r4, #3
7000185a:	fab0 f080 	clz	r0, r0
7000185e:	fa04 f303 	lsl.w	r3, r4, r3
70001862:	0040      	lsls	r0, r0, #1
70001864:	ea22 0303 	bic.w	r3, r2, r3
70001868:	4081      	lsls	r1, r0
7000186a:	4319      	orrs	r1, r3
7000186c:	4b01      	ldr	r3, [pc, #4]	@ (70001874 <LL_GPIO_SetPinPull.constprop.0+0x30>)
7000186e:	60d9      	str	r1, [r3, #12]
70001870:	bd10      	pop	{r4, pc}
70001872:	bf00      	nop
70001874:	58023000 	.word	0x58023000

70001878 <BSP_USBPD_PWR_Init>:
70001878:	e92d 41f0 	stmdb	sp!, {r4, r5, r6, r7, r8, lr}
7000187c:	b08c      	sub	sp, #48	@ 0x30
7000187e:	2800      	cmp	r0, #0
70001880:	f040 80f9 	bne.w	70001a76 <BSP_USBPD_PWR_Init+0x1fe>
70001884:	4d7d      	ldr	r5, [pc, #500]	@ (70001a7c <BSP_USBPD_PWR_Init+0x204>)
70001886:	782b      	ldrb	r3, [r5, #0]
70001888:	2b00      	cmp	r3, #0
7000188a:	f040 80f2 	bne.w	70001a72 <BSP_USBPD_PWR_Init+0x1fa>
7000188e:	4e7c      	ldr	r6, [pc, #496]	@ (70001a80 <BSP_USBPD_PWR_Init+0x208>)
70001890:	7832      	ldrb	r2, [r6, #0]
70001892:	3a02      	subs	r2, #2
70001894:	2a01      	cmp	r2, #1
70001896:	f200 80ee 	bhi.w	70001a76 <BSP_USBPD_PWR_Init+0x1fe>
7000189a:	f240 1201 	movw	r2, #257	@ 0x101
7000189e:	4c79      	ldr	r4, [pc, #484]	@ (70001a84 <BSP_USBPD_PWR_Init+0x20c>)
700018a0:	f44f 7100 	mov.w	r1, #512	@ 0x200
700018a4:	2703      	movs	r7, #3
700018a6:	806a      	strh	r2, [r5, #2]
700018a8:	4620      	mov	r0, r4
700018aa:	e9c5 3301 	strd	r3, r3, [r5, #4]
700018ae:	4b76      	ldr	r3, [pc, #472]	@ (70001a88 <BSP_USBPD_PWR_Init+0x210>)
700018b0:	f8d3 2140 	ldr.w	r2, [r3, #320]	@ 0x140
700018b4:	f442 5280 	orr.w	r2, r2, #4096	@ 0x1000
700018b8:	f8c3 2140 	str.w	r2, [r3, #320]	@ 0x140
700018bc:	2201      	movs	r2, #1
700018be:	f8d3 3140 	ldr.w	r3, [r3, #320]	@ 0x140
700018c2:	9303      	str	r3, [sp, #12]
700018c4:	9b03      	ldr	r3, [sp, #12]
700018c6:	f7ff ffa7 	bl	70001818 <LL_GPIO_SetPinMode>
700018ca:	6863      	ldr	r3, [r4, #4]
700018cc:	2100      	movs	r1, #0
700018ce:	f44f 7000 	mov.w	r0, #512	@ 0x200
700018d2:	f423 7300 	bic.w	r3, r3, #512	@ 0x200
700018d6:	6063      	str	r3, [r4, #4]
700018d8:	f44f 7300 	mov.w	r3, #512	@ 0x200
700018dc:	fa93 f3a3 	rbit	r3, r3
700018e0:	fab3 f383 	clz	r3, r3
700018e4:	68a2      	ldr	r2, [r4, #8]
700018e6:	005b      	lsls	r3, r3, #1
700018e8:	fa07 f303 	lsl.w	r3, r7, r3
700018ec:	ea22 0303 	bic.w	r3, r2, r3
700018f0:	60a3      	str	r3, [r4, #8]
700018f2:	f7ff ffa7 	bl	70001844 <LL_GPIO_SetPinPull.constprop.0>
700018f6:	f44f 7300 	mov.w	r3, #512	@ 0x200
700018fa:	463a      	mov	r2, r7
700018fc:	f44f 5180 	mov.w	r1, #4096	@ 0x1000
70001900:	62a3      	str	r3, [r4, #40]	@ 0x28
70001902:	f504 54a0 	add.w	r4, r4, #5120	@ 0x1400
70001906:	4861      	ldr	r0, [pc, #388]	@ (70001a8c <BSP_USBPD_PWR_Init+0x214>)
70001908:	f8d4 3140 	ldr.w	r3, [r4, #320]	@ 0x140
7000190c:	f043 0320 	orr.w	r3, r3, #32
70001910:	f8c4 3140 	str.w	r3, [r4, #320]	@ 0x140
70001914:	f8d4 3140 	ldr.w	r3, [r4, #320]	@ 0x140
70001918:	9304      	str	r3, [sp, #16]
7000191a:	9b04      	ldr	r3, [sp, #16]
7000191c:	f7ff ff7c 	bl	70001818 <LL_GPIO_SetPinMode>
70001920:	f8d4 3140 	ldr.w	r3, [r4, #320]	@ 0x140
70001924:	463a      	mov	r2, r7
70001926:	f44f 4180 	mov.w	r1, #16384	@ 0x4000
7000192a:	f043 0320 	orr.w	r3, r3, #32
7000192e:	f8c4 3140 	str.w	r3, [r4, #320]	@ 0x140
70001932:	f8d4 3140 	ldr.w	r3, [r4, #320]	@ 0x140
70001936:	9305      	str	r3, [sp, #20]
70001938:	9b05      	ldr	r3, [sp, #20]
7000193a:	f7ff ff6d 	bl	70001818 <LL_GPIO_SetPinMode>
7000193e:	786a      	ldrb	r2, [r5, #1]
70001940:	2a00      	cmp	r2, #0
70001942:	d146      	bne.n	700019d2 <BSP_USBPD_PWR_Init+0x15a>
70001944:	2701      	movs	r7, #1
70001946:	f44f 7180 	mov.w	r1, #256	@ 0x100
7000194a:	f500 50e0 	add.w	r0, r0, #7168	@ 0x1c00
7000194e:	706f      	strb	r7, [r5, #1]
70001950:	f8d4 3140 	ldr.w	r3, [r4, #320]	@ 0x140
70001954:	f443 5380 	orr.w	r3, r3, #4096	@ 0x1000
70001958:	f8c4 3140 	str.w	r3, [r4, #320]	@ 0x140
7000195c:	f8d4 3140 	ldr.w	r3, [r4, #320]	@ 0x140
70001960:	9301      	str	r3, [sp, #4]
70001962:	9b01      	ldr	r3, [sp, #4]
70001964:	f7ff ff58 	bl	70001818 <LL_GPIO_SetPinMode>
70001968:	4639      	mov	r1, r7
7000196a:	f44f 7080 	mov.w	r0, #256	@ 0x100
7000196e:	f7ff ff69 	bl	70001844 <LL_GPIO_SetPinPull.constprop.0>
70001972:	f8d4 3154 	ldr.w	r3, [r4, #340]	@ 0x154
70001976:	4a46      	ldr	r2, [pc, #280]	@ (70001a90 <BSP_USBPD_PWR_Init+0x218>)
70001978:	f043 0302 	orr.w	r3, r3, #2
7000197c:	f8c4 3154 	str.w	r3, [r4, #340]	@ 0x154
70001980:	f8d4 3154 	ldr.w	r3, [r4, #340]	@ 0x154
70001984:	9302      	str	r3, [sp, #8]
70001986:	9b02      	ldr	r3, [sp, #8]
70001988:	f8d2 3138 	ldr.w	r3, [r2, #312]	@ 0x138
7000198c:	f023 030f 	bic.w	r3, r3, #15
70001990:	f043 030c 	orr.w	r3, r3, #12
70001994:	f8c2 3138 	str.w	r3, [r2, #312]	@ 0x138
70001998:	f04f 43b0 	mov.w	r3, #1476395008	@ 0x58000000
7000199c:	f8d3 2084 	ldr.w	r2, [r3, #132]	@ 0x84
700019a0:	f422 7280 	bic.w	r2, r2, #256	@ 0x100
700019a4:	f8c3 2084 	str.w	r2, [r3, #132]	@ 0x84
700019a8:	f8d3 2080 	ldr.w	r2, [r3, #128]	@ 0x80
700019ac:	f442 7280 	orr.w	r2, r2, #256	@ 0x100
700019b0:	f8c3 2080 	str.w	r2, [r3, #128]	@ 0x80
700019b4:	681a      	ldr	r2, [r3, #0]
700019b6:	f422 7280 	bic.w	r2, r2, #256	@ 0x100
700019ba:	601a      	str	r2, [r3, #0]
700019bc:	685a      	ldr	r2, [r3, #4]
700019be:	f442 7280 	orr.w	r2, r2, #256	@ 0x100
700019c2:	605a      	str	r2, [r3, #4]
700019c4:	22c0      	movs	r2, #192	@ 0xc0
700019c6:	4b33      	ldr	r3, [pc, #204]	@ (70001a94 <BSP_USBPD_PWR_Init+0x21c>)
700019c8:	f883 2318 	strb.w	r2, [r3, #792]	@ 0x318
700019cc:	f04f 7280 	mov.w	r2, #16777216	@ 0x1000000
700019d0:	601a      	str	r2, [r3, #0]
700019d2:	4b2c      	ldr	r3, [pc, #176]	@ (70001a84 <BSP_USBPD_PWR_Init+0x20c>)
700019d4:	f44f 7200 	mov.w	r2, #512	@ 0x200
700019d8:	a906      	add	r1, sp, #24
700019da:	482f      	ldr	r0, [pc, #188]	@ (70001a98 <BSP_USBPD_PWR_Init+0x220>)
700019dc:	619a      	str	r2, [r3, #24]
700019de:	2200      	movs	r2, #0
700019e0:	7873      	ldrb	r3, [r6, #1]
700019e2:	f88d 2003 	strb.w	r2, [sp, #3]
700019e6:	f8ad 3020 	strh.w	r3, [sp, #32]
700019ea:	4b2c      	ldr	r3, [pc, #176]	@ (70001a9c <BSP_USBPD_PWR_Init+0x224>)
700019ec:	9306      	str	r3, [sp, #24]
700019ee:	4b2c      	ldr	r3, [pc, #176]	@ (70001aa0 <BSP_USBPD_PWR_Init+0x228>)
700019f0:	9307      	str	r3, [sp, #28]
700019f2:	4b2c      	ldr	r3, [pc, #176]	@ (70001aa4 <BSP_USBPD_PWR_Init+0x22c>)
700019f4:	930a      	str	r3, [sp, #40]	@ 0x28
700019f6:	4b2c      	ldr	r3, [pc, #176]	@ (70001aa8 <BSP_USBPD_PWR_Init+0x230>)
700019f8:	9309      	str	r3, [sp, #36]	@ 0x24
700019fa:	4b2c      	ldr	r3, [pc, #176]	@ (70001aac <BSP_USBPD_PWR_Init+0x234>)
700019fc:	930b      	str	r3, [sp, #44]	@ 0x2c
700019fe:	f7ff fc07 	bl	70001210 <TCPP0203_RegisterBusIO>
70001a02:	4607      	mov	r7, r0
70001a04:	b120      	cbz	r0, 70001a10 <BSP_USBPD_PWR_Init+0x198>
70001a06:	f06f 0007 	mvn.w	r0, #7
70001a0a:	b00c      	add	sp, #48	@ 0x30
70001a0c:	e8bd 81f0 	ldmia.w	sp!, {r4, r5, r6, r7, r8, pc}
70001a10:	f8df 80a0 	ldr.w	r8, [pc, #160]	@ 70001ab4 <BSP_USBPD_PWR_Init+0x23c>
70001a14:	4b26      	ldr	r3, [pc, #152]	@ (70001ab0 <BSP_USBPD_PWR_Init+0x238>)
70001a16:	4820      	ldr	r0, [pc, #128]	@ (70001a98 <BSP_USBPD_PWR_Init+0x220>)
70001a18:	f8c8 3000 	str.w	r3, [r8]
70001a1c:	681b      	ldr	r3, [r3, #0]
70001a1e:	4798      	blx	r3
70001a20:	f8d8 3000 	ldr.w	r3, [r8]
70001a24:	1e04      	subs	r4, r0, #0
70001a26:	f10d 0103 	add.w	r1, sp, #3
70001a2a:	6d5b      	ldr	r3, [r3, #84]	@ 0x54
70001a2c:	481a      	ldr	r0, [pc, #104]	@ (70001a98 <BSP_USBPD_PWR_Init+0x220>)
70001a2e:	bf18      	it	ne
70001a30:	f06f 0404 	mvnne.w	r4, #4
70001a34:	4798      	blx	r3
70001a36:	f89d 3003 	ldrb.w	r3, [sp, #3]
70001a3a:	2800      	cmp	r0, #0
70001a3c:	bf18      	it	ne
70001a3e:	f06f 0404 	mvnne.w	r4, #4
70001a42:	b12b      	cbz	r3, 70001a50 <BSP_USBPD_PWR_Init+0x1d8>
70001a44:	2b80      	cmp	r3, #128	@ 0x80
70001a46:	d009      	beq.n	70001a5c <BSP_USBPD_PWR_Init+0x1e4>
70001a48:	f06f 0006 	mvn.w	r0, #6
70001a4c:	7037      	strb	r7, [r6, #0]
70001a4e:	e7dc      	b.n	70001a0a <BSP_USBPD_PWR_Init+0x192>
70001a50:	2303      	movs	r3, #3
70001a52:	7033      	strb	r3, [r6, #0]
70001a54:	b124      	cbz	r4, 70001a60 <BSP_USBPD_PWR_Init+0x1e8>
70001a56:	f06f 0004 	mvn.w	r0, #4
70001a5a:	e7d6      	b.n	70001a0a <BSP_USBPD_PWR_Init+0x192>
70001a5c:	2302      	movs	r3, #2
70001a5e:	e7f8      	b.n	70001a52 <BSP_USBPD_PWR_Init+0x1da>
70001a60:	f8d8 3000 	ldr.w	r3, [r8]
70001a64:	480c      	ldr	r0, [pc, #48]	@ (70001a98 <BSP_USBPD_PWR_Init+0x220>)
70001a66:	689b      	ldr	r3, [r3, #8]
70001a68:	4798      	blx	r3
70001a6a:	2800      	cmp	r0, #0
70001a6c:	d1f3      	bne.n	70001a56 <BSP_USBPD_PWR_Init+0x1de>
70001a6e:	2301      	movs	r3, #1
70001a70:	702b      	strb	r3, [r5, #0]
70001a72:	2000      	movs	r0, #0
70001a74:	e7c9      	b.n	70001a0a <BSP_USBPD_PWR_Init+0x192>
70001a76:	f06f 0001 	mvn.w	r0, #1
70001a7a:	e7c6      	b.n	70001a0a <BSP_USBPD_PWR_Init+0x192>
70001a7c:	240000dc 	.word	0x240000dc
70001a80:	240000e8 	.word	0x240000e8
70001a84:	58023000 	.word	0x58023000
70001a88:	58024400 	.word	0x58024400
70001a8c:	58021400 	.word	0x58021400
70001a90:	58000400 	.word	0x58000400
70001a94:	e000e100 	.word	0xe000e100
70001a98:	24001800 	.word	0x24001800
70001a9c:	700012f5 	.word	0x700012f5
70001aa0:	70001265 	.word	0x70001265
70001aa4:	700015a5 	.word	0x700015a5
70001aa8:	70001571 	.word	0x70001571
70001aac:	700015d9 	.word	0x700015d9
70001ab0:	24000074 	.word	0x24000074
70001ab4:	240017fc 	.word	0x240017fc

70001ab8 <BSP_USBPD_PWR_SetRole>:
70001ab8:	b510      	push	{r4, lr}
70001aba:	b910      	cbnz	r0, 70001ac2 <BSP_USBPD_PWR_SetRole+0xa>
70001abc:	b121      	cbz	r1, 70001ac8 <BSP_USBPD_PWR_SetRole+0x10>
70001abe:	2901      	cmp	r1, #1
70001ac0:	d013      	beq.n	70001aea <BSP_USBPD_PWR_SetRole+0x32>
70001ac2:	f06f 0001 	mvn.w	r0, #1
70001ac6:	e005      	b.n	70001ad4 <BSP_USBPD_PWR_SetRole+0x1c>
70001ac8:	4c0b      	ldr	r4, [pc, #44]	@ (70001af8 <BSP_USBPD_PWR_SetRole+0x40>)
70001aca:	78e3      	ldrb	r3, [r4, #3]
70001acc:	70a1      	strb	r1, [r4, #2]
70001ace:	2b01      	cmp	r3, #1
70001ad0:	d001      	beq.n	70001ad6 <BSP_USBPD_PWR_SetRole+0x1e>
70001ad2:	2000      	movs	r0, #0
70001ad4:	bd10      	pop	{r4, pc}
70001ad6:	4b09      	ldr	r3, [pc, #36]	@ (70001afc <BSP_USBPD_PWR_SetRole+0x44>)
70001ad8:	2120      	movs	r1, #32
70001ada:	4809      	ldr	r0, [pc, #36]	@ (70001b00 <BSP_USBPD_PWR_SetRole+0x48>)
70001adc:	681b      	ldr	r3, [r3, #0]
70001ade:	699b      	ldr	r3, [r3, #24]
70001ae0:	4798      	blx	r3
70001ae2:	b928      	cbnz	r0, 70001af0 <BSP_USBPD_PWR_SetRole+0x38>
70001ae4:	2302      	movs	r3, #2
70001ae6:	70e3      	strb	r3, [r4, #3]
70001ae8:	e7f3      	b.n	70001ad2 <BSP_USBPD_PWR_SetRole+0x1a>
70001aea:	4b03      	ldr	r3, [pc, #12]	@ (70001af8 <BSP_USBPD_PWR_SetRole+0x40>)
70001aec:	7099      	strb	r1, [r3, #2]
70001aee:	e7f0      	b.n	70001ad2 <BSP_USBPD_PWR_SetRole+0x1a>
70001af0:	f06f 0004 	mvn.w	r0, #4
70001af4:	e7ee      	b.n	70001ad4 <BSP_USBPD_PWR_SetRole+0x1c>
70001af6:	bf00      	nop
70001af8:	240000dc 	.word	0x240000dc
70001afc:	240017fc 	.word	0x240017fc
70001b00:	24001800 	.word	0x24001800

70001b04 <BSP_USBPD_PWR_SetPowerMode>:
70001b04:	2300      	movs	r3, #0
70001b06:	e92d 41f3 	stmdb	sp!, {r0, r1, r4, r5, r6, r7, r8, lr}
70001b0a:	460e      	mov	r6, r1
70001b0c:	f88d 3007 	strb.w	r3, [sp, #7]
70001b10:	2800      	cmp	r0, #0
70001b12:	d150      	bne.n	70001bb6 <BSP_USBPD_PWR_SetPowerMode+0xb2>
70001b14:	f8df 80ac 	ldr.w	r8, [pc, #172]	@ 70001bc4 <BSP_USBPD_PWR_SetPowerMode+0xc0>
70001b18:	2903      	cmp	r1, #3
70001b1a:	d849      	bhi.n	70001bb0 <BSP_USBPD_PWR_SetPowerMode+0xac>
70001b1c:	e8df f001 	tbb	[pc, r1]
70001b20:	433c1202 	.word	0x433c1202
70001b24:	4b25      	ldr	r3, [pc, #148]	@ (70001bbc <BSP_USBPD_PWR_SetPowerMode+0xb8>)
70001b26:	4826      	ldr	r0, [pc, #152]	@ (70001bc0 <BSP_USBPD_PWR_SetPowerMode+0xbc>)
70001b28:	681b      	ldr	r3, [r3, #0]
70001b2a:	689b      	ldr	r3, [r3, #8]
70001b2c:	4798      	blx	r3
70001b2e:	b138      	cbz	r0, 70001b40 <BSP_USBPD_PWR_SetPowerMode+0x3c>
70001b30:	f06f 0404 	mvn.w	r4, #4
70001b34:	f888 6003 	strb.w	r6, [r8, #3]
70001b38:	4620      	mov	r0, r4
70001b3a:	b002      	add	sp, #8
70001b3c:	e8bd 81f0 	ldmia.w	sp!, {r4, r5, r6, r7, r8, pc}
70001b40:	2400      	movs	r4, #0
70001b42:	e7f7      	b.n	70001b34 <BSP_USBPD_PWR_SetPowerMode+0x30>
70001b44:	4d1d      	ldr	r5, [pc, #116]	@ (70001bbc <BSP_USBPD_PWR_SetPowerMode+0xb8>)
70001b46:	2100      	movs	r1, #0
70001b48:	481d      	ldr	r0, [pc, #116]	@ (70001bc0 <BSP_USBPD_PWR_SetPowerMode+0xbc>)
70001b4a:	682b      	ldr	r3, [r5, #0]
70001b4c:	699b      	ldr	r3, [r3, #24]
70001b4e:	4798      	blx	r3
70001b50:	682b      	ldr	r3, [r5, #0]
70001b52:	1e04      	subs	r4, r0, #0
70001b54:	f10d 0107 	add.w	r1, sp, #7
70001b58:	6e5b      	ldr	r3, [r3, #100]	@ 0x64
70001b5a:	4819      	ldr	r0, [pc, #100]	@ (70001bc0 <BSP_USBPD_PWR_SetPowerMode+0xbc>)
70001b5c:	bf18      	it	ne
70001b5e:	f06f 0404 	mvnne.w	r4, #4
70001b62:	4798      	blx	r3
70001b64:	4607      	mov	r7, r0
70001b66:	2800      	cmp	r0, #0
70001b68:	d1e4      	bne.n	70001b34 <BSP_USBPD_PWR_SetPowerMode+0x30>
70001b6a:	f89d 3007 	ldrb.w	r3, [sp, #7]
70001b6e:	069b      	lsls	r3, r3, #26
70001b70:	d5e0      	bpl.n	70001b34 <BSP_USBPD_PWR_SetPowerMode+0x30>
70001b72:	f8d8 3008 	ldr.w	r3, [r8, #8]
70001b76:	2b00      	cmp	r3, #0
70001b78:	d0dc      	beq.n	70001b34 <BSP_USBPD_PWR_SetPowerMode+0x30>
70001b7a:	682b      	ldr	r3, [r5, #0]
70001b7c:	2120      	movs	r1, #32
70001b7e:	4810      	ldr	r0, [pc, #64]	@ (70001bc0 <BSP_USBPD_PWR_SetPowerMode+0xbc>)
70001b80:	699b      	ldr	r3, [r3, #24]
70001b82:	4798      	blx	r3
70001b84:	2800      	cmp	r0, #0
70001b86:	f8d8 3008 	ldr.w	r3, [r8, #8]
70001b8a:	4639      	mov	r1, r7
70001b8c:	4638      	mov	r0, r7
70001b8e:	bf18      	it	ne
70001b90:	f06f 0404 	mvnne.w	r4, #4
70001b94:	4798      	blx	r3
70001b96:	e7cd      	b.n	70001b34 <BSP_USBPD_PWR_SetPowerMode+0x30>
70001b98:	4b08      	ldr	r3, [pc, #32]	@ (70001bbc <BSP_USBPD_PWR_SetPowerMode+0xb8>)
70001b9a:	2120      	movs	r1, #32
70001b9c:	681b      	ldr	r3, [r3, #0]
70001b9e:	699b      	ldr	r3, [r3, #24]
70001ba0:	4807      	ldr	r0, [pc, #28]	@ (70001bc0 <BSP_USBPD_PWR_SetPowerMode+0xbc>)
70001ba2:	4798      	blx	r3
70001ba4:	e7c3      	b.n	70001b2e <BSP_USBPD_PWR_SetPowerMode+0x2a>
70001ba6:	4b05      	ldr	r3, [pc, #20]	@ (70001bbc <BSP_USBPD_PWR_SetPowerMode+0xb8>)
70001ba8:	2110      	movs	r1, #16
70001baa:	681b      	ldr	r3, [r3, #0]
70001bac:	699b      	ldr	r3, [r3, #24]
70001bae:	e7f7      	b.n	70001ba0 <BSP_USBPD_PWR_SetPowerMode+0x9c>
70001bb0:	f06f 0401 	mvn.w	r4, #1
70001bb4:	e7be      	b.n	70001b34 <BSP_USBPD_PWR_SetPowerMode+0x30>
70001bb6:	f06f 0401 	mvn.w	r4, #1
70001bba:	e7bd      	b.n	70001b38 <BSP_USBPD_PWR_SetPowerMode+0x34>
70001bbc:	240017fc 	.word	0x240017fc
70001bc0:	24001800 	.word	0x24001800
70001bc4:	240000dc 	.word	0x240000dc

70001bc8 <BSP_USBPD_PWR_VBUSInit>:
70001bc8:	e92d 41f0 	stmdb	sp!, {r4, r5, r6, r7, r8, lr}
70001bcc:	4605      	mov	r5, r0
70001bce:	b0ae      	sub	sp, #184	@ 0xb8
70001bd0:	2800      	cmp	r0, #0
70001bd2:	d16c      	bne.n	70001cae <BSP_USBPD_PWR_VBUSInit+0xe6>
70001bd4:	4b39      	ldr	r3, [pc, #228]	@ (70001cbc <BSP_USBPD_PWR_VBUSInit+0xf4>)
70001bd6:	781b      	ldrb	r3, [r3, #0]
70001bd8:	3b02      	subs	r3, #2
70001bda:	2b01      	cmp	r3, #1
70001bdc:	d86a      	bhi.n	70001cb4 <BSP_USBPD_PWR_VBUSInit+0xec>
70001bde:	2103      	movs	r1, #3
70001be0:	4c37      	ldr	r4, [pc, #220]	@ (70001cc0 <BSP_USBPD_PWR_VBUSInit+0xf8>)
70001be2:	f7ff ff8f 	bl	70001b04 <BSP_USBPD_PWR_SetPowerMode>
70001be6:	4b37      	ldr	r3, [pc, #220]	@ (70001cc4 <BSP_USBPD_PWR_VBUSInit+0xfc>)
70001be8:	f44f 4180 	mov.w	r1, #16384	@ 0x4000
70001bec:	4606      	mov	r6, r0
70001bee:	f8d3 2138 	ldr.w	r2, [r3, #312]	@ 0x138
70001bf2:	f04f 0804 	mov.w	r8, #4
70001bf6:	4834      	ldr	r0, [pc, #208]	@ (70001cc8 <BSP_USBPD_PWR_VBUSInit+0x100>)
70001bf8:	277f      	movs	r7, #127	@ 0x7f
70001bfa:	f042 0220 	orr.w	r2, r2, #32
70001bfe:	f8c3 2138 	str.w	r2, [r3, #312]	@ 0x138
70001c02:	f8d3 2138 	ldr.w	r2, [r3, #312]	@ 0x138
70001c06:	9200      	str	r2, [sp, #0]
70001c08:	9a00      	ldr	r2, [sp, #0]
70001c0a:	f8d3 2140 	ldr.w	r2, [r3, #320]	@ 0x140
70001c0e:	f042 0220 	orr.w	r2, r2, #32
70001c12:	f8c3 2140 	str.w	r2, [r3, #320]	@ 0x140
70001c16:	2203      	movs	r2, #3
70001c18:	f8d3 3140 	ldr.w	r3, [r3, #320]	@ 0x140
70001c1c:	9301      	str	r3, [sp, #4]
70001c1e:	9b01      	ldr	r3, [sp, #4]
70001c20:	f7ff fdfa 	bl	70001818 <LL_GPIO_SetPinMode>
70001c24:	2210      	movs	r2, #16
70001c26:	2300      	movs	r3, #0
70001c28:	a80a      	add	r0, sp, #40	@ 0x28
70001c2a:	e9cd 230a 	strd	r2, r3, [sp, #40]	@ 0x28
70001c2e:	f04f 7300 	mov.w	r3, #33554432	@ 0x2000000
70001c32:	9310      	str	r3, [sp, #64]	@ 0x40
70001c34:	f002 fbe8 	bl	70004408 <HAL_RCCEx_PeriphCLKConfig>
70001c38:	4629      	mov	r1, r5
70001c3a:	2220      	movs	r2, #32
70001c3c:	a802      	add	r0, sp, #8
70001c3e:	f007 fef7 	bl	70009a30 <memset>
70001c42:	4a22      	ldr	r2, [pc, #136]	@ (70001ccc <BSP_USBPD_PWR_VBUSInit+0x104>)
70001c44:	f44f 2300 	mov.w	r3, #524288	@ 0x80000
70001c48:	4620      	mov	r0, r4
70001c4a:	60a5      	str	r5, [r4, #8]
70001c4c:	f884 5020 	strb.w	r5, [r4, #32]
70001c50:	6365      	str	r5, [r4, #52]	@ 0x34
70001c52:	f884 503c 	strb.w	r5, [r4, #60]	@ 0x3c
70001c56:	e9c4 2300 	strd	r2, r3, [r4]
70001c5a:	2301      	movs	r3, #1
70001c5c:	f44f 7280 	mov.w	r2, #256	@ 0x100
70001c60:	e9c4 3804 	strd	r3, r8, [r4, #16]
70001c64:	61e3      	str	r3, [r4, #28]
70001c66:	f44f 5380 	mov.w	r3, #4096	@ 0x1000
70001c6a:	8322      	strh	r2, [r4, #24]
70001c6c:	63a3      	str	r3, [r4, #56]	@ 0x38
70001c6e:	e9c4 550a 	strd	r5, r5, [r4, #40]	@ 0x28
70001c72:	f000 fa2b 	bl	700020cc <HAL_ADC_Init>
70001c76:	2306      	movs	r3, #6
70001c78:	4915      	ldr	r1, [pc, #84]	@ (70001cd0 <BSP_USBPD_PWR_VBUSInit+0x108>)
70001c7a:	4620      	mov	r0, r4
70001c7c:	9304      	str	r3, [sp, #16]
70001c7e:	9507      	str	r5, [sp, #28]
70001c80:	f88d 5024 	strb.w	r5, [sp, #36]	@ 0x24
70001c84:	e9cd 1302 	strd	r1, r3, [sp, #8]
70001c88:	f04f 7380 	mov.w	r3, #16777216	@ 0x1000000
70001c8c:	a902      	add	r1, sp, #8
70001c8e:	9308      	str	r3, [sp, #32]
70001c90:	e9cd 7805 	strd	r7, r8, [sp, #20]
70001c94:	f000 faf2 	bl	7000227c <HAL_ADC_ConfigChannel>
70001c98:	4639      	mov	r1, r7
70001c9a:	4620      	mov	r0, r4
70001c9c:	f000 fdc0 	bl	70002820 <HAL_ADCEx_Calibration_Start>
70001ca0:	4620      	mov	r0, r4
70001ca2:	f000 fd17 	bl	700026d4 <HAL_ADC_Start>
70001ca6:	4630      	mov	r0, r6
70001ca8:	b02e      	add	sp, #184	@ 0xb8
70001caa:	e8bd 81f0 	ldmia.w	sp!, {r4, r5, r6, r7, r8, pc}
70001cae:	f06f 0601 	mvn.w	r6, #1
70001cb2:	e7f8      	b.n	70001ca6 <BSP_USBPD_PWR_VBUSInit+0xde>
70001cb4:	f06f 060a 	mvn.w	r6, #10
70001cb8:	e7f5      	b.n	70001ca6 <BSP_USBPD_PWR_VBUSInit+0xde>
70001cba:	bf00      	nop
70001cbc:	240000e8 	.word	0x240000e8
70001cc0:	24001794 	.word	0x24001794
70001cc4:	58024400 	.word	0x58024400
70001cc8:	58021400 	.word	0x58021400
70001ccc:	40022100 	.word	0x40022100
70001cd0:	19200040 	.word	0x19200040

70001cd4 <BSP_USBPD_PWR_VBUSDeInit>:
70001cd4:	4601      	mov	r1, r0
70001cd6:	b510      	push	{r4, lr}
70001cd8:	b9f8      	cbnz	r0, 70001d1a <BSP_USBPD_PWR_VBUSDeInit+0x46>
70001cda:	4c11      	ldr	r4, [pc, #68]	@ (70001d20 <BSP_USBPD_PWR_VBUSDeInit+0x4c>)
70001cdc:	7823      	ldrb	r3, [r4, #0]
70001cde:	2b03      	cmp	r3, #3
70001ce0:	d006      	beq.n	70001cf0 <BSP_USBPD_PWR_VBUSDeInit+0x1c>
70001ce2:	7823      	ldrb	r3, [r4, #0]
70001ce4:	3b02      	subs	r3, #2
70001ce6:	2b01      	cmp	r3, #1
70001ce8:	d90c      	bls.n	70001d04 <BSP_USBPD_PWR_VBUSDeInit+0x30>
70001cea:	f06f 000a 	mvn.w	r0, #10
70001cee:	bd10      	pop	{r4, pc}
70001cf0:	4b0c      	ldr	r3, [pc, #48]	@ (70001d24 <BSP_USBPD_PWR_VBUSDeInit+0x50>)
70001cf2:	480d      	ldr	r0, [pc, #52]	@ (70001d28 <BSP_USBPD_PWR_VBUSDeInit+0x54>)
70001cf4:	681b      	ldr	r3, [r3, #0]
70001cf6:	695b      	ldr	r3, [r3, #20]
70001cf8:	4798      	blx	r3
70001cfa:	2800      	cmp	r0, #0
70001cfc:	d0f1      	beq.n	70001ce2 <BSP_USBPD_PWR_VBUSDeInit+0xe>
70001cfe:	f06f 0004 	mvn.w	r0, #4
70001d02:	e7f4      	b.n	70001cee <BSP_USBPD_PWR_VBUSDeInit+0x1a>
70001d04:	4b09      	ldr	r3, [pc, #36]	@ (70001d2c <BSP_USBPD_PWR_VBUSDeInit+0x58>)
70001d06:	7898      	ldrb	r0, [r3, #2]
70001d08:	b920      	cbnz	r0, 70001d14 <BSP_USBPD_PWR_VBUSDeInit+0x40>
70001d0a:	2102      	movs	r1, #2
70001d0c:	e8bd 4010 	ldmia.w	sp!, {r4, lr}
70001d10:	f7ff bef8 	b.w	70001b04 <BSP_USBPD_PWR_SetPowerMode>
70001d14:	2101      	movs	r1, #1
70001d16:	2000      	movs	r0, #0
70001d18:	e7f8      	b.n	70001d0c <BSP_USBPD_PWR_VBUSDeInit+0x38>
70001d1a:	f06f 0001 	mvn.w	r0, #1
70001d1e:	e7e6      	b.n	70001cee <BSP_USBPD_PWR_VBUSDeInit+0x1a>
70001d20:	240000e8 	.word	0x240000e8
70001d24:	240017fc 	.word	0x240017fc
70001d28:	24001800 	.word	0x24001800
70001d2c:	240000dc 	.word	0x240000dc

70001d30 <BSP_USBPD_PWR_RegisterVBUSDetectCallback>:
70001d30:	b918      	cbnz	r0, 70001d3a <BSP_USBPD_PWR_RegisterVBUSDetectCallback+0xa>
70001d32:	b111      	cbz	r1, 70001d3a <BSP_USBPD_PWR_RegisterVBUSDetectCallback+0xa>
70001d34:	4b02      	ldr	r3, [pc, #8]	@ (70001d40 <BSP_USBPD_PWR_RegisterVBUSDetectCallback+0x10>)
70001d36:	6099      	str	r1, [r3, #8]
70001d38:	4770      	bx	lr
70001d3a:	f06f 0001 	mvn.w	r0, #1
70001d3e:	4770      	bx	lr
70001d40:	240000dc 	.word	0x240000dc

70001d44 <BSP_USBPD_PWR_VBUSGetVoltage>:
70001d44:	b9b8      	cbnz	r0, 70001d76 <BSP_USBPD_PWR_VBUSGetVoltage+0x32>
70001d46:	b1b1      	cbz	r1, 70001d76 <BSP_USBPD_PWR_VBUSGetVoltage+0x32>
70001d48:	4b0c      	ldr	r3, [pc, #48]	@ (70001d7c <BSP_USBPD_PWR_VBUSGetVoltage+0x38>)
70001d4a:	4a0d      	ldr	r2, [pc, #52]	@ (70001d80 <BSP_USBPD_PWR_VBUSGetVoltage+0x3c>)
70001d4c:	6c1b      	ldr	r3, [r3, #64]	@ 0x40
70001d4e:	b29b      	uxth	r3, r3
70001d50:	8013      	strh	r3, [r2, #0]
70001d52:	8813      	ldrh	r3, [r2, #0]
70001d54:	f640 42e4 	movw	r2, #3300	@ 0xce4
70001d58:	b29b      	uxth	r3, r3
70001d5a:	4353      	muls	r3, r2
70001d5c:	f640 72ff 	movw	r2, #4095	@ 0xfff
70001d60:	fbb3 f3f2 	udiv	r3, r3, r2
70001d64:	f640 62d7 	movw	r2, #3799	@ 0xed7
70001d68:	4353      	muls	r3, r2
70001d6a:	f240 12f3 	movw	r2, #499	@ 0x1f3
70001d6e:	fbb3 f3f2 	udiv	r3, r3, r2
70001d72:	600b      	str	r3, [r1, #0]
70001d74:	4770      	bx	lr
70001d76:	f06f 0001 	mvn.w	r0, #1
70001d7a:	4770      	bx	lr
70001d7c:	40022100 	.word	0x40022100
70001d80:	24001790 	.word	0x24001790

70001d84 <BSP_USBPD_PWR_EventCallback>:
70001d84:	4b36      	ldr	r3, [pc, #216]	@ (70001e60 <BSP_USBPD_PWR_EventCallback+0xdc>)
70001d86:	e92d 41f3 	stmdb	sp!, {r0, r1, r4, r5, r6, r7, r8, lr}
70001d8a:	f813 3010 	ldrb.w	r3, [r3, r0, lsl #1]
70001d8e:	4604      	mov	r4, r0
70001d90:	3b02      	subs	r3, #2
70001d92:	2b01      	cmp	r3, #1
70001d94:	d834      	bhi.n	70001e00 <BSP_USBPD_PWR_EventCallback+0x7c>
70001d96:	2300      	movs	r3, #0
70001d98:	4f32      	ldr	r7, [pc, #200]	@ (70001e64 <BSP_USBPD_PWR_EventCallback+0xe0>)
70001d9a:	f88d 3006 	strb.w	r3, [sp, #6]
70001d9e:	230c      	movs	r3, #12
70001da0:	4343      	muls	r3, r0
70001da2:	18fd      	adds	r5, r7, r3
70001da4:	5cfb      	ldrb	r3, [r7, r3]
70001da6:	2b01      	cmp	r3, #1
70001da8:	d12a      	bne.n	70001e00 <BSP_USBPD_PWR_EventCallback+0x7c>
70001daa:	2328      	movs	r3, #40	@ 0x28
70001dac:	4e2e      	ldr	r6, [pc, #184]	@ (70001e68 <BSP_USBPD_PWR_EventCallback+0xe4>)
70001dae:	f10d 0106 	add.w	r1, sp, #6
70001db2:	fb03 6600 	mla	r6, r3, r0, r6
70001db6:	4b2d      	ldr	r3, [pc, #180]	@ (70001e6c <BSP_USBPD_PWR_EventCallback+0xe8>)
70001db8:	f853 3020 	ldr.w	r3, [r3, r0, lsl #2]
70001dbc:	4630      	mov	r0, r6
70001dbe:	6e5b      	ldr	r3, [r3, #100]	@ 0x64
70001dc0:	4798      	blx	r3
70001dc2:	4680      	mov	r8, r0
70001dc4:	b9e0      	cbnz	r0, 70001e00 <BSP_USBPD_PWR_EventCallback+0x7c>
70001dc6:	78eb      	ldrb	r3, [r5, #3]
70001dc8:	2b02      	cmp	r3, #2
70001dca:	d012      	beq.n	70001df2 <BSP_USBPD_PWR_EventCallback+0x6e>
70001dcc:	2b03      	cmp	r3, #3
70001dce:	d01a      	beq.n	70001e06 <BSP_USBPD_PWR_EventCallback+0x82>
70001dd0:	2b01      	cmp	r3, #1
70001dd2:	d115      	bne.n	70001e00 <BSP_USBPD_PWR_EventCallback+0x7c>
70001dd4:	f89d 3006 	ldrb.w	r3, [sp, #6]
70001dd8:	0699      	lsls	r1, r3, #26
70001dda:	d511      	bpl.n	70001e00 <BSP_USBPD_PWR_EventCallback+0x7c>
70001ddc:	68ab      	ldr	r3, [r5, #8]
70001dde:	b17b      	cbz	r3, 70001e00 <BSP_USBPD_PWR_EventCallback+0x7c>
70001de0:	2102      	movs	r1, #2
70001de2:	4620      	mov	r0, r4
70001de4:	f7ff fe8e 	bl	70001b04 <BSP_USBPD_PWR_SetPowerMode>
70001de8:	68ab      	ldr	r3, [r5, #8]
70001dea:	4641      	mov	r1, r8
70001dec:	4620      	mov	r0, r4
70001dee:	4798      	blx	r3
70001df0:	e006      	b.n	70001e00 <BSP_USBPD_PWR_EventCallback+0x7c>
70001df2:	f89d 3006 	ldrb.w	r3, [sp, #6]
70001df6:	069a      	lsls	r2, r3, #26
70001df8:	d502      	bpl.n	70001e00 <BSP_USBPD_PWR_EventCallback+0x7c>
70001dfa:	68ab      	ldr	r3, [r5, #8]
70001dfc:	2b00      	cmp	r3, #0
70001dfe:	d1f4      	bne.n	70001dea <BSP_USBPD_PWR_EventCallback+0x66>
70001e00:	b002      	add	sp, #8
70001e02:	e8bd 81f0 	ldmia.w	sp!, {r4, r5, r6, r7, r8, pc}
70001e06:	f000 f921 	bl	7000204c <HAL_GetTick>
70001e0a:	f89d 3006 	ldrb.w	r3, [sp, #6]
70001e0e:	4680      	mov	r8, r0
70001e10:	079b      	lsls	r3, r3, #30
70001e12:	d5f5      	bpl.n	70001e00 <BSP_USBPD_PWR_EventCallback+0x7c>
70001e14:	686b      	ldr	r3, [r5, #4]
70001e16:	4298      	cmp	r0, r3
70001e18:	d915      	bls.n	70001e46 <BSP_USBPD_PWR_EventCallback+0xc2>
70001e1a:	1ac3      	subs	r3, r0, r3
70001e1c:	f5b3 7f7a 	cmp.w	r3, #1000	@ 0x3e8
70001e20:	d911      	bls.n	70001e46 <BSP_USBPD_PWR_EventCallback+0xc2>
70001e22:	2318      	movs	r3, #24
70001e24:	f10d 0107 	add.w	r1, sp, #7
70001e28:	4630      	mov	r0, r6
70001e2a:	f88d 3007 	strb.w	r3, [sp, #7]
70001e2e:	f7ff f9bf 	bl	700011b0 <TCPP0203_WriteCtrlRegister>
70001e32:	78ab      	ldrb	r3, [r5, #2]
70001e34:	b96b      	cbnz	r3, 70001e52 <BSP_USBPD_PWR_EventCallback+0xce>
70001e36:	2110      	movs	r1, #16
70001e38:	4630      	mov	r0, r6
70001e3a:	f7ff f99d 	bl	70001178 <TCPP0203_SetPowerMode>
70001e3e:	2104      	movs	r1, #4
70001e40:	4630      	mov	r0, r6
70001e42:	f7ff f9c8 	bl	700011d6 <TCPP0203_SetGateDriverProvider>
70001e46:	230c      	movs	r3, #12
70001e48:	fb03 7704 	mla	r7, r3, r4, r7
70001e4c:	f8c7 8004 	str.w	r8, [r7, #4]
70001e50:	e7d6      	b.n	70001e00 <BSP_USBPD_PWR_EventCallback+0x7c>
70001e52:	68ab      	ldr	r3, [r5, #8]
70001e54:	2b00      	cmp	r3, #0
70001e56:	d0f6      	beq.n	70001e46 <BSP_USBPD_PWR_EventCallback+0xc2>
70001e58:	2101      	movs	r1, #1
70001e5a:	4620      	mov	r0, r4
70001e5c:	4798      	blx	r3
70001e5e:	e7f2      	b.n	70001e46 <BSP_USBPD_PWR_EventCallback+0xc2>
70001e60:	240000e8 	.word	0x240000e8
70001e64:	240000dc 	.word	0x240000dc
70001e68:	24001800 	.word	0x24001800
70001e6c:	240017fc 	.word	0x240017fc

70001e70 <SystemInit>:
70001e70:	4b04      	ldr	r3, [pc, #16]	@ (70001e84 <SystemInit+0x14>)
70001e72:	4a05      	ldr	r2, [pc, #20]	@ (70001e88 <SystemInit+0x18>)
70001e74:	609a      	str	r2, [r3, #8]
70001e76:	f8d3 2088 	ldr.w	r2, [r3, #136]	@ 0x88
70001e7a:	f442 0270 	orr.w	r2, r2, #15728640	@ 0xf00000
70001e7e:	f8c3 2088 	str.w	r2, [r3, #136]	@ 0x88
70001e82:	4770      	bx	lr
70001e84:	e000ed00 	.word	0xe000ed00
70001e88:	70000000 	.word	0x70000000

70001e8c <SystemCoreClockUpdate>:
70001e8c:	4a45      	ldr	r2, [pc, #276]	@ (70001fa4 <SystemCoreClockUpdate+0x118>)
70001e8e:	6913      	ldr	r3, [r2, #16]
70001e90:	f003 0338 	and.w	r3, r3, #56	@ 0x38
70001e94:	2b10      	cmp	r3, #16
70001e96:	f000 8082 	beq.w	70001f9e <SystemCoreClockUpdate+0x112>
70001e9a:	d80c      	bhi.n	70001eb6 <SystemCoreClockUpdate+0x2a>
70001e9c:	b16b      	cbz	r3, 70001eba <SystemCoreClockUpdate+0x2e>
70001e9e:	4b42      	ldr	r3, [pc, #264]	@ (70001fa8 <SystemCoreClockUpdate+0x11c>)
70001ea0:	4a40      	ldr	r2, [pc, #256]	@ (70001fa4 <SystemCoreClockUpdate+0x118>)
70001ea2:	6992      	ldr	r2, [r2, #24]
70001ea4:	0711      	lsls	r1, r2, #28
70001ea6:	bf42      	ittt	mi
70001ea8:	f002 020f 	andmi.w	r2, r2, #15
70001eac:	3a07      	submi	r2, #7
70001eae:	40d3      	lsrmi	r3, r2
70001eb0:	4a3e      	ldr	r2, [pc, #248]	@ (70001fac <SystemCoreClockUpdate+0x120>)
70001eb2:	6013      	str	r3, [r2, #0]
70001eb4:	4770      	bx	lr
70001eb6:	2b18      	cmp	r3, #24
70001eb8:	d005      	beq.n	70001ec6 <SystemCoreClockUpdate+0x3a>
70001eba:	6812      	ldr	r2, [r2, #0]
70001ebc:	4b3c      	ldr	r3, [pc, #240]	@ (70001fb0 <SystemCoreClockUpdate+0x124>)
70001ebe:	f3c2 02c1 	ubfx	r2, r2, #3, #2
70001ec2:	40d3      	lsrs	r3, r2
70001ec4:	e7ec      	b.n	70001ea0 <SystemCoreClockUpdate+0x14>
70001ec6:	6a91      	ldr	r1, [r2, #40]	@ 0x28
70001ec8:	6a93      	ldr	r3, [r2, #40]	@ 0x28
70001eca:	6ad0      	ldr	r0, [r2, #44]	@ 0x2c
70001ecc:	f3c3 1305 	ubfx	r3, r3, #4, #6
70001ed0:	07c0      	lsls	r0, r0, #31
70001ed2:	d53a      	bpl.n	70001f4a <SystemCoreClockUpdate+0xbe>
70001ed4:	6b52      	ldr	r2, [r2, #52]	@ 0x34
70001ed6:	f3c2 02cc 	ubfx	r2, r2, #3, #13
70001eda:	ee06 2a90 	vmov	s13, r2
70001ede:	eef8 6ae6 	vcvt.f32.s32	s13, s13
70001ee2:	2b00      	cmp	r3, #0
70001ee4:	d0dc      	beq.n	70001ea0 <SystemCoreClockUpdate+0x14>
70001ee6:	ee07 3a90 	vmov	s15, r3
70001eea:	f001 0203 	and.w	r2, r1, #3
70001eee:	eef7 5a00 	vmov.f32	s11, #112	@ 0x3f800000  1.0
70001ef2:	4b2c      	ldr	r3, [pc, #176]	@ (70001fa4 <SystemCoreClockUpdate+0x118>)
70001ef4:	eeb8 7ae7 	vcvt.f32.s32	s14, s15
70001ef8:	2a01      	cmp	r2, #1
70001efa:	eddf 7a2e 	vldr	s15, [pc, #184]	@ 70001fb4 <SystemCoreClockUpdate+0x128>
70001efe:	ee66 6aa7 	vmul.f32	s13, s13, s15
70001f02:	d025      	beq.n	70001f50 <SystemCoreClockUpdate+0xc4>
70001f04:	2a02      	cmp	r2, #2
70001f06:	d131      	bne.n	70001f6c <SystemCoreClockUpdate+0xe0>
70001f08:	6b1b      	ldr	r3, [r3, #48]	@ 0x30
70001f0a:	ed9f 6a2b 	vldr	s12, [pc, #172]	@ 70001fb8 <SystemCoreClockUpdate+0x12c>
70001f0e:	f3c3 0308 	ubfx	r3, r3, #0, #9
70001f12:	ee07 3a90 	vmov	s15, r3
70001f16:	eef8 7ae7 	vcvt.f32.s32	s15, s15
70001f1a:	ee77 7aa6 	vadd.f32	s15, s15, s13
70001f1e:	ee77 7aa5 	vadd.f32	s15, s15, s11
70001f22:	eec6 6a07 	vdiv.f32	s13, s12, s14
70001f26:	ee67 7aa6 	vmul.f32	s15, s15, s13
70001f2a:	4b1e      	ldr	r3, [pc, #120]	@ (70001fa4 <SystemCoreClockUpdate+0x118>)
70001f2c:	6b1b      	ldr	r3, [r3, #48]	@ 0x30
70001f2e:	f3c3 2346 	ubfx	r3, r3, #9, #7
70001f32:	3301      	adds	r3, #1
70001f34:	ee07 3a10 	vmov	s14, r3
70001f38:	eef8 6ac7 	vcvt.f32.s32	s13, s14
70001f3c:	ee87 7aa6 	vdiv.f32	s14, s15, s13
70001f40:	eefc 7ac7 	vcvt.u32.f32	s15, s14
70001f44:	ee17 3a90 	vmov	r3, s15
70001f48:	e7aa      	b.n	70001ea0 <SystemCoreClockUpdate+0x14>
70001f4a:	eddf 6a1c 	vldr	s13, [pc, #112]	@ 70001fbc <SystemCoreClockUpdate+0x130>
70001f4e:	e7c8      	b.n	70001ee2 <SystemCoreClockUpdate+0x56>
70001f50:	6b1b      	ldr	r3, [r3, #48]	@ 0x30
70001f52:	ed9f 6a1b 	vldr	s12, [pc, #108]	@ 70001fc0 <SystemCoreClockUpdate+0x134>
70001f56:	f3c3 0308 	ubfx	r3, r3, #0, #9
70001f5a:	ee07 3a90 	vmov	s15, r3
70001f5e:	eef8 7ae7 	vcvt.f32.s32	s15, s15
70001f62:	ee77 7aa6 	vadd.f32	s15, s15, s13
70001f66:	ee77 7aa5 	vadd.f32	s15, s15, s11
70001f6a:	e7da      	b.n	70001f22 <SystemCoreClockUpdate+0x96>
70001f6c:	6819      	ldr	r1, [r3, #0]
70001f6e:	4a10      	ldr	r2, [pc, #64]	@ (70001fb0 <SystemCoreClockUpdate+0x124>)
70001f70:	f3c1 01c1 	ubfx	r1, r1, #3, #2
70001f74:	6b1b      	ldr	r3, [r3, #48]	@ 0x30
70001f76:	40ca      	lsrs	r2, r1
70001f78:	f3c3 0308 	ubfx	r3, r3, #0, #9
70001f7c:	ee07 2a90 	vmov	s15, r2
70001f80:	eeb8 6ae7 	vcvt.f32.s32	s12, s15
70001f84:	eec6 7a07 	vdiv.f32	s15, s12, s14
70001f88:	ee07 3a10 	vmov	s14, r3
70001f8c:	eeb8 7ac7 	vcvt.f32.s32	s14, s14
70001f90:	ee37 7a26 	vadd.f32	s14, s14, s13
70001f94:	ee37 7a25 	vadd.f32	s14, s14, s11
70001f98:	ee67 7a87 	vmul.f32	s15, s15, s14
70001f9c:	e7c5      	b.n	70001f2a <SystemCoreClockUpdate+0x9e>
70001f9e:	4b09      	ldr	r3, [pc, #36]	@ (70001fc4 <SystemCoreClockUpdate+0x138>)
70001fa0:	e77e      	b.n	70001ea0 <SystemCoreClockUpdate+0x14>
70001fa2:	bf00      	nop
70001fa4:	58024400 	.word	0x58024400
70001fa8:	003d0900 	.word	0x003d0900
70001fac:	240000ec 	.word	0x240000ec
70001fb0:	03d09000 	.word	0x03d09000
70001fb4:	39000000 	.word	0x39000000
70001fb8:	4bb71b00 	.word	0x4bb71b00
70001fbc:	00000000 	.word	0x00000000
70001fc0:	4a742400 	.word	0x4a742400
70001fc4:	016e3600 	.word	0x016e3600

70001fc8 <HAL_InitTick>:
70001fc8:	b538      	push	{r3, r4, r5, lr}
70001fca:	4b0f      	ldr	r3, [pc, #60]	@ (70002008 <HAL_InitTick+0x40>)
70001fcc:	4605      	mov	r5, r0
70001fce:	781a      	ldrb	r2, [r3, #0]
70001fd0:	b90a      	cbnz	r2, 70001fd6 <HAL_InitTick+0xe>
70001fd2:	2001      	movs	r0, #1
70001fd4:	bd38      	pop	{r3, r4, r5, pc}
70001fd6:	f44f 737a 	mov.w	r3, #1000	@ 0x3e8
70001fda:	fbb3 f3f2 	udiv	r3, r3, r2
70001fde:	4a0b      	ldr	r2, [pc, #44]	@ (7000200c <HAL_InitTick+0x44>)
70001fe0:	6810      	ldr	r0, [r2, #0]
70001fe2:	fbb0 f0f3 	udiv	r0, r0, r3
70001fe6:	f000 fcb9 	bl	7000295c <HAL_SYSTICK_Config>
70001fea:	4604      	mov	r4, r0
70001fec:	2800      	cmp	r0, #0
70001fee:	d1f0      	bne.n	70001fd2 <HAL_InitTick+0xa>
70001ff0:	2d0f      	cmp	r5, #15
70001ff2:	d8ee      	bhi.n	70001fd2 <HAL_InitTick+0xa>
70001ff4:	4602      	mov	r2, r0
70001ff6:	4629      	mov	r1, r5
70001ff8:	f04f 30ff 	mov.w	r0, #4294967295	@ 0xffffffff
70001ffc:	f000 fc6e 	bl	700028dc <HAL_NVIC_SetPriority>
70002000:	4b03      	ldr	r3, [pc, #12]	@ (70002010 <HAL_InitTick+0x48>)
70002002:	4620      	mov	r0, r4
70002004:	601d      	str	r5, [r3, #0]
70002006:	e7e5      	b.n	70001fd4 <HAL_InitTick+0xc>
70002008:	240000f0 	.word	0x240000f0
7000200c:	240000ec 	.word	0x240000ec
70002010:	240000f4 	.word	0x240000f4

70002014 <HAL_Init>:
70002014:	b510      	push	{r4, lr}
70002016:	2003      	movs	r0, #3
70002018:	f000 fc4e 	bl	700028b8 <HAL_NVIC_SetPriorityGrouping>
7000201c:	2000      	movs	r0, #0
7000201e:	f7ff ffd3 	bl	70001fc8 <HAL_InitTick>
70002022:	4604      	mov	r4, r0
70002024:	b918      	cbnz	r0, 7000202e <HAL_Init+0x1a>
70002026:	f7fe fbc6 	bl	700007b6 <HAL_MspInit>
7000202a:	4620      	mov	r0, r4
7000202c:	bd10      	pop	{r4, pc}
7000202e:	2401      	movs	r4, #1
70002030:	e7fb      	b.n	7000202a <HAL_Init+0x16>
	...

70002034 <HAL_IncTick>:
70002034:	4a03      	ldr	r2, [pc, #12]	@ (70002044 <HAL_IncTick+0x10>)
70002036:	4b04      	ldr	r3, [pc, #16]	@ (70002048 <HAL_IncTick+0x14>)
70002038:	6811      	ldr	r1, [r2, #0]
7000203a:	781b      	ldrb	r3, [r3, #0]
7000203c:	440b      	add	r3, r1
7000203e:	6013      	str	r3, [r2, #0]
70002040:	4770      	bx	lr
70002042:	bf00      	nop
70002044:	24001828 	.word	0x24001828
70002048:	240000f0 	.word	0x240000f0

7000204c <HAL_GetTick>:
7000204c:	4b01      	ldr	r3, [pc, #4]	@ (70002054 <HAL_GetTick+0x8>)
7000204e:	6818      	ldr	r0, [r3, #0]
70002050:	4770      	bx	lr
70002052:	bf00      	nop
70002054:	24001828 	.word	0x24001828

70002058 <HAL_Delay>:
70002058:	b538      	push	{r3, r4, r5, lr}
7000205a:	4604      	mov	r4, r0
7000205c:	f7ff fff6 	bl	7000204c <HAL_GetTick>
70002060:	4605      	mov	r5, r0
70002062:	1c63      	adds	r3, r4, #1
70002064:	bf1e      	ittt	ne
70002066:	4b04      	ldrne	r3, [pc, #16]	@ (70002078 <HAL_Delay+0x20>)
70002068:	781b      	ldrbne	r3, [r3, #0]
7000206a:	18e4      	addne	r4, r4, r3
7000206c:	f7ff ffee 	bl	7000204c <HAL_GetTick>
70002070:	1b43      	subs	r3, r0, r5
70002072:	42a3      	cmp	r3, r4
70002074:	d3fa      	bcc.n	7000206c <HAL_Delay+0x14>
70002076:	bd38      	pop	{r3, r4, r5, pc}
70002078:	240000f0 	.word	0x240000f0

7000207c <HAL_SuspendTick>:
7000207c:	f04f 22e0 	mov.w	r2, #3758153728	@ 0xe000e000
70002080:	6913      	ldr	r3, [r2, #16]
70002082:	f023 0302 	bic.w	r3, r3, #2
70002086:	6113      	str	r3, [r2, #16]
70002088:	4770      	bx	lr

7000208a <HAL_ResumeTick>:
7000208a:	f04f 22e0 	mov.w	r2, #3758153728	@ 0xe000e000
7000208e:	6913      	ldr	r3, [r2, #16]
70002090:	f043 0302 	orr.w	r3, r3, #2
70002094:	6113      	str	r3, [r2, #16]
70002096:	4770      	bx	lr

70002098 <LL_ADC_SetChannelSamplingTime>:
70002098:	b530      	push	{r4, r5, lr}
7000209a:	0dcc      	lsrs	r4, r1, #23
7000209c:	3014      	adds	r0, #20
7000209e:	f3c1 5104 	ubfx	r1, r1, #20, #5
700020a2:	2507      	movs	r5, #7
700020a4:	f004 0404 	and.w	r4, r4, #4
700020a8:	408d      	lsls	r5, r1
700020aa:	408a      	lsls	r2, r1
700020ac:	5903      	ldr	r3, [r0, r4]
700020ae:	ea23 0305 	bic.w	r3, r3, r5
700020b2:	4313      	orrs	r3, r2
700020b4:	5103      	str	r3, [r0, r4]
700020b6:	bd30      	pop	{r4, r5, pc}

700020b8 <LL_ADC_IsEnabled>:
700020b8:	6880      	ldr	r0, [r0, #8]
700020ba:	f000 0001 	and.w	r0, r0, #1
700020be:	4770      	bx	lr

700020c0 <LL_ADC_REG_IsConversionOngoing>:
700020c0:	6880      	ldr	r0, [r0, #8]
700020c2:	f3c0 0080 	ubfx	r0, r0, #2, #1
700020c6:	4770      	bx	lr

700020c8 <HAL_ADC_MspInit>:
700020c8:	4770      	bx	lr
	...

700020cc <HAL_ADC_Init>:
700020cc:	2300      	movs	r3, #0
700020ce:	b537      	push	{r0, r1, r2, r4, r5, lr}
700020d0:	4604      	mov	r4, r0
700020d2:	9301      	str	r3, [sp, #4]
700020d4:	2800      	cmp	r0, #0
700020d6:	f000 80c3 	beq.w	70002260 <HAL_ADC_Init+0x194>
700020da:	6d85      	ldr	r5, [r0, #88]	@ 0x58
700020dc:	b925      	cbnz	r5, 700020e8 <HAL_ADC_Init+0x1c>
700020de:	f7ff fff3 	bl	700020c8 <HAL_ADC_MspInit>
700020e2:	65e5      	str	r5, [r4, #92]	@ 0x5c
700020e4:	f884 5054 	strb.w	r5, [r4, #84]	@ 0x54
700020e8:	6823      	ldr	r3, [r4, #0]
700020ea:	689a      	ldr	r2, [r3, #8]
700020ec:	0095      	lsls	r5, r2, #2
700020ee:	d505      	bpl.n	700020fc <HAL_ADC_Init+0x30>
700020f0:	689a      	ldr	r2, [r3, #8]
700020f2:	f022 4220 	bic.w	r2, r2, #2684354560	@ 0xa0000000
700020f6:	f022 023f 	bic.w	r2, r2, #63	@ 0x3f
700020fa:	609a      	str	r2, [r3, #8]
700020fc:	689a      	ldr	r2, [r3, #8]
700020fe:	00d0      	lsls	r0, r2, #3
70002100:	f140 8089 	bpl.w	70002216 <HAL_ADC_Init+0x14a>
70002104:	689a      	ldr	r2, [r3, #8]
70002106:	00d1      	lsls	r1, r2, #3
70002108:	f100 809c 	bmi.w	70002244 <HAL_ADC_Init+0x178>
7000210c:	6da2      	ldr	r2, [r4, #88]	@ 0x58
7000210e:	2101      	movs	r1, #1
70002110:	f042 0210 	orr.w	r2, r2, #16
70002114:	65a2      	str	r2, [r4, #88]	@ 0x58
70002116:	6de2      	ldr	r2, [r4, #92]	@ 0x5c
70002118:	f042 0201 	orr.w	r2, r2, #1
7000211c:	65e2      	str	r2, [r4, #92]	@ 0x5c
7000211e:	4618      	mov	r0, r3
70002120:	f7ff ffce 	bl	700020c0 <LL_ADC_REG_IsConversionOngoing>
70002124:	6da2      	ldr	r2, [r4, #88]	@ 0x58
70002126:	f002 0210 	and.w	r2, r2, #16
7000212a:	4302      	orrs	r2, r0
7000212c:	f040 8094 	bne.w	70002258 <HAL_ADC_Init+0x18c>
70002130:	6da2      	ldr	r2, [r4, #88]	@ 0x58
70002132:	4618      	mov	r0, r3
70002134:	f422 7281 	bic.w	r2, r2, #258	@ 0x102
70002138:	f042 0202 	orr.w	r2, r2, #2
7000213c:	65a2      	str	r2, [r4, #88]	@ 0x58
7000213e:	f7ff ffbb 	bl	700020b8 <LL_ADC_IsEnabled>
70002142:	b978      	cbnz	r0, 70002164 <HAL_ADC_Init+0x98>
70002144:	4847      	ldr	r0, [pc, #284]	@ (70002264 <HAL_ADC_Init+0x198>)
70002146:	f7ff ffb7 	bl	700020b8 <LL_ADC_IsEnabled>
7000214a:	4602      	mov	r2, r0
7000214c:	4846      	ldr	r0, [pc, #280]	@ (70002268 <HAL_ADC_Init+0x19c>)
7000214e:	f7ff ffb3 	bl	700020b8 <LL_ADC_IsEnabled>
70002152:	4302      	orrs	r2, r0
70002154:	d106      	bne.n	70002164 <HAL_ADC_Init+0x98>
70002156:	4845      	ldr	r0, [pc, #276]	@ (7000226c <HAL_ADC_Init+0x1a0>)
70002158:	6865      	ldr	r5, [r4, #4]
7000215a:	6882      	ldr	r2, [r0, #8]
7000215c:	f422 127c 	bic.w	r2, r2, #4128768	@ 0x3f0000
70002160:	432a      	orrs	r2, r5
70002162:	6082      	str	r2, [r0, #8]
70002164:	68e5      	ldr	r5, [r4, #12]
70002166:	6ba2      	ldr	r2, [r4, #56]	@ 0x38
70002168:	f894 0020 	ldrb.w	r0, [r4, #32]
7000216c:	432a      	orrs	r2, r5
7000216e:	68a5      	ldr	r5, [r4, #8]
70002170:	2801      	cmp	r0, #1
70002172:	ea42 0205 	orr.w	r2, r2, r5
70002176:	7e65      	ldrb	r5, [r4, #25]
70002178:	ea42 3245 	orr.w	r2, r2, r5, lsl #13
7000217c:	ea42 4200 	orr.w	r2, r2, r0, lsl #16
70002180:	bf02      	ittt	eq
70002182:	6a60      	ldreq	r0, [r4, #36]	@ 0x24
70002184:	f100 30ff 	addeq.w	r0, r0, #4294967295	@ 0xffffffff
70002188:	ea42 4240 	orreq.w	r2, r2, r0, lsl #17
7000218c:	6aa0      	ldr	r0, [r4, #40]	@ 0x28
7000218e:	b120      	cbz	r0, 7000219a <HAL_ADC_Init+0xce>
70002190:	f400 7078 	and.w	r0, r0, #992	@ 0x3e0
70002194:	6ae5      	ldr	r5, [r4, #44]	@ 0x2c
70002196:	4328      	orrs	r0, r5
70002198:	4302      	orrs	r2, r0
7000219a:	68dd      	ldr	r5, [r3, #12]
7000219c:	4834      	ldr	r0, [pc, #208]	@ (70002270 <HAL_ADC_Init+0x1a4>)
7000219e:	4028      	ands	r0, r5
700021a0:	4310      	orrs	r0, r2
700021a2:	60d8      	str	r0, [r3, #12]
700021a4:	691a      	ldr	r2, [r3, #16]
700021a6:	6b20      	ldr	r0, [r4, #48]	@ 0x30
700021a8:	f022 6240 	bic.w	r2, r2, #201326592	@ 0xc000000
700021ac:	4302      	orrs	r2, r0
700021ae:	611a      	str	r2, [r3, #16]
700021b0:	689a      	ldr	r2, [r3, #8]
700021b2:	0712      	lsls	r2, r2, #28
700021b4:	d41c      	bmi.n	700021f0 <HAL_ADC_Init+0x124>
700021b6:	68da      	ldr	r2, [r3, #12]
700021b8:	7e20      	ldrb	r0, [r4, #24]
700021ba:	f422 4280 	bic.w	r2, r2, #16384	@ 0x4000
700021be:	f022 0206 	bic.w	r2, r2, #6
700021c2:	ea42 3280 	orr.w	r2, r2, r0, lsl #14
700021c6:	6b60      	ldr	r0, [r4, #52]	@ 0x34
700021c8:	4302      	orrs	r2, r0
700021ca:	60da      	str	r2, [r3, #12]
700021cc:	f894 203c 	ldrb.w	r2, [r4, #60]	@ 0x3c
700021d0:	2a01      	cmp	r2, #1
700021d2:	d139      	bne.n	70002248 <HAL_ADC_Init+0x17c>
700021d4:	6918      	ldr	r0, [r3, #16]
700021d6:	e9d4 2510 	ldrd	r2, r5, [r4, #64]	@ 0x40
700021da:	f36f 008a 	bfc	r0, #2, #9
700021de:	432a      	orrs	r2, r5
700021e0:	4302      	orrs	r2, r0
700021e2:	6ca0      	ldr	r0, [r4, #72]	@ 0x48
700021e4:	4302      	orrs	r2, r0
700021e6:	6ce0      	ldr	r0, [r4, #76]	@ 0x4c
700021e8:	4302      	orrs	r2, r0
700021ea:	f042 0201 	orr.w	r2, r2, #1
700021ee:	611a      	str	r2, [r3, #16]
700021f0:	6922      	ldr	r2, [r4, #16]
700021f2:	2a01      	cmp	r2, #1
700021f4:	d12c      	bne.n	70002250 <HAL_ADC_Init+0x184>
700021f6:	6b18      	ldr	r0, [r3, #48]	@ 0x30
700021f8:	69e2      	ldr	r2, [r4, #28]
700021fa:	f020 000f 	bic.w	r0, r0, #15
700021fe:	3a01      	subs	r2, #1
70002200:	4302      	orrs	r2, r0
70002202:	631a      	str	r2, [r3, #48]	@ 0x30
70002204:	6da3      	ldr	r3, [r4, #88]	@ 0x58
70002206:	f023 0303 	bic.w	r3, r3, #3
7000220a:	f043 0301 	orr.w	r3, r3, #1
7000220e:	65a3      	str	r3, [r4, #88]	@ 0x58
70002210:	4608      	mov	r0, r1
70002212:	b003      	add	sp, #12
70002214:	bd30      	pop	{r4, r5, pc}
70002216:	689a      	ldr	r2, [r3, #8]
70002218:	4916      	ldr	r1, [pc, #88]	@ (70002274 <HAL_ADC_Init+0x1a8>)
7000221a:	f022 4210 	bic.w	r2, r2, #2415919104	@ 0x90000000
7000221e:	f022 023f 	bic.w	r2, r2, #63	@ 0x3f
70002222:	f042 5280 	orr.w	r2, r2, #268435456	@ 0x10000000
70002226:	609a      	str	r2, [r3, #8]
70002228:	4a13      	ldr	r2, [pc, #76]	@ (70002278 <HAL_ADC_Init+0x1ac>)
7000222a:	6812      	ldr	r2, [r2, #0]
7000222c:	fbb2 f2f1 	udiv	r2, r2, r1
70002230:	3201      	adds	r2, #1
70002232:	0052      	lsls	r2, r2, #1
70002234:	9201      	str	r2, [sp, #4]
70002236:	9a01      	ldr	r2, [sp, #4]
70002238:	2a00      	cmp	r2, #0
7000223a:	f43f af63 	beq.w	70002104 <HAL_ADC_Init+0x38>
7000223e:	9a01      	ldr	r2, [sp, #4]
70002240:	3a01      	subs	r2, #1
70002242:	e7f7      	b.n	70002234 <HAL_ADC_Init+0x168>
70002244:	2100      	movs	r1, #0
70002246:	e76a      	b.n	7000211e <HAL_ADC_Init+0x52>
70002248:	691a      	ldr	r2, [r3, #16]
7000224a:	f022 0201 	bic.w	r2, r2, #1
7000224e:	e7ce      	b.n	700021ee <HAL_ADC_Init+0x122>
70002250:	6b1a      	ldr	r2, [r3, #48]	@ 0x30
70002252:	f022 020f 	bic.w	r2, r2, #15
70002256:	e7d4      	b.n	70002202 <HAL_ADC_Init+0x136>
70002258:	6da3      	ldr	r3, [r4, #88]	@ 0x58
7000225a:	f043 0310 	orr.w	r3, r3, #16
7000225e:	65a3      	str	r3, [r4, #88]	@ 0x58
70002260:	2101      	movs	r1, #1
70002262:	e7d5      	b.n	70002210 <HAL_ADC_Init+0x144>
70002264:	40022000 	.word	0x40022000
70002268:	40022100 	.word	0x40022100
7000226c:	40022300 	.word	0x40022300
70002270:	fff04007 	.word	0xfff04007
70002274:	00030d40 	.word	0x00030d40
70002278:	240000ec 	.word	0x240000ec

7000227c <HAL_ADC_ConfigChannel>:
7000227c:	2300      	movs	r3, #0
7000227e:	b5f7      	push	{r0, r1, r2, r4, r5, r6, r7, lr}
70002280:	9301      	str	r3, [sp, #4]
70002282:	4605      	mov	r5, r0
70002284:	f890 3054 	ldrb.w	r3, [r0, #84]	@ 0x54
70002288:	460e      	mov	r6, r1
7000228a:	2b01      	cmp	r3, #1
7000228c:	f000 81ab 	beq.w	700025e6 <HAL_ADC_ConfigChannel+0x36a>
70002290:	2301      	movs	r3, #1
70002292:	6804      	ldr	r4, [r0, #0]
70002294:	f880 3054 	strb.w	r3, [r0, #84]	@ 0x54
70002298:	4620      	mov	r0, r4
7000229a:	f7ff ff11 	bl	700020c0 <LL_ADC_REG_IsConversionOngoing>
7000229e:	2800      	cmp	r0, #0
700022a0:	f040 819b 	bne.w	700025da <HAL_ADC_ConfigChannel+0x35e>
700022a4:	684a      	ldr	r2, [r1, #4]
700022a6:	f104 0730 	add.w	r7, r4, #48	@ 0x30
700022aa:	6833      	ldr	r3, [r6, #0]
700022ac:	f04f 0c1f 	mov.w	ip, #31
700022b0:	0991      	lsrs	r1, r2, #6
700022b2:	f002 021f 	and.w	r2, r2, #31
700022b6:	f3c3 6384 	ubfx	r3, r3, #26, #5
700022ba:	f001 010c 	and.w	r1, r1, #12
700022be:	4093      	lsls	r3, r2
700022c0:	fa0c f202 	lsl.w	r2, ip, r2
700022c4:	5878      	ldr	r0, [r7, r1]
700022c6:	ea20 0202 	bic.w	r2, r0, r2
700022ca:	4620      	mov	r0, r4
700022cc:	4313      	orrs	r3, r2
700022ce:	507b      	str	r3, [r7, r1]
700022d0:	f7ff fef6 	bl	700020c0 <LL_ADC_REG_IsConversionOngoing>
700022d4:	68a2      	ldr	r2, [r4, #8]
700022d6:	f002 0208 	and.w	r2, r2, #8
700022da:	4302      	orrs	r2, r0
700022dc:	d13a      	bne.n	70002354 <HAL_ADC_ConfigChannel+0xd8>
700022de:	68b3      	ldr	r3, [r6, #8]
700022e0:	6831      	ldr	r1, [r6, #0]
700022e2:	f1b3 4f00 	cmp.w	r3, #2147483648	@ 0x80000000
700022e6:	d172      	bne.n	700023ce <HAL_ADC_ConfigChannel+0x152>
700022e8:	4620      	mov	r0, r4
700022ea:	f7ff fed5 	bl	70002098 <LL_ADC_SetChannelSamplingTime>
700022ee:	6963      	ldr	r3, [r4, #20]
700022f0:	f043 4300 	orr.w	r3, r3, #2147483648	@ 0x80000000
700022f4:	6163      	str	r3, [r4, #20]
700022f6:	f104 0360 	add.w	r3, r4, #96	@ 0x60
700022fa:	6937      	ldr	r7, [r6, #16]
700022fc:	68e0      	ldr	r0, [r4, #12]
700022fe:	2f04      	cmp	r7, #4
70002300:	6832      	ldr	r2, [r6, #0]
70002302:	d06c      	beq.n	700023de <HAL_ADC_ConfigChannel+0x162>
70002304:	f3c0 00c1 	ubfx	r0, r0, #3, #2
70002308:	6971      	ldr	r1, [r6, #20]
7000230a:	f853 c027 	ldr.w	ip, [r3, r7, lsl #2]
7000230e:	f002 42f8 	and.w	r2, r2, #2080374784	@ 0x7c000000
70002312:	0040      	lsls	r0, r0, #1
70002314:	4081      	lsls	r1, r0
70002316:	48b5      	ldr	r0, [pc, #724]	@ (700025ec <HAL_ADC_ConfigChannel+0x370>)
70002318:	ea0c 0000 	and.w	r0, ip, r0
7000231c:	4310      	orrs	r0, r2
7000231e:	4301      	orrs	r1, r0
70002320:	f041 4100 	orr.w	r1, r1, #2147483648	@ 0x80000000
70002324:	f843 1027 	str.w	r1, [r3, r7, lsl #2]
70002328:	6931      	ldr	r1, [r6, #16]
7000232a:	69b0      	ldr	r0, [r6, #24]
7000232c:	f853 2021 	ldr.w	r2, [r3, r1, lsl #2]
70002330:	f022 7280 	bic.w	r2, r2, #16777216	@ 0x1000000
70002334:	4302      	orrs	r2, r0
70002336:	f843 2021 	str.w	r2, [r3, r1, lsl #2]
7000233a:	7f31      	ldrb	r1, [r6, #28]
7000233c:	6930      	ldr	r0, [r6, #16]
7000233e:	1e4f      	subs	r7, r1, #1
70002340:	f853 2020 	ldr.w	r2, [r3, r0, lsl #2]
70002344:	4279      	negs	r1, r7
70002346:	f022 7200 	bic.w	r2, r2, #33554432	@ 0x2000000
7000234a:	4179      	adcs	r1, r7
7000234c:	ea42 6241 	orr.w	r2, r2, r1, lsl #25
70002350:	f843 2020 	str.w	r2, [r3, r0, lsl #2]
70002354:	4620      	mov	r0, r4
70002356:	f7ff feaf 	bl	700020b8 <LL_ADC_IsEnabled>
7000235a:	bb68      	cbnz	r0, 700023b8 <HAL_ADC_ConfigChannel+0x13c>
7000235c:	68f7      	ldr	r7, [r6, #12]
7000235e:	6833      	ldr	r3, [r6, #0]
70002360:	f007 0c18 	and.w	ip, r7, #24
70002364:	4aa2      	ldr	r2, [pc, #648]	@ (700025f0 <HAL_ADC_ConfigChannel+0x374>)
70002366:	f8d4 10b0 	ldr.w	r1, [r4, #176]	@ 0xb0
7000236a:	f3c3 0012 	ubfx	r0, r3, #0, #19
7000236e:	fa22 f20c 	lsr.w	r2, r2, ip
70002372:	ea21 0100 	bic.w	r1, r1, r0
70002376:	401a      	ands	r2, r3
70002378:	430a      	orrs	r2, r1
7000237a:	f8c4 20b0 	str.w	r2, [r4, #176]	@ 0xb0
7000237e:	4a9d      	ldr	r2, [pc, #628]	@ (700025f4 <HAL_ADC_ConfigChannel+0x378>)
70002380:	4297      	cmp	r7, r2
70002382:	d119      	bne.n	700023b8 <HAL_ADC_ConfigChannel+0x13c>
70002384:	2800      	cmp	r0, #0
70002386:	f040 8089 	bne.w	7000249c <HAL_ADC_ConfigChannel+0x220>
7000238a:	0e9a      	lsrs	r2, r3, #26
7000238c:	2001      	movs	r0, #1
7000238e:	3201      	adds	r2, #1
70002390:	f002 011f 	and.w	r1, r2, #31
70002394:	0692      	lsls	r2, r2, #26
70002396:	2909      	cmp	r1, #9
70002398:	fa01 f300 	lsl.w	r3, r1, r0
7000239c:	f200 80a4 	bhi.w	700024e8 <HAL_ADC_ConfigChannel+0x26c>
700023a0:	f002 42f8 	and.w	r2, r2, #2080374784	@ 0x7c000000
700023a4:	4088      	lsls	r0, r1
700023a6:	440b      	add	r3, r1
700023a8:	4302      	orrs	r2, r0
700023aa:	051b      	lsls	r3, r3, #20
700023ac:	ea43 0102 	orr.w	r1, r3, r2
700023b0:	4620      	mov	r0, r4
700023b2:	68b2      	ldr	r2, [r6, #8]
700023b4:	f7ff fe70 	bl	70002098 <LL_ADC_SetChannelSamplingTime>
700023b8:	6832      	ldr	r2, [r6, #0]
700023ba:	4b8f      	ldr	r3, [pc, #572]	@ (700025f8 <HAL_ADC_ConfigChannel+0x37c>)
700023bc:	421a      	tst	r2, r3
700023be:	f040 80b5 	bne.w	7000252c <HAL_ADC_ConfigChannel+0x2b0>
700023c2:	2000      	movs	r0, #0
700023c4:	2300      	movs	r3, #0
700023c6:	f885 3054 	strb.w	r3, [r5, #84]	@ 0x54
700023ca:	b003      	add	sp, #12
700023cc:	bdf0      	pop	{r4, r5, r6, r7, pc}
700023ce:	461a      	mov	r2, r3
700023d0:	4620      	mov	r0, r4
700023d2:	f7ff fe61 	bl	70002098 <LL_ADC_SetChannelSamplingTime>
700023d6:	6963      	ldr	r3, [r4, #20]
700023d8:	f023 4300 	bic.w	r3, r3, #2147483648	@ 0x80000000
700023dc:	e78a      	b.n	700022f4 <HAL_ADC_ConfigChannel+0x78>
700023de:	6e21      	ldr	r1, [r4, #96]	@ 0x60
700023e0:	f3c2 0012 	ubfx	r0, r2, #0, #19
700023e4:	6e21      	ldr	r1, [r4, #96]	@ 0x60
700023e6:	f3c1 6184 	ubfx	r1, r1, #26, #5
700023ea:	2800      	cmp	r0, #0
700023ec:	d139      	bne.n	70002462 <HAL_ADC_ConfigChannel+0x1e6>
700023ee:	f3c2 6284 	ubfx	r2, r2, #26, #5
700023f2:	4291      	cmp	r1, r2
700023f4:	d103      	bne.n	700023fe <HAL_ADC_ConfigChannel+0x182>
700023f6:	6e22      	ldr	r2, [r4, #96]	@ 0x60
700023f8:	f022 4200 	bic.w	r2, r2, #2147483648	@ 0x80000000
700023fc:	6622      	str	r2, [r4, #96]	@ 0x60
700023fe:	6e62      	ldr	r2, [r4, #100]	@ 0x64
70002400:	6832      	ldr	r2, [r6, #0]
70002402:	6e61      	ldr	r1, [r4, #100]	@ 0x64
70002404:	f3c2 0012 	ubfx	r0, r2, #0, #19
70002408:	f3c1 6184 	ubfx	r1, r1, #26, #5
7000240c:	bb80      	cbnz	r0, 70002470 <HAL_ADC_ConfigChannel+0x1f4>
7000240e:	f3c2 6284 	ubfx	r2, r2, #26, #5
70002412:	4291      	cmp	r1, r2
70002414:	d103      	bne.n	7000241e <HAL_ADC_ConfigChannel+0x1a2>
70002416:	6e62      	ldr	r2, [r4, #100]	@ 0x64
70002418:	f022 4200 	bic.w	r2, r2, #2147483648	@ 0x80000000
7000241c:	6662      	str	r2, [r4, #100]	@ 0x64
7000241e:	689a      	ldr	r2, [r3, #8]
70002420:	6832      	ldr	r2, [r6, #0]
70002422:	6899      	ldr	r1, [r3, #8]
70002424:	f3c2 0012 	ubfx	r0, r2, #0, #19
70002428:	f3c1 6184 	ubfx	r1, r1, #26, #5
7000242c:	bb38      	cbnz	r0, 7000247e <HAL_ADC_ConfigChannel+0x202>
7000242e:	f3c2 6284 	ubfx	r2, r2, #26, #5
70002432:	4291      	cmp	r1, r2
70002434:	d103      	bne.n	7000243e <HAL_ADC_ConfigChannel+0x1c2>
70002436:	689a      	ldr	r2, [r3, #8]
70002438:	f022 4200 	bic.w	r2, r2, #2147483648	@ 0x80000000
7000243c:	609a      	str	r2, [r3, #8]
7000243e:	68da      	ldr	r2, [r3, #12]
70002440:	6832      	ldr	r2, [r6, #0]
70002442:	68d9      	ldr	r1, [r3, #12]
70002444:	f3c2 0012 	ubfx	r0, r2, #0, #19
70002448:	f3c1 6184 	ubfx	r1, r1, #26, #5
7000244c:	b9f0      	cbnz	r0, 7000248c <HAL_ADC_ConfigChannel+0x210>
7000244e:	f3c2 6284 	ubfx	r2, r2, #26, #5
70002452:	4291      	cmp	r1, r2
70002454:	f47f af7e 	bne.w	70002354 <HAL_ADC_ConfigChannel+0xd8>
70002458:	68da      	ldr	r2, [r3, #12]
7000245a:	f022 4200 	bic.w	r2, r2, #2147483648	@ 0x80000000
7000245e:	60da      	str	r2, [r3, #12]
70002460:	e778      	b.n	70002354 <HAL_ADC_ConfigChannel+0xd8>
70002462:	fa92 f2a2 	rbit	r2, r2
70002466:	2a00      	cmp	r2, #0
70002468:	d0c9      	beq.n	700023fe <HAL_ADC_ConfigChannel+0x182>
7000246a:	fab2 f282 	clz	r2, r2
7000246e:	e7c0      	b.n	700023f2 <HAL_ADC_ConfigChannel+0x176>
70002470:	fa92 f2a2 	rbit	r2, r2
70002474:	2a00      	cmp	r2, #0
70002476:	d0d2      	beq.n	7000241e <HAL_ADC_ConfigChannel+0x1a2>
70002478:	fab2 f282 	clz	r2, r2
7000247c:	e7c9      	b.n	70002412 <HAL_ADC_ConfigChannel+0x196>
7000247e:	fa92 f2a2 	rbit	r2, r2
70002482:	2a00      	cmp	r2, #0
70002484:	d0db      	beq.n	7000243e <HAL_ADC_ConfigChannel+0x1c2>
70002486:	fab2 f282 	clz	r2, r2
7000248a:	e7d2      	b.n	70002432 <HAL_ADC_ConfigChannel+0x1b6>
7000248c:	fa92 f2a2 	rbit	r2, r2
70002490:	2a00      	cmp	r2, #0
70002492:	f43f af5f 	beq.w	70002354 <HAL_ADC_ConfigChannel+0xd8>
70002496:	fab2 f282 	clz	r2, r2
7000249a:	e7da      	b.n	70002452 <HAL_ADC_ConfigChannel+0x1d6>
7000249c:	fa93 f2a3 	rbit	r2, r3
700024a0:	b132      	cbz	r2, 700024b0 <HAL_ADC_ConfigChannel+0x234>
700024a2:	fab2 f182 	clz	r1, r2
700024a6:	1c48      	adds	r0, r1, #1
700024a8:	f000 001f 	and.w	r0, r0, #31
700024ac:	2809      	cmp	r0, #9
700024ae:	d825      	bhi.n	700024fc <HAL_ADC_ConfigChannel+0x280>
700024b0:	fa93 f1a3 	rbit	r1, r3
700024b4:	fa93 f0a3 	rbit	r0, r3
700024b8:	fab1 f181 	clz	r1, r1
700024bc:	fab0 f080 	clz	r0, r0
700024c0:	fa93 f3a3 	rbit	r3, r3
700024c4:	3101      	adds	r1, #1
700024c6:	3001      	adds	r0, #1
700024c8:	fab3 f383 	clz	r3, r3
700024cc:	2201      	movs	r2, #1
700024ce:	0689      	lsls	r1, r1, #26
700024d0:	f000 001f 	and.w	r0, r0, #31
700024d4:	3301      	adds	r3, #1
700024d6:	f001 41f8 	and.w	r1, r1, #2080374784	@ 0x7c000000
700024da:	4082      	lsls	r2, r0
700024dc:	f003 031f 	and.w	r3, r3, #31
700024e0:	430a      	orrs	r2, r1
700024e2:	eb03 0343 	add.w	r3, r3, r3, lsl #1
700024e6:	e760      	b.n	700023aa <HAL_ADC_ConfigChannel+0x12e>
700024e8:	4088      	lsls	r0, r1
700024ea:	f002 42f8 	and.w	r2, r2, #2080374784	@ 0x7c000000
700024ee:	4419      	add	r1, r3
700024f0:	4302      	orrs	r2, r0
700024f2:	391e      	subs	r1, #30
700024f4:	0509      	lsls	r1, r1, #20
700024f6:	f041 7300 	orr.w	r3, r1, #33554432	@ 0x2000000
700024fa:	e757      	b.n	700023ac <HAL_ADC_ConfigChannel+0x130>
700024fc:	1c48      	adds	r0, r1, #1
700024fe:	fab2 f182 	clz	r1, r2
70002502:	fa93 f3a3 	rbit	r3, r3
70002506:	fab3 f383 	clz	r3, r3
7000250a:	3101      	adds	r1, #1
7000250c:	0680      	lsls	r0, r0, #26
7000250e:	2201      	movs	r2, #1
70002510:	3301      	adds	r3, #1
70002512:	f001 011f 	and.w	r1, r1, #31
70002516:	f000 40f8 	and.w	r0, r0, #2080374784	@ 0x7c000000
7000251a:	f003 031f 	and.w	r3, r3, #31
7000251e:	408a      	lsls	r2, r1
70002520:	eb03 0343 	add.w	r3, r3, r3, lsl #1
70002524:	4302      	orrs	r2, r0
70002526:	f1a3 011e 	sub.w	r1, r3, #30
7000252a:	e7e3      	b.n	700024f4 <HAL_ADC_ConfigChannel+0x278>
7000252c:	4b33      	ldr	r3, [pc, #204]	@ (700025fc <HAL_ADC_ConfigChannel+0x380>)
7000252e:	4e34      	ldr	r6, [pc, #208]	@ (70002600 <HAL_ADC_ConfigChannel+0x384>)
70002530:	6899      	ldr	r1, [r3, #8]
70002532:	42b2      	cmp	r2, r6
70002534:	f001 70e0 	and.w	r0, r1, #29360128	@ 0x1c00000
70002538:	d11d      	bne.n	70002576 <HAL_ADC_ConfigChannel+0x2fa>
7000253a:	020e      	lsls	r6, r1, #8
7000253c:	f53f af41 	bmi.w	700023c2 <HAL_ADC_ConfigChannel+0x146>
70002540:	4a30      	ldr	r2, [pc, #192]	@ (70002604 <HAL_ADC_ConfigChannel+0x388>)
70002542:	4294      	cmp	r4, r2
70002544:	f47f af3d 	bne.w	700023c2 <HAL_ADC_ConfigChannel+0x146>
70002548:	689a      	ldr	r2, [r3, #8]
7000254a:	f022 72e0 	bic.w	r2, r2, #29360128	@ 0x1c00000
7000254e:	4302      	orrs	r2, r0
70002550:	f442 0200 	orr.w	r2, r2, #8388608	@ 0x800000
70002554:	609a      	str	r2, [r3, #8]
70002556:	4b2c      	ldr	r3, [pc, #176]	@ (70002608 <HAL_ADC_ConfigChannel+0x38c>)
70002558:	681a      	ldr	r2, [r3, #0]
7000255a:	4b2c      	ldr	r3, [pc, #176]	@ (7000260c <HAL_ADC_ConfigChannel+0x390>)
7000255c:	fbb2 f2f3 	udiv	r2, r2, r3
70002560:	230c      	movs	r3, #12
70002562:	fb02 3303 	mla	r3, r2, r3, r3
70002566:	9301      	str	r3, [sp, #4]
70002568:	9b01      	ldr	r3, [sp, #4]
7000256a:	2b00      	cmp	r3, #0
7000256c:	f43f af29 	beq.w	700023c2 <HAL_ADC_ConfigChannel+0x146>
70002570:	9b01      	ldr	r3, [sp, #4]
70002572:	3b01      	subs	r3, #1
70002574:	e7f7      	b.n	70002566 <HAL_ADC_ConfigChannel+0x2ea>
70002576:	4e26      	ldr	r6, [pc, #152]	@ (70002610 <HAL_ADC_ConfigChannel+0x394>)
70002578:	42b2      	cmp	r2, r6
7000257a:	d10e      	bne.n	7000259a <HAL_ADC_ConfigChannel+0x31e>
7000257c:	01c9      	lsls	r1, r1, #7
7000257e:	f53f af20 	bmi.w	700023c2 <HAL_ADC_ConfigChannel+0x146>
70002582:	4a24      	ldr	r2, [pc, #144]	@ (70002614 <HAL_ADC_ConfigChannel+0x398>)
70002584:	4294      	cmp	r4, r2
70002586:	f47f af1c 	bne.w	700023c2 <HAL_ADC_ConfigChannel+0x146>
7000258a:	689a      	ldr	r2, [r3, #8]
7000258c:	f022 72e0 	bic.w	r2, r2, #29360128	@ 0x1c00000
70002590:	4302      	orrs	r2, r0
70002592:	f042 7280 	orr.w	r2, r2, #16777216	@ 0x1000000
70002596:	609a      	str	r2, [r3, #8]
70002598:	e713      	b.n	700023c2 <HAL_ADC_ConfigChannel+0x146>
7000259a:	4e1f      	ldr	r6, [pc, #124]	@ (70002618 <HAL_ADC_ConfigChannel+0x39c>)
7000259c:	42b2      	cmp	r2, r6
7000259e:	d10d      	bne.n	700025bc <HAL_ADC_ConfigChannel+0x340>
700025a0:	024a      	lsls	r2, r1, #9
700025a2:	f53f af0e 	bmi.w	700023c2 <HAL_ADC_ConfigChannel+0x146>
700025a6:	4a17      	ldr	r2, [pc, #92]	@ (70002604 <HAL_ADC_ConfigChannel+0x388>)
700025a8:	4294      	cmp	r4, r2
700025aa:	f47f af0a 	bne.w	700023c2 <HAL_ADC_ConfigChannel+0x146>
700025ae:	689a      	ldr	r2, [r3, #8]
700025b0:	f022 72e0 	bic.w	r2, r2, #29360128	@ 0x1c00000
700025b4:	4302      	orrs	r2, r0
700025b6:	f442 0280 	orr.w	r2, r2, #4194304	@ 0x400000
700025ba:	e7ec      	b.n	70002596 <HAL_ADC_ConfigChannel+0x31a>
700025bc:	4b17      	ldr	r3, [pc, #92]	@ (7000261c <HAL_ADC_ConfigChannel+0x3a0>)
700025be:	429a      	cmp	r2, r3
700025c0:	f47f aeff 	bne.w	700023c2 <HAL_ADC_ConfigChannel+0x146>
700025c4:	4b13      	ldr	r3, [pc, #76]	@ (70002614 <HAL_ADC_ConfigChannel+0x398>)
700025c6:	429c      	cmp	r4, r3
700025c8:	f47f aefb 	bne.w	700023c2 <HAL_ADC_ConfigChannel+0x146>
700025cc:	f8d4 30c8 	ldr.w	r3, [r4, #200]	@ 0xc8
700025d0:	f043 0301 	orr.w	r3, r3, #1
700025d4:	f8c4 30c8 	str.w	r3, [r4, #200]	@ 0xc8
700025d8:	e6f3      	b.n	700023c2 <HAL_ADC_ConfigChannel+0x146>
700025da:	6daa      	ldr	r2, [r5, #88]	@ 0x58
700025dc:	4618      	mov	r0, r3
700025de:	f042 0220 	orr.w	r2, r2, #32
700025e2:	65aa      	str	r2, [r5, #88]	@ 0x58
700025e4:	e6ee      	b.n	700023c4 <HAL_ADC_ConfigChannel+0x148>
700025e6:	2002      	movs	r0, #2
700025e8:	e6ef      	b.n	700023ca <HAL_ADC_ConfigChannel+0x14e>
700025ea:	bf00      	nop
700025ec:	03fff000 	.word	0x03fff000
700025f0:	0007ffff 	.word	0x0007ffff
700025f4:	407f0000 	.word	0x407f0000
700025f8:	80080000 	.word	0x80080000
700025fc:	40022300 	.word	0x40022300
70002600:	c3210000 	.word	0xc3210000
70002604:	40022000 	.word	0x40022000
70002608:	240000ec 	.word	0x240000ec
7000260c:	00030d40 	.word	0x00030d40
70002610:	43290000 	.word	0x43290000
70002614:	40022100 	.word	0x40022100
70002618:	c7520000 	.word	0xc7520000
7000261c:	475a0000 	.word	0x475a0000

70002620 <ADC_Enable>:
70002620:	6802      	ldr	r2, [r0, #0]
70002622:	2300      	movs	r3, #0
70002624:	b573      	push	{r0, r1, r4, r5, r6, lr}
70002626:	4604      	mov	r4, r0
70002628:	4610      	mov	r0, r2
7000262a:	9301      	str	r3, [sp, #4]
7000262c:	f7ff fd44 	bl	700020b8 <LL_ADC_IsEnabled>
70002630:	b110      	cbz	r0, 70002638 <ADC_Enable+0x18>
70002632:	2000      	movs	r0, #0
70002634:	b002      	add	sp, #8
70002636:	bd70      	pop	{r4, r5, r6, pc}
70002638:	6891      	ldr	r1, [r2, #8]
7000263a:	4b21      	ldr	r3, [pc, #132]	@ (700026c0 <ADC_Enable+0xa0>)
7000263c:	4219      	tst	r1, r3
7000263e:	d009      	beq.n	70002654 <ADC_Enable+0x34>
70002640:	6da3      	ldr	r3, [r4, #88]	@ 0x58
70002642:	2001      	movs	r0, #1
70002644:	f043 0310 	orr.w	r3, r3, #16
70002648:	65a3      	str	r3, [r4, #88]	@ 0x58
7000264a:	6de3      	ldr	r3, [r4, #92]	@ 0x5c
7000264c:	f043 0301 	orr.w	r3, r3, #1
70002650:	65e3      	str	r3, [r4, #92]	@ 0x5c
70002652:	e7ef      	b.n	70002634 <ADC_Enable+0x14>
70002654:	6893      	ldr	r3, [r2, #8]
70002656:	f023 4300 	bic.w	r3, r3, #2147483648	@ 0x80000000
7000265a:	f023 033f 	bic.w	r3, r3, #63	@ 0x3f
7000265e:	f043 0301 	orr.w	r3, r3, #1
70002662:	6093      	str	r3, [r2, #8]
70002664:	4b17      	ldr	r3, [pc, #92]	@ (700026c4 <ADC_Enable+0xa4>)
70002666:	689b      	ldr	r3, [r3, #8]
70002668:	0219      	lsls	r1, r3, #8
7000266a:	d41a      	bmi.n	700026a2 <ADC_Enable+0x82>
7000266c:	f7ff fcee 	bl	7000204c <HAL_GetTick>
70002670:	4d15      	ldr	r5, [pc, #84]	@ (700026c8 <ADC_Enable+0xa8>)
70002672:	4606      	mov	r6, r0
70002674:	6822      	ldr	r2, [r4, #0]
70002676:	6813      	ldr	r3, [r2, #0]
70002678:	07db      	lsls	r3, r3, #31
7000267a:	d4da      	bmi.n	70002632 <ADC_Enable+0x12>
7000267c:	4610      	mov	r0, r2
7000267e:	f7ff fd1b 	bl	700020b8 <LL_ADC_IsEnabled>
70002682:	b920      	cbnz	r0, 7000268e <ADC_Enable+0x6e>
70002684:	6893      	ldr	r3, [r2, #8]
70002686:	402b      	ands	r3, r5
70002688:	f043 0301 	orr.w	r3, r3, #1
7000268c:	6093      	str	r3, [r2, #8]
7000268e:	f7ff fcdd 	bl	7000204c <HAL_GetTick>
70002692:	1b80      	subs	r0, r0, r6
70002694:	2802      	cmp	r0, #2
70002696:	d9ed      	bls.n	70002674 <ADC_Enable+0x54>
70002698:	6823      	ldr	r3, [r4, #0]
7000269a:	681b      	ldr	r3, [r3, #0]
7000269c:	07da      	lsls	r2, r3, #31
7000269e:	d4e9      	bmi.n	70002674 <ADC_Enable+0x54>
700026a0:	e7ce      	b.n	70002640 <ADC_Enable+0x20>
700026a2:	4b0a      	ldr	r3, [pc, #40]	@ (700026cc <ADC_Enable+0xac>)
700026a4:	681a      	ldr	r2, [r3, #0]
700026a6:	4b0a      	ldr	r3, [pc, #40]	@ (700026d0 <ADC_Enable+0xb0>)
700026a8:	fbb2 f2f3 	udiv	r2, r2, r3
700026ac:	230c      	movs	r3, #12
700026ae:	fb02 3303 	mla	r3, r2, r3, r3
700026b2:	9301      	str	r3, [sp, #4]
700026b4:	9b01      	ldr	r3, [sp, #4]
700026b6:	2b00      	cmp	r3, #0
700026b8:	d0d8      	beq.n	7000266c <ADC_Enable+0x4c>
700026ba:	9b01      	ldr	r3, [sp, #4]
700026bc:	3b01      	subs	r3, #1
700026be:	e7f8      	b.n	700026b2 <ADC_Enable+0x92>
700026c0:	8000003f 	.word	0x8000003f
700026c4:	40022300 	.word	0x40022300
700026c8:	7fffffc0 	.word	0x7fffffc0
700026cc:	240000ec 	.word	0x240000ec
700026d0:	00030d40 	.word	0x00030d40

700026d4 <HAL_ADC_Start>:
700026d4:	4b34      	ldr	r3, [pc, #208]	@ (700027a8 <HAL_ADC_Start+0xd4>)
700026d6:	b570      	push	{r4, r5, r6, lr}
700026d8:	4604      	mov	r4, r0
700026da:	6800      	ldr	r0, [r0, #0]
700026dc:	689e      	ldr	r6, [r3, #8]
700026de:	f7ff fcef 	bl	700020c0 <LL_ADC_REG_IsConversionOngoing>
700026e2:	4605      	mov	r5, r0
700026e4:	2800      	cmp	r0, #0
700026e6:	d15d      	bne.n	700027a4 <HAL_ADC_Start+0xd0>
700026e8:	f894 3054 	ldrb.w	r3, [r4, #84]	@ 0x54
700026ec:	2b01      	cmp	r3, #1
700026ee:	d059      	beq.n	700027a4 <HAL_ADC_Start+0xd0>
700026f0:	2301      	movs	r3, #1
700026f2:	4620      	mov	r0, r4
700026f4:	f884 3054 	strb.w	r3, [r4, #84]	@ 0x54
700026f8:	f7ff ff92 	bl	70002620 <ADC_Enable>
700026fc:	2800      	cmp	r0, #0
700026fe:	d14e      	bne.n	7000279e <HAL_ADC_Start+0xca>
70002700:	6da3      	ldr	r3, [r4, #88]	@ 0x58
70002702:	f006 011f 	and.w	r1, r6, #31
70002706:	4a29      	ldr	r2, [pc, #164]	@ (700027ac <HAL_ADC_Start+0xd8>)
70002708:	f423 6370 	bic.w	r3, r3, #3840	@ 0xf00
7000270c:	f023 0301 	bic.w	r3, r3, #1
70002710:	f443 7380 	orr.w	r3, r3, #256	@ 0x100
70002714:	65a3      	str	r3, [r4, #88]	@ 0x58
70002716:	6823      	ldr	r3, [r4, #0]
70002718:	4293      	cmp	r3, r2
7000271a:	d12e      	bne.n	7000277a <HAL_ADC_Start+0xa6>
7000271c:	bb79      	cbnz	r1, 7000277e <HAL_ADC_Start+0xaa>
7000271e:	f5a2 7280 	sub.w	r2, r2, #256	@ 0x100
70002722:	6da5      	ldr	r5, [r4, #88]	@ 0x58
70002724:	f425 1580 	bic.w	r5, r5, #1048576	@ 0x100000
70002728:	65a5      	str	r5, [r4, #88]	@ 0x58
7000272a:	6da5      	ldr	r5, [r4, #88]	@ 0x58
7000272c:	f415 5580 	ands.w	r5, r5, #4096	@ 0x1000
70002730:	d002      	beq.n	70002738 <HAL_ADC_Start+0x64>
70002732:	6de5      	ldr	r5, [r4, #92]	@ 0x5c
70002734:	f025 0506 	bic.w	r5, r5, #6
70002738:	65e5      	str	r5, [r4, #92]	@ 0x5c
7000273a:	251c      	movs	r5, #28
7000273c:	4293      	cmp	r3, r2
7000273e:	601d      	str	r5, [r3, #0]
70002740:	f04f 0500 	mov.w	r5, #0
70002744:	f884 5054 	strb.w	r5, [r4, #84]	@ 0x54
70002748:	d005      	beq.n	70002756 <HAL_ADC_Start+0x82>
7000274a:	f240 2521 	movw	r5, #545	@ 0x221
7000274e:	fa25 f101 	lsr.w	r1, r5, r1
70002752:	07c9      	lsls	r1, r1, #31
70002754:	d515      	bpl.n	70002782 <HAL_ADC_Start+0xae>
70002756:	68da      	ldr	r2, [r3, #12]
70002758:	0192      	lsls	r2, r2, #6
7000275a:	d505      	bpl.n	70002768 <HAL_ADC_Start+0x94>
7000275c:	6da2      	ldr	r2, [r4, #88]	@ 0x58
7000275e:	f422 5240 	bic.w	r2, r2, #12288	@ 0x3000
70002762:	f442 5280 	orr.w	r2, r2, #4096	@ 0x1000
70002766:	65a2      	str	r2, [r4, #88]	@ 0x58
70002768:	689a      	ldr	r2, [r3, #8]
7000276a:	f022 4200 	bic.w	r2, r2, #2147483648	@ 0x80000000
7000276e:	f022 023f 	bic.w	r2, r2, #63	@ 0x3f
70002772:	f042 0204 	orr.w	r2, r2, #4
70002776:	609a      	str	r2, [r3, #8]
70002778:	bd70      	pop	{r4, r5, r6, pc}
7000277a:	461a      	mov	r2, r3
7000277c:	e7d1      	b.n	70002722 <HAL_ADC_Start+0x4e>
7000277e:	4a0c      	ldr	r2, [pc, #48]	@ (700027b0 <HAL_ADC_Start+0xdc>)
70002780:	e7d3      	b.n	7000272a <HAL_ADC_Start+0x56>
70002782:	6da3      	ldr	r3, [r4, #88]	@ 0x58
70002784:	f443 1380 	orr.w	r3, r3, #1048576	@ 0x100000
70002788:	65a3      	str	r3, [r4, #88]	@ 0x58
7000278a:	68d3      	ldr	r3, [r2, #12]
7000278c:	019b      	lsls	r3, r3, #6
7000278e:	d5f3      	bpl.n	70002778 <HAL_ADC_Start+0xa4>
70002790:	6da3      	ldr	r3, [r4, #88]	@ 0x58
70002792:	f423 5340 	bic.w	r3, r3, #12288	@ 0x3000
70002796:	f443 5380 	orr.w	r3, r3, #4096	@ 0x1000
7000279a:	65a3      	str	r3, [r4, #88]	@ 0x58
7000279c:	e7ec      	b.n	70002778 <HAL_ADC_Start+0xa4>
7000279e:	f884 5054 	strb.w	r5, [r4, #84]	@ 0x54
700027a2:	e7e9      	b.n	70002778 <HAL_ADC_Start+0xa4>
700027a4:	2002      	movs	r0, #2
700027a6:	e7e7      	b.n	70002778 <HAL_ADC_Start+0xa4>
700027a8:	40022300 	.word	0x40022300
700027ac:	40022100 	.word	0x40022100
700027b0:	40022000 	.word	0x40022000

700027b4 <ADC_Disable>:
700027b4:	6802      	ldr	r2, [r0, #0]
700027b6:	b538      	push	{r3, r4, r5, lr}
700027b8:	4604      	mov	r4, r0
700027ba:	4610      	mov	r0, r2
700027bc:	6893      	ldr	r3, [r2, #8]
700027be:	f7ff fc7b 	bl	700020b8 <LL_ADC_IsEnabled>
700027c2:	b908      	cbnz	r0, 700027c8 <ADC_Disable+0x14>
700027c4:	2000      	movs	r0, #0
700027c6:	bd38      	pop	{r3, r4, r5, pc}
700027c8:	0799      	lsls	r1, r3, #30
700027ca:	d4fb      	bmi.n	700027c4 <ADC_Disable+0x10>
700027cc:	6893      	ldr	r3, [r2, #8]
700027ce:	f003 030d 	and.w	r3, r3, #13
700027d2:	2b01      	cmp	r3, #1
700027d4:	d119      	bne.n	7000280a <ADC_Disable+0x56>
700027d6:	6893      	ldr	r3, [r2, #8]
700027d8:	f023 4300 	bic.w	r3, r3, #2147483648	@ 0x80000000
700027dc:	f023 033f 	bic.w	r3, r3, #63	@ 0x3f
700027e0:	f043 0302 	orr.w	r3, r3, #2
700027e4:	6093      	str	r3, [r2, #8]
700027e6:	2303      	movs	r3, #3
700027e8:	6013      	str	r3, [r2, #0]
700027ea:	f7ff fc2f 	bl	7000204c <HAL_GetTick>
700027ee:	4605      	mov	r5, r0
700027f0:	6823      	ldr	r3, [r4, #0]
700027f2:	689b      	ldr	r3, [r3, #8]
700027f4:	07db      	lsls	r3, r3, #31
700027f6:	d5e5      	bpl.n	700027c4 <ADC_Disable+0x10>
700027f8:	f7ff fc28 	bl	7000204c <HAL_GetTick>
700027fc:	1b40      	subs	r0, r0, r5
700027fe:	2802      	cmp	r0, #2
70002800:	d9f6      	bls.n	700027f0 <ADC_Disable+0x3c>
70002802:	6823      	ldr	r3, [r4, #0]
70002804:	689b      	ldr	r3, [r3, #8]
70002806:	07da      	lsls	r2, r3, #31
70002808:	d5f2      	bpl.n	700027f0 <ADC_Disable+0x3c>
7000280a:	6da3      	ldr	r3, [r4, #88]	@ 0x58
7000280c:	2001      	movs	r0, #1
7000280e:	f043 0310 	orr.w	r3, r3, #16
70002812:	65a3      	str	r3, [r4, #88]	@ 0x58
70002814:	6de3      	ldr	r3, [r4, #92]	@ 0x5c
70002816:	f043 0301 	orr.w	r3, r3, #1
7000281a:	65e3      	str	r3, [r4, #92]	@ 0x5c
7000281c:	e7d3      	b.n	700027c6 <ADC_Disable+0x12>
	...

70002820 <HAL_ADCEx_Calibration_Start>:
70002820:	2300      	movs	r3, #0
70002822:	b537      	push	{r0, r1, r2, r4, r5, lr}
70002824:	9301      	str	r3, [sp, #4]
70002826:	4604      	mov	r4, r0
70002828:	f890 3054 	ldrb.w	r3, [r0, #84]	@ 0x54
7000282c:	460d      	mov	r5, r1
7000282e:	2b01      	cmp	r3, #1
70002830:	d03d      	beq.n	700028ae <HAL_ADCEx_Calibration_Start+0x8e>
70002832:	2301      	movs	r3, #1
70002834:	f880 3054 	strb.w	r3, [r0, #84]	@ 0x54
70002838:	f7ff ffbc 	bl	700027b4 <ADC_Disable>
7000283c:	6da3      	ldr	r3, [r4, #88]	@ 0x58
7000283e:	2800      	cmp	r0, #0
70002840:	d132      	bne.n	700028a8 <HAL_ADCEx_Calibration_Start+0x88>
70002842:	f423 5388 	bic.w	r3, r3, #4352	@ 0x1100
70002846:	6822      	ldr	r2, [r4, #0]
70002848:	f005 4580 	and.w	r5, r5, #1073741824	@ 0x40000000
7000284c:	f023 0302 	bic.w	r3, r3, #2
70002850:	f043 0302 	orr.w	r3, r3, #2
70002854:	65a3      	str	r3, [r4, #88]	@ 0x58
70002856:	6893      	ldr	r3, [r2, #8]
70002858:	f023 4340 	bic.w	r3, r3, #3221225472	@ 0xc0000000
7000285c:	f023 033f 	bic.w	r3, r3, #63	@ 0x3f
70002860:	432b      	orrs	r3, r5
70002862:	f043 4300 	orr.w	r3, r3, #2147483648	@ 0x80000000
70002866:	6093      	str	r3, [r2, #8]
70002868:	6893      	ldr	r3, [r2, #8]
7000286a:	2b00      	cmp	r3, #0
7000286c:	da12      	bge.n	70002894 <HAL_ADCEx_Calibration_Start+0x74>
7000286e:	9b01      	ldr	r3, [sp, #4]
70002870:	3301      	adds	r3, #1
70002872:	9301      	str	r3, [sp, #4]
70002874:	9901      	ldr	r1, [sp, #4]
70002876:	4b0f      	ldr	r3, [pc, #60]	@ (700028b4 <HAL_ADCEx_Calibration_Start+0x94>)
70002878:	4299      	cmp	r1, r3
7000287a:	d3f5      	bcc.n	70002868 <HAL_ADCEx_Calibration_Start+0x48>
7000287c:	6da3      	ldr	r3, [r4, #88]	@ 0x58
7000287e:	2001      	movs	r0, #1
70002880:	f023 0312 	bic.w	r3, r3, #18
70002884:	f043 0310 	orr.w	r3, r3, #16
70002888:	65a3      	str	r3, [r4, #88]	@ 0x58
7000288a:	2300      	movs	r3, #0
7000288c:	f884 3054 	strb.w	r3, [r4, #84]	@ 0x54
70002890:	b003      	add	sp, #12
70002892:	bd30      	pop	{r4, r5, pc}
70002894:	6da3      	ldr	r3, [r4, #88]	@ 0x58
70002896:	f023 0303 	bic.w	r3, r3, #3
7000289a:	f043 0301 	orr.w	r3, r3, #1
7000289e:	65a3      	str	r3, [r4, #88]	@ 0x58
700028a0:	2300      	movs	r3, #0
700028a2:	f884 3054 	strb.w	r3, [r4, #84]	@ 0x54
700028a6:	e7f3      	b.n	70002890 <HAL_ADCEx_Calibration_Start+0x70>
700028a8:	f043 0310 	orr.w	r3, r3, #16
700028ac:	e7f7      	b.n	7000289e <HAL_ADCEx_Calibration_Start+0x7e>
700028ae:	2002      	movs	r0, #2
700028b0:	e7ee      	b.n	70002890 <HAL_ADCEx_Calibration_Start+0x70>
700028b2:	bf00      	nop
700028b4:	25c3f800 	.word	0x25c3f800

700028b8 <HAL_NVIC_SetPriorityGrouping>:
700028b8:	4907      	ldr	r1, [pc, #28]	@ (700028d8 <HAL_NVIC_SetPriorityGrouping+0x20>)
700028ba:	0203      	lsls	r3, r0, #8
700028bc:	68ca      	ldr	r2, [r1, #12]
700028be:	f403 63e0 	and.w	r3, r3, #1792	@ 0x700
700028c2:	f422 62e0 	bic.w	r2, r2, #1792	@ 0x700
700028c6:	0412      	lsls	r2, r2, #16
700028c8:	0c12      	lsrs	r2, r2, #16
700028ca:	4313      	orrs	r3, r2
700028cc:	f043 63bf 	orr.w	r3, r3, #100139008	@ 0x5f80000
700028d0:	f443 3300 	orr.w	r3, r3, #131072	@ 0x20000
700028d4:	60cb      	str	r3, [r1, #12]
700028d6:	4770      	bx	lr
700028d8:	e000ed00 	.word	0xe000ed00

700028dc <HAL_NVIC_SetPriority>:
700028dc:	4b16      	ldr	r3, [pc, #88]	@ (70002938 <HAL_NVIC_SetPriority+0x5c>)
700028de:	b530      	push	{r4, r5, lr}
700028e0:	68dc      	ldr	r4, [r3, #12]
700028e2:	f3c4 2402 	ubfx	r4, r4, #8, #3
700028e6:	f1c4 0307 	rsb	r3, r4, #7
700028ea:	1d25      	adds	r5, r4, #4
700028ec:	2b04      	cmp	r3, #4
700028ee:	bf28      	it	cs
700028f0:	2304      	movcs	r3, #4
700028f2:	2d06      	cmp	r5, #6
700028f4:	f04f 35ff 	mov.w	r5, #4294967295	@ 0xffffffff
700028f8:	bf8c      	ite	hi
700028fa:	3c03      	subhi	r4, #3
700028fc:	2400      	movls	r4, #0
700028fe:	fa05 f303 	lsl.w	r3, r5, r3
70002902:	2800      	cmp	r0, #0
70002904:	fa05 f504 	lsl.w	r5, r5, r4
70002908:	ea21 0303 	bic.w	r3, r1, r3
7000290c:	ea22 0205 	bic.w	r2, r2, r5
70002910:	fa03 f304 	lsl.w	r3, r3, r4
70002914:	ea43 0302 	orr.w	r3, r3, r2
70002918:	ea4f 1303 	mov.w	r3, r3, lsl #4
7000291c:	b2db      	uxtb	r3, r3
7000291e:	db06      	blt.n	7000292e <HAL_NVIC_SetPriority+0x52>
70002920:	f100 4060 	add.w	r0, r0, #3758096384	@ 0xe0000000
70002924:	f500 4061 	add.w	r0, r0, #57600	@ 0xe100
70002928:	f880 3300 	strb.w	r3, [r0, #768]	@ 0x300
7000292c:	bd30      	pop	{r4, r5, pc}
7000292e:	f000 000f 	and.w	r0, r0, #15
70002932:	4a02      	ldr	r2, [pc, #8]	@ (7000293c <HAL_NVIC_SetPriority+0x60>)
70002934:	5413      	strb	r3, [r2, r0]
70002936:	e7f9      	b.n	7000292c <HAL_NVIC_SetPriority+0x50>
70002938:	e000ed00 	.word	0xe000ed00
7000293c:	e000ed14 	.word	0xe000ed14

70002940 <HAL_NVIC_EnableIRQ>:
70002940:	2800      	cmp	r0, #0
70002942:	db07      	blt.n	70002954 <HAL_NVIC_EnableIRQ+0x14>
70002944:	2301      	movs	r3, #1
70002946:	0941      	lsrs	r1, r0, #5
70002948:	f000 001f 	and.w	r0, r0, #31
7000294c:	4a02      	ldr	r2, [pc, #8]	@ (70002958 <HAL_NVIC_EnableIRQ+0x18>)
7000294e:	4083      	lsls	r3, r0
70002950:	f842 3021 	str.w	r3, [r2, r1, lsl #2]
70002954:	4770      	bx	lr
70002956:	bf00      	nop
70002958:	e000e100 	.word	0xe000e100

7000295c <HAL_SYSTICK_Config>:
7000295c:	3801      	subs	r0, #1
7000295e:	f1b0 7f80 	cmp.w	r0, #16777216	@ 0x1000000
70002962:	d20b      	bcs.n	7000297c <HAL_SYSTICK_Config+0x20>
70002964:	f04f 23e0 	mov.w	r3, #3758153728	@ 0xe000e000
70002968:	4a05      	ldr	r2, [pc, #20]	@ (70002980 <HAL_SYSTICK_Config+0x24>)
7000296a:	21f0      	movs	r1, #240	@ 0xf0
7000296c:	6158      	str	r0, [r3, #20]
7000296e:	2000      	movs	r0, #0
70002970:	f882 1023 	strb.w	r1, [r2, #35]	@ 0x23
70002974:	2207      	movs	r2, #7
70002976:	6198      	str	r0, [r3, #24]
70002978:	611a      	str	r2, [r3, #16]
7000297a:	4770      	bx	lr
7000297c:	2001      	movs	r0, #1
7000297e:	4770      	bx	lr
70002980:	e000ed00 	.word	0xe000ed00

70002984 <HAL_GPIO_Init>:
70002984:	e92d 4ff7 	stmdb	sp!, {r0, r1, r2, r4, r5, r6, r7, r8, r9, sl, fp, lr}
70002988:	4a4f      	ldr	r2, [pc, #316]	@ (70002ac8 <HAL_GPIO_Init+0x144>)
7000298a:	2300      	movs	r3, #0
7000298c:	f04f 0a0f 	mov.w	sl, #15
70002990:	f04f 44b0 	mov.w	r4, #1476395008	@ 0x58000000
70002994:	ea02 2290 	and.w	r2, r2, r0, lsr #10
70002998:	9201      	str	r2, [sp, #4]
7000299a:	680a      	ldr	r2, [r1, #0]
7000299c:	fa32 f503 	lsrs.w	r5, r2, r3
700029a0:	d102      	bne.n	700029a8 <HAL_GPIO_Init+0x24>
700029a2:	b003      	add	sp, #12
700029a4:	e8bd 8ff0 	ldmia.w	sp!, {r4, r5, r6, r7, r8, r9, sl, fp, pc}
700029a8:	2501      	movs	r5, #1
700029aa:	fa05 f903 	lsl.w	r9, r5, r3
700029ae:	ea19 0202 	ands.w	r2, r9, r2
700029b2:	f000 8087 	beq.w	70002ac4 <HAL_GPIO_Init+0x140>
700029b6:	684e      	ldr	r6, [r1, #4]
700029b8:	2703      	movs	r7, #3
700029ba:	ea4f 0843 	mov.w	r8, r3, lsl #1
700029be:	f8d1 c008 	ldr.w	ip, [r1, #8]
700029c2:	f006 0503 	and.w	r5, r6, #3
700029c6:	fa07 fe08 	lsl.w	lr, r7, r8
700029ca:	1e6f      	subs	r7, r5, #1
700029cc:	ea6f 0e0e 	mvn.w	lr, lr
700029d0:	2f01      	cmp	r7, #1
700029d2:	d831      	bhi.n	70002a38 <HAL_GPIO_Init+0xb4>
700029d4:	6887      	ldr	r7, [r0, #8]
700029d6:	ea07 0b0e 	and.w	fp, r7, lr
700029da:	68cf      	ldr	r7, [r1, #12]
700029dc:	fa07 f708 	lsl.w	r7, r7, r8
700029e0:	ea47 070b 	orr.w	r7, r7, fp
700029e4:	6087      	str	r7, [r0, #8]
700029e6:	6847      	ldr	r7, [r0, #4]
700029e8:	ea27 0909 	bic.w	r9, r7, r9
700029ec:	f3c6 1700 	ubfx	r7, r6, #4, #1
700029f0:	409f      	lsls	r7, r3
700029f2:	ea47 0709 	orr.w	r7, r7, r9
700029f6:	6047      	str	r7, [r0, #4]
700029f8:	68c7      	ldr	r7, [r0, #12]
700029fa:	fa0c fc08 	lsl.w	ip, ip, r8
700029fe:	2d02      	cmp	r5, #2
70002a00:	ea07 070e 	and.w	r7, r7, lr
70002a04:	ea4c 0707 	orr.w	r7, ip, r7
70002a08:	60c7      	str	r7, [r0, #12]
70002a0a:	d11a      	bne.n	70002a42 <HAL_GPIO_Init+0xbe>
70002a0c:	ea4f 0cd3 	mov.w	ip, r3, lsr #3
70002a10:	f003 0907 	and.w	r9, r3, #7
70002a14:	eb00 0c8c 	add.w	ip, r0, ip, lsl #2
70002a18:	ea4f 0989 	mov.w	r9, r9, lsl #2
70002a1c:	f8dc 7020 	ldr.w	r7, [ip, #32]
70002a20:	fa0a fb09 	lsl.w	fp, sl, r9
70002a24:	ea27 0b0b 	bic.w	fp, r7, fp
70002a28:	690f      	ldr	r7, [r1, #16]
70002a2a:	fa07 f709 	lsl.w	r7, r7, r9
70002a2e:	ea47 070b 	orr.w	r7, r7, fp
70002a32:	f8cc 7020 	str.w	r7, [ip, #32]
70002a36:	e004      	b.n	70002a42 <HAL_GPIO_Init+0xbe>
70002a38:	2d03      	cmp	r5, #3
70002a3a:	d1dd      	bne.n	700029f8 <HAL_GPIO_Init+0x74>
70002a3c:	f1bc 0f01 	cmp.w	ip, #1
70002a40:	d1da      	bne.n	700029f8 <HAL_GPIO_Init+0x74>
70002a42:	6807      	ldr	r7, [r0, #0]
70002a44:	fa05 f508 	lsl.w	r5, r5, r8
70002a48:	f416 3f40 	tst.w	r6, #196608	@ 0x30000
70002a4c:	ea07 070e 	and.w	r7, r7, lr
70002a50:	ea45 0507 	orr.w	r5, r5, r7
70002a54:	6005      	str	r5, [r0, #0]
70002a56:	d035      	beq.n	70002ac4 <HAL_GPIO_Init+0x140>
70002a58:	f023 0703 	bic.w	r7, r3, #3
70002a5c:	f003 0503 	and.w	r5, r3, #3
70002a60:	f416 1f80 	tst.w	r6, #1048576	@ 0x100000
70002a64:	f107 48b0 	add.w	r8, r7, #1476395008	@ 0x58000000
70002a68:	ea4f 0585 	mov.w	r5, r5, lsl #2
70002a6c:	9f01      	ldr	r7, [sp, #4]
70002a6e:	f8d8 c530 	ldr.w	ip, [r8, #1328]	@ 0x530
70002a72:	fa0a fe05 	lsl.w	lr, sl, r5
70002a76:	fa07 f505 	lsl.w	r5, r7, r5
70002a7a:	ea6f 0702 	mvn.w	r7, r2
70002a7e:	ea2c 0c0e 	bic.w	ip, ip, lr
70002a82:	ea45 050c 	orr.w	r5, r5, ip
70002a86:	f8c8 5530 	str.w	r5, [r8, #1328]	@ 0x530
70002a8a:	6825      	ldr	r5, [r4, #0]
70002a8c:	bf0c      	ite	eq
70002a8e:	403d      	andeq	r5, r7
70002a90:	4315      	orrne	r5, r2
70002a92:	f416 1f00 	tst.w	r6, #2097152	@ 0x200000
70002a96:	6025      	str	r5, [r4, #0]
70002a98:	6865      	ldr	r5, [r4, #4]
70002a9a:	bf0c      	ite	eq
70002a9c:	403d      	andeq	r5, r7
70002a9e:	4315      	orrne	r5, r2
70002aa0:	f416 3f00 	tst.w	r6, #131072	@ 0x20000
70002aa4:	6065      	str	r5, [r4, #4]
70002aa6:	f8d4 5084 	ldr.w	r5, [r4, #132]	@ 0x84
70002aaa:	bf0c      	ite	eq
70002aac:	403d      	andeq	r5, r7
70002aae:	4315      	orrne	r5, r2
70002ab0:	03f6      	lsls	r6, r6, #15
70002ab2:	f8c4 5084 	str.w	r5, [r4, #132]	@ 0x84
70002ab6:	f8d4 5080 	ldr.w	r5, [r4, #128]	@ 0x80
70002aba:	bf54      	ite	pl
70002abc:	403d      	andpl	r5, r7
70002abe:	4315      	orrmi	r5, r2
70002ac0:	f8c4 5080 	str.w	r5, [r4, #128]	@ 0x80
70002ac4:	3301      	adds	r3, #1
70002ac6:	e768      	b.n	7000299a <HAL_GPIO_Init+0x16>
70002ac8:	0029ff7f 	.word	0x0029ff7f

70002acc <HAL_GPIO_DeInit>:
70002acc:	e92d 4ff0 	stmdb	sp!, {r4, r5, r6, r7, r8, r9, sl, fp, lr}
70002ad0:	4f31      	ldr	r7, [pc, #196]	@ (70002b98 <HAL_GPIO_DeInit+0xcc>)
70002ad2:	2300      	movs	r3, #0
70002ad4:	f04f 0801 	mov.w	r8, #1
70002ad8:	f04f 0e0f 	mov.w	lr, #15
70002adc:	ea07 2790 	and.w	r7, r7, r0, lsr #10
70002ae0:	f04f 0903 	mov.w	r9, #3
70002ae4:	f04f 42b0 	mov.w	r2, #1476395008	@ 0x58000000
70002ae8:	fa31 f403 	lsrs.w	r4, r1, r3
70002aec:	d101      	bne.n	70002af2 <HAL_GPIO_DeInit+0x26>
70002aee:	e8bd 8ff0 	ldmia.w	sp!, {r4, r5, r6, r7, r8, r9, sl, fp, pc}
70002af2:	fa08 fc03 	lsl.w	ip, r8, r3
70002af6:	ea1c 0601 	ands.w	r6, ip, r1
70002afa:	d04b      	beq.n	70002b94 <HAL_GPIO_DeInit+0xc8>
70002afc:	f023 0403 	bic.w	r4, r3, #3
70002b00:	f003 0503 	and.w	r5, r3, #3
70002b04:	f104 44b0 	add.w	r4, r4, #1476395008	@ 0x58000000
70002b08:	00ad      	lsls	r5, r5, #2
70002b0a:	f8d4 a530 	ldr.w	sl, [r4, #1328]	@ 0x530
70002b0e:	fa0e fb05 	lsl.w	fp, lr, r5
70002b12:	fa07 f505 	lsl.w	r5, r7, r5
70002b16:	f504 6480 	add.w	r4, r4, #1024	@ 0x400
70002b1a:	ea0b 0a0a 	and.w	sl, fp, sl
70002b1e:	4555      	cmp	r5, sl
70002b20:	d119      	bne.n	70002b56 <HAL_GPIO_DeInit+0x8a>
70002b22:	f8d2 5080 	ldr.w	r5, [r2, #128]	@ 0x80
70002b26:	ea25 0506 	bic.w	r5, r5, r6
70002b2a:	f8c2 5080 	str.w	r5, [r2, #128]	@ 0x80
70002b2e:	f8d2 5084 	ldr.w	r5, [r2, #132]	@ 0x84
70002b32:	ea25 0506 	bic.w	r5, r5, r6
70002b36:	f8c2 5084 	str.w	r5, [r2, #132]	@ 0x84
70002b3a:	6855      	ldr	r5, [r2, #4]
70002b3c:	ea25 0506 	bic.w	r5, r5, r6
70002b40:	6055      	str	r5, [r2, #4]
70002b42:	6815      	ldr	r5, [r2, #0]
70002b44:	ea25 0506 	bic.w	r5, r5, r6
70002b48:	6015      	str	r5, [r2, #0]
70002b4a:	f8d4 5130 	ldr.w	r5, [r4, #304]	@ 0x130
70002b4e:	ea25 050b 	bic.w	r5, r5, fp
70002b52:	f8c4 5130 	str.w	r5, [r4, #304]	@ 0x130
70002b56:	005c      	lsls	r4, r3, #1
70002b58:	6805      	ldr	r5, [r0, #0]
70002b5a:	08de      	lsrs	r6, r3, #3
70002b5c:	fa09 f404 	lsl.w	r4, r9, r4
70002b60:	eb00 0686 	add.w	r6, r0, r6, lsl #2
70002b64:	4325      	orrs	r5, r4
70002b66:	6005      	str	r5, [r0, #0]
70002b68:	f003 0507 	and.w	r5, r3, #7
70002b6c:	f8d6 a020 	ldr.w	sl, [r6, #32]
70002b70:	00ad      	lsls	r5, r5, #2
70002b72:	fa0e f505 	lsl.w	r5, lr, r5
70002b76:	ea2a 0505 	bic.w	r5, sl, r5
70002b7a:	6235      	str	r5, [r6, #32]
70002b7c:	6885      	ldr	r5, [r0, #8]
70002b7e:	ea25 0504 	bic.w	r5, r5, r4
70002b82:	6085      	str	r5, [r0, #8]
70002b84:	6845      	ldr	r5, [r0, #4]
70002b86:	ea25 050c 	bic.w	r5, r5, ip
70002b8a:	6045      	str	r5, [r0, #4]
70002b8c:	68c5      	ldr	r5, [r0, #12]
70002b8e:	ea25 0404 	bic.w	r4, r5, r4
70002b92:	60c4      	str	r4, [r0, #12]
70002b94:	3301      	adds	r3, #1
70002b96:	e7a7      	b.n	70002ae8 <HAL_GPIO_DeInit+0x1c>
70002b98:	0029ff7f 	.word	0x0029ff7f

70002b9c <HAL_GPIO_ReadPin>:
70002b9c:	6900      	ldr	r0, [r0, #16]
70002b9e:	4008      	ands	r0, r1
70002ba0:	3800      	subs	r0, #0
70002ba2:	bf18      	it	ne
70002ba4:	2001      	movne	r0, #1
70002ba6:	4770      	bx	lr

70002ba8 <I2C_Flush_TXDR>:
70002ba8:	6803      	ldr	r3, [r0, #0]
70002baa:	699a      	ldr	r2, [r3, #24]
70002bac:	0791      	lsls	r1, r2, #30
70002bae:	d501      	bpl.n	70002bb4 <I2C_Flush_TXDR+0xc>
70002bb0:	2200      	movs	r2, #0
70002bb2:	629a      	str	r2, [r3, #40]	@ 0x28
70002bb4:	699a      	ldr	r2, [r3, #24]
70002bb6:	07d2      	lsls	r2, r2, #31
70002bb8:	d403      	bmi.n	70002bc2 <I2C_Flush_TXDR+0x1a>
70002bba:	699a      	ldr	r2, [r3, #24]
70002bbc:	f042 0201 	orr.w	r2, r2, #1
70002bc0:	619a      	str	r2, [r3, #24]
70002bc2:	4770      	bx	lr

70002bc4 <I2C_TransferConfig>:
70002bc4:	b530      	push	{r4, r5, lr}
70002bc6:	9d03      	ldr	r5, [sp, #12]
70002bc8:	f3c1 0109 	ubfx	r1, r1, #0, #10
70002bcc:	6804      	ldr	r4, [r0, #0]
70002bce:	432b      	orrs	r3, r5
70002bd0:	6860      	ldr	r0, [r4, #4]
70002bd2:	ea43 4302 	orr.w	r3, r3, r2, lsl #16
70002bd6:	4a05      	ldr	r2, [pc, #20]	@ (70002bec <I2C_TransferConfig+0x28>)
70002bd8:	430b      	orrs	r3, r1
70002bda:	ea42 5255 	orr.w	r2, r2, r5, lsr #21
70002bde:	f023 4300 	bic.w	r3, r3, #2147483648	@ 0x80000000
70002be2:	ea20 0002 	bic.w	r0, r0, r2
70002be6:	4303      	orrs	r3, r0
70002be8:	6063      	str	r3, [r4, #4]
70002bea:	bd30      	pop	{r4, r5, pc}
70002bec:	03ff63ff 	.word	0x03ff63ff

70002bf0 <I2C_IsErrorOccurred>:
70002bf0:	e92d 43f8 	stmdb	sp!, {r3, r4, r5, r6, r7, r8, r9, lr}
70002bf4:	6805      	ldr	r5, [r0, #0]
70002bf6:	4606      	mov	r6, r0
70002bf8:	4688      	mov	r8, r1
70002bfa:	4617      	mov	r7, r2
70002bfc:	69ac      	ldr	r4, [r5, #24]
70002bfe:	f014 0410 	ands.w	r4, r4, #16
70002c02:	d070      	beq.n	70002ce6 <I2C_IsErrorOccurred+0xf6>
70002c04:	2400      	movs	r4, #0
70002c06:	2310      	movs	r3, #16
70002c08:	46a1      	mov	r9, r4
70002c0a:	61eb      	str	r3, [r5, #28]
70002c0c:	6835      	ldr	r5, [r6, #0]
70002c0e:	69ab      	ldr	r3, [r5, #24]
70002c10:	0698      	lsls	r0, r3, #26
70002c12:	d462      	bmi.n	70002cda <I2C_IsErrorOccurred+0xea>
70002c14:	f1b9 0f00 	cmp.w	r9, #0
70002c18:	d034      	beq.n	70002c84 <I2C_IsErrorOccurred+0x94>
70002c1a:	f044 0404 	orr.w	r4, r4, #4
70002c1e:	2001      	movs	r0, #1
70002c20:	69ab      	ldr	r3, [r5, #24]
70002c22:	05d9      	lsls	r1, r3, #23
70002c24:	d505      	bpl.n	70002c32 <I2C_IsErrorOccurred+0x42>
70002c26:	f44f 7280 	mov.w	r2, #256	@ 0x100
70002c2a:	f044 0401 	orr.w	r4, r4, #1
70002c2e:	2001      	movs	r0, #1
70002c30:	61ea      	str	r2, [r5, #28]
70002c32:	055a      	lsls	r2, r3, #21
70002c34:	d505      	bpl.n	70002c42 <I2C_IsErrorOccurred+0x52>
70002c36:	f44f 6280 	mov.w	r2, #1024	@ 0x400
70002c3a:	f044 0408 	orr.w	r4, r4, #8
70002c3e:	2001      	movs	r0, #1
70002c40:	61ea      	str	r2, [r5, #28]
70002c42:	059b      	lsls	r3, r3, #22
70002c44:	d551      	bpl.n	70002cea <I2C_IsErrorOccurred+0xfa>
70002c46:	f44f 7300 	mov.w	r3, #512	@ 0x200
70002c4a:	f044 0402 	orr.w	r4, r4, #2
70002c4e:	61eb      	str	r3, [r5, #28]
70002c50:	4630      	mov	r0, r6
70002c52:	f7ff ffa9 	bl	70002ba8 <I2C_Flush_TXDR>
70002c56:	686b      	ldr	r3, [r5, #4]
70002c58:	2001      	movs	r0, #1
70002c5a:	f023 73ff 	bic.w	r3, r3, #33423360	@ 0x1fe0000
70002c5e:	f423 338b 	bic.w	r3, r3, #71168	@ 0x11600
70002c62:	f423 73ff 	bic.w	r3, r3, #510	@ 0x1fe
70002c66:	f023 0301 	bic.w	r3, r3, #1
70002c6a:	606b      	str	r3, [r5, #4]
70002c6c:	6c73      	ldr	r3, [r6, #68]	@ 0x44
70002c6e:	4323      	orrs	r3, r4
70002c70:	6473      	str	r3, [r6, #68]	@ 0x44
70002c72:	2320      	movs	r3, #32
70002c74:	f886 3041 	strb.w	r3, [r6, #65]	@ 0x41
70002c78:	2300      	movs	r3, #0
70002c7a:	f886 3042 	strb.w	r3, [r6, #66]	@ 0x42
70002c7e:	f886 3040 	strb.w	r3, [r6, #64]	@ 0x40
70002c82:	e034      	b.n	70002cee <I2C_IsErrorOccurred+0xfe>
70002c84:	f1b8 3fff 	cmp.w	r8, #4294967295	@ 0xffffffff
70002c88:	d0c1      	beq.n	70002c0e <I2C_IsErrorOccurred+0x1e>
70002c8a:	f7ff f9df 	bl	7000204c <HAL_GetTick>
70002c8e:	1bc0      	subs	r0, r0, r7
70002c90:	4540      	cmp	r0, r8
70002c92:	d802      	bhi.n	70002c9a <I2C_IsErrorOccurred+0xaa>
70002c94:	f1b8 0f00 	cmp.w	r8, #0
70002c98:	d1b8      	bne.n	70002c0c <I2C_IsErrorOccurred+0x1c>
70002c9a:	6833      	ldr	r3, [r6, #0]
70002c9c:	6859      	ldr	r1, [r3, #4]
70002c9e:	f896 2042 	ldrb.w	r2, [r6, #66]	@ 0x42
70002ca2:	6998      	ldr	r0, [r3, #24]
70002ca4:	b2d2      	uxtb	r2, r2
70002ca6:	0400      	lsls	r0, r0, #16
70002ca8:	d50a      	bpl.n	70002cc0 <I2C_IsErrorOccurred+0xd0>
70002caa:	0449      	lsls	r1, r1, #17
70002cac:	d408      	bmi.n	70002cc0 <I2C_IsErrorOccurred+0xd0>
70002cae:	2a20      	cmp	r2, #32
70002cb0:	d006      	beq.n	70002cc0 <I2C_IsErrorOccurred+0xd0>
70002cb2:	685a      	ldr	r2, [r3, #4]
70002cb4:	f442 4280 	orr.w	r2, r2, #16384	@ 0x4000
70002cb8:	605a      	str	r2, [r3, #4]
70002cba:	f7ff f9c7 	bl	7000204c <HAL_GetTick>
70002cbe:	4607      	mov	r7, r0
70002cc0:	6833      	ldr	r3, [r6, #0]
70002cc2:	699b      	ldr	r3, [r3, #24]
70002cc4:	069d      	lsls	r5, r3, #26
70002cc6:	d4a1      	bmi.n	70002c0c <I2C_IsErrorOccurred+0x1c>
70002cc8:	f7ff f9c0 	bl	7000204c <HAL_GetTick>
70002ccc:	1bc0      	subs	r0, r0, r7
70002cce:	2819      	cmp	r0, #25
70002cd0:	d9f6      	bls.n	70002cc0 <I2C_IsErrorOccurred+0xd0>
70002cd2:	2420      	movs	r4, #32
70002cd4:	f04f 0901 	mov.w	r9, #1
70002cd8:	e798      	b.n	70002c0c <I2C_IsErrorOccurred+0x1c>
70002cda:	f1b9 0f00 	cmp.w	r9, #0
70002cde:	d19c      	bne.n	70002c1a <I2C_IsErrorOccurred+0x2a>
70002ce0:	2320      	movs	r3, #32
70002ce2:	61eb      	str	r3, [r5, #28]
70002ce4:	e799      	b.n	70002c1a <I2C_IsErrorOccurred+0x2a>
70002ce6:	4620      	mov	r0, r4
70002ce8:	e79a      	b.n	70002c20 <I2C_IsErrorOccurred+0x30>
70002cea:	2800      	cmp	r0, #0
70002cec:	d1b0      	bne.n	70002c50 <I2C_IsErrorOccurred+0x60>
70002cee:	e8bd 83f8 	ldmia.w	sp!, {r3, r4, r5, r6, r7, r8, r9, pc}

70002cf2 <I2C_WaitOnTXISFlagUntilTimeout>:
70002cf2:	b570      	push	{r4, r5, r6, lr}
70002cf4:	4604      	mov	r4, r0
70002cf6:	460d      	mov	r5, r1
70002cf8:	4616      	mov	r6, r2
70002cfa:	6823      	ldr	r3, [r4, #0]
70002cfc:	699b      	ldr	r3, [r3, #24]
70002cfe:	079b      	lsls	r3, r3, #30
70002d00:	d501      	bpl.n	70002d06 <I2C_WaitOnTXISFlagUntilTimeout+0x14>
70002d02:	2000      	movs	r0, #0
70002d04:	e01f      	b.n	70002d46 <I2C_WaitOnTXISFlagUntilTimeout+0x54>
70002d06:	4632      	mov	r2, r6
70002d08:	4629      	mov	r1, r5
70002d0a:	4620      	mov	r0, r4
70002d0c:	f7ff ff70 	bl	70002bf0 <I2C_IsErrorOccurred>
70002d10:	b9c0      	cbnz	r0, 70002d44 <I2C_WaitOnTXISFlagUntilTimeout+0x52>
70002d12:	1c6a      	adds	r2, r5, #1
70002d14:	d0f1      	beq.n	70002cfa <I2C_WaitOnTXISFlagUntilTimeout+0x8>
70002d16:	f7ff f999 	bl	7000204c <HAL_GetTick>
70002d1a:	1b80      	subs	r0, r0, r6
70002d1c:	42a8      	cmp	r0, r5
70002d1e:	d801      	bhi.n	70002d24 <I2C_WaitOnTXISFlagUntilTimeout+0x32>
70002d20:	2d00      	cmp	r5, #0
70002d22:	d1ea      	bne.n	70002cfa <I2C_WaitOnTXISFlagUntilTimeout+0x8>
70002d24:	6823      	ldr	r3, [r4, #0]
70002d26:	699b      	ldr	r3, [r3, #24]
70002d28:	f013 0302 	ands.w	r3, r3, #2
70002d2c:	d1e5      	bne.n	70002cfa <I2C_WaitOnTXISFlagUntilTimeout+0x8>
70002d2e:	6c62      	ldr	r2, [r4, #68]	@ 0x44
70002d30:	f884 3040 	strb.w	r3, [r4, #64]	@ 0x40
70002d34:	f042 0220 	orr.w	r2, r2, #32
70002d38:	6462      	str	r2, [r4, #68]	@ 0x44
70002d3a:	2220      	movs	r2, #32
70002d3c:	f884 2041 	strb.w	r2, [r4, #65]	@ 0x41
70002d40:	f884 3042 	strb.w	r3, [r4, #66]	@ 0x42
70002d44:	2001      	movs	r0, #1
70002d46:	bd70      	pop	{r4, r5, r6, pc}

70002d48 <I2C_WaitOnFlagUntilTimeout>:
70002d48:	e92d 41f0 	stmdb	sp!, {r4, r5, r6, r7, r8, lr}
70002d4c:	f8dd 8018 	ldr.w	r8, [sp, #24]
70002d50:	4604      	mov	r4, r0
70002d52:	460f      	mov	r7, r1
70002d54:	4616      	mov	r6, r2
70002d56:	461d      	mov	r5, r3
70002d58:	6823      	ldr	r3, [r4, #0]
70002d5a:	699b      	ldr	r3, [r3, #24]
70002d5c:	ea37 0303 	bics.w	r3, r7, r3
70002d60:	bf0c      	ite	eq
70002d62:	2301      	moveq	r3, #1
70002d64:	2300      	movne	r3, #0
70002d66:	42b3      	cmp	r3, r6
70002d68:	d001      	beq.n	70002d6e <I2C_WaitOnFlagUntilTimeout+0x26>
70002d6a:	2000      	movs	r0, #0
70002d6c:	e025      	b.n	70002dba <I2C_WaitOnFlagUntilTimeout+0x72>
70002d6e:	4642      	mov	r2, r8
70002d70:	4629      	mov	r1, r5
70002d72:	4620      	mov	r0, r4
70002d74:	f7ff ff3c 	bl	70002bf0 <I2C_IsErrorOccurred>
70002d78:	b9f0      	cbnz	r0, 70002db8 <I2C_WaitOnFlagUntilTimeout+0x70>
70002d7a:	1c6b      	adds	r3, r5, #1
70002d7c:	d0ec      	beq.n	70002d58 <I2C_WaitOnFlagUntilTimeout+0x10>
70002d7e:	f7ff f965 	bl	7000204c <HAL_GetTick>
70002d82:	eba0 0008 	sub.w	r0, r0, r8
70002d86:	42a8      	cmp	r0, r5
70002d88:	d801      	bhi.n	70002d8e <I2C_WaitOnFlagUntilTimeout+0x46>
70002d8a:	2d00      	cmp	r5, #0
70002d8c:	d1e4      	bne.n	70002d58 <I2C_WaitOnFlagUntilTimeout+0x10>
70002d8e:	6823      	ldr	r3, [r4, #0]
70002d90:	699b      	ldr	r3, [r3, #24]
70002d92:	ea37 0303 	bics.w	r3, r7, r3
70002d96:	bf0c      	ite	eq
70002d98:	2301      	moveq	r3, #1
70002d9a:	2300      	movne	r3, #0
70002d9c:	42b3      	cmp	r3, r6
70002d9e:	d1db      	bne.n	70002d58 <I2C_WaitOnFlagUntilTimeout+0x10>
70002da0:	6c63      	ldr	r3, [r4, #68]	@ 0x44
70002da2:	f043 0320 	orr.w	r3, r3, #32
70002da6:	6463      	str	r3, [r4, #68]	@ 0x44
70002da8:	2320      	movs	r3, #32
70002daa:	f884 3041 	strb.w	r3, [r4, #65]	@ 0x41
70002dae:	2300      	movs	r3, #0
70002db0:	f884 3042 	strb.w	r3, [r4, #66]	@ 0x42
70002db4:	f884 3040 	strb.w	r3, [r4, #64]	@ 0x40
70002db8:	2001      	movs	r0, #1
70002dba:	e8bd 81f0 	ldmia.w	sp!, {r4, r5, r6, r7, r8, pc}

70002dbe <I2C_WaitOnSTOPFlagUntilTimeout>:
70002dbe:	b570      	push	{r4, r5, r6, lr}
70002dc0:	4604      	mov	r4, r0
70002dc2:	460d      	mov	r5, r1
70002dc4:	4616      	mov	r6, r2
70002dc6:	6823      	ldr	r3, [r4, #0]
70002dc8:	699b      	ldr	r3, [r3, #24]
70002dca:	069b      	lsls	r3, r3, #26
70002dcc:	d501      	bpl.n	70002dd2 <I2C_WaitOnSTOPFlagUntilTimeout+0x14>
70002dce:	2000      	movs	r0, #0
70002dd0:	e01d      	b.n	70002e0e <I2C_WaitOnSTOPFlagUntilTimeout+0x50>
70002dd2:	4632      	mov	r2, r6
70002dd4:	4629      	mov	r1, r5
70002dd6:	4620      	mov	r0, r4
70002dd8:	f7ff ff0a 	bl	70002bf0 <I2C_IsErrorOccurred>
70002ddc:	b9b0      	cbnz	r0, 70002e0c <I2C_WaitOnSTOPFlagUntilTimeout+0x4e>
70002dde:	f7ff f935 	bl	7000204c <HAL_GetTick>
70002de2:	1b80      	subs	r0, r0, r6
70002de4:	42a8      	cmp	r0, r5
70002de6:	d801      	bhi.n	70002dec <I2C_WaitOnSTOPFlagUntilTimeout+0x2e>
70002de8:	2d00      	cmp	r5, #0
70002dea:	d1ec      	bne.n	70002dc6 <I2C_WaitOnSTOPFlagUntilTimeout+0x8>
70002dec:	6823      	ldr	r3, [r4, #0]
70002dee:	699b      	ldr	r3, [r3, #24]
70002df0:	f013 0320 	ands.w	r3, r3, #32
70002df4:	d1e7      	bne.n	70002dc6 <I2C_WaitOnSTOPFlagUntilTimeout+0x8>
70002df6:	6c62      	ldr	r2, [r4, #68]	@ 0x44
70002df8:	f884 3040 	strb.w	r3, [r4, #64]	@ 0x40
70002dfc:	f042 0220 	orr.w	r2, r2, #32
70002e00:	6462      	str	r2, [r4, #68]	@ 0x44
70002e02:	2220      	movs	r2, #32
70002e04:	f884 2041 	strb.w	r2, [r4, #65]	@ 0x41
70002e08:	f884 3042 	strb.w	r3, [r4, #66]	@ 0x42
70002e0c:	2001      	movs	r0, #1
70002e0e:	bd70      	pop	{r4, r5, r6, pc}

70002e10 <HAL_I2C_MspInit>:
70002e10:	4770      	bx	lr

70002e12 <HAL_I2C_Init>:
70002e12:	b510      	push	{r4, lr}
70002e14:	4604      	mov	r4, r0
70002e16:	2800      	cmp	r0, #0
70002e18:	d04e      	beq.n	70002eb8 <HAL_I2C_Init+0xa6>
70002e1a:	f890 3041 	ldrb.w	r3, [r0, #65]	@ 0x41
70002e1e:	f003 02ff 	and.w	r2, r3, #255	@ 0xff
70002e22:	b91b      	cbnz	r3, 70002e2c <HAL_I2C_Init+0x1a>
70002e24:	f880 2040 	strb.w	r2, [r0, #64]	@ 0x40
70002e28:	f7ff fff2 	bl	70002e10 <HAL_I2C_MspInit>
70002e2c:	2324      	movs	r3, #36	@ 0x24
70002e2e:	f884 3041 	strb.w	r3, [r4, #65]	@ 0x41
70002e32:	6823      	ldr	r3, [r4, #0]
70002e34:	681a      	ldr	r2, [r3, #0]
70002e36:	f022 0201 	bic.w	r2, r2, #1
70002e3a:	601a      	str	r2, [r3, #0]
70002e3c:	6862      	ldr	r2, [r4, #4]
70002e3e:	f022 6270 	bic.w	r2, r2, #251658240	@ 0xf000000
70002e42:	611a      	str	r2, [r3, #16]
70002e44:	689a      	ldr	r2, [r3, #8]
70002e46:	f422 4200 	bic.w	r2, r2, #32768	@ 0x8000
70002e4a:	609a      	str	r2, [r3, #8]
70002e4c:	e9d4 2102 	ldrd	r2, r1, [r4, #8]
70002e50:	2901      	cmp	r1, #1
70002e52:	d106      	bne.n	70002e62 <HAL_I2C_Init+0x50>
70002e54:	f442 4200 	orr.w	r2, r2, #32768	@ 0x8000
70002e58:	609a      	str	r2, [r3, #8]
70002e5a:	685a      	ldr	r2, [r3, #4]
70002e5c:	f422 6200 	bic.w	r2, r2, #2048	@ 0x800
70002e60:	e007      	b.n	70002e72 <HAL_I2C_Init+0x60>
70002e62:	f442 4204 	orr.w	r2, r2, #33792	@ 0x8400
70002e66:	2902      	cmp	r1, #2
70002e68:	609a      	str	r2, [r3, #8]
70002e6a:	d1f6      	bne.n	70002e5a <HAL_I2C_Init+0x48>
70002e6c:	685a      	ldr	r2, [r3, #4]
70002e6e:	f442 6200 	orr.w	r2, r2, #2048	@ 0x800
70002e72:	605a      	str	r2, [r3, #4]
70002e74:	2000      	movs	r0, #0
70002e76:	685a      	ldr	r2, [r3, #4]
70002e78:	f042 7200 	orr.w	r2, r2, #33554432	@ 0x2000000
70002e7c:	f442 4200 	orr.w	r2, r2, #32768	@ 0x8000
70002e80:	605a      	str	r2, [r3, #4]
70002e82:	68da      	ldr	r2, [r3, #12]
70002e84:	f422 4200 	bic.w	r2, r2, #32768	@ 0x8000
70002e88:	60da      	str	r2, [r3, #12]
70002e8a:	e9d4 2104 	ldrd	r2, r1, [r4, #16]
70002e8e:	430a      	orrs	r2, r1
70002e90:	69a1      	ldr	r1, [r4, #24]
70002e92:	ea42 2201 	orr.w	r2, r2, r1, lsl #8
70002e96:	60da      	str	r2, [r3, #12]
70002e98:	e9d4 2107 	ldrd	r2, r1, [r4, #28]
70002e9c:	430a      	orrs	r2, r1
70002e9e:	601a      	str	r2, [r3, #0]
70002ea0:	681a      	ldr	r2, [r3, #0]
70002ea2:	f042 0201 	orr.w	r2, r2, #1
70002ea6:	601a      	str	r2, [r3, #0]
70002ea8:	2320      	movs	r3, #32
70002eaa:	6460      	str	r0, [r4, #68]	@ 0x44
70002eac:	f884 3041 	strb.w	r3, [r4, #65]	@ 0x41
70002eb0:	6320      	str	r0, [r4, #48]	@ 0x30
70002eb2:	f884 0042 	strb.w	r0, [r4, #66]	@ 0x42
70002eb6:	bd10      	pop	{r4, pc}
70002eb8:	2001      	movs	r0, #1
70002eba:	e7fc      	b.n	70002eb6 <HAL_I2C_Init+0xa4>

70002ebc <HAL_I2C_MspDeInit>:
70002ebc:	4770      	bx	lr

70002ebe <HAL_I2C_DeInit>:
70002ebe:	b510      	push	{r4, lr}
70002ec0:	4604      	mov	r4, r0
70002ec2:	b198      	cbz	r0, 70002eec <HAL_I2C_DeInit+0x2e>
70002ec4:	6802      	ldr	r2, [r0, #0]
70002ec6:	2324      	movs	r3, #36	@ 0x24
70002ec8:	f880 3041 	strb.w	r3, [r0, #65]	@ 0x41
70002ecc:	6813      	ldr	r3, [r2, #0]
70002ece:	f023 0301 	bic.w	r3, r3, #1
70002ed2:	6013      	str	r3, [r2, #0]
70002ed4:	f7ff fff2 	bl	70002ebc <HAL_I2C_MspDeInit>
70002ed8:	2000      	movs	r0, #0
70002eda:	6460      	str	r0, [r4, #68]	@ 0x44
70002edc:	f884 0040 	strb.w	r0, [r4, #64]	@ 0x40
70002ee0:	f884 0041 	strb.w	r0, [r4, #65]	@ 0x41
70002ee4:	6320      	str	r0, [r4, #48]	@ 0x30
70002ee6:	f884 0042 	strb.w	r0, [r4, #66]	@ 0x42
70002eea:	bd10      	pop	{r4, pc}
70002eec:	2001      	movs	r0, #1
70002eee:	e7fc      	b.n	70002eea <HAL_I2C_DeInit+0x2c>

70002ef0 <HAL_I2C_Mem_Write>:
70002ef0:	e92d 4ff7 	stmdb	sp!, {r0, r1, r2, r4, r5, r6, r7, r8, r9, sl, fp, lr}
70002ef4:	4699      	mov	r9, r3
70002ef6:	f890 3041 	ldrb.w	r3, [r0, #65]	@ 0x41
70002efa:	4604      	mov	r4, r0
70002efc:	460f      	mov	r7, r1
70002efe:	2b20      	cmp	r3, #32
70002f00:	4616      	mov	r6, r2
70002f02:	f8bd a034 	ldrh.w	sl, [sp, #52]	@ 0x34
70002f06:	f8dd 8038 	ldr.w	r8, [sp, #56]	@ 0x38
70002f0a:	f040 80c6 	bne.w	7000309a <HAL_I2C_Mem_Write+0x1aa>
70002f0e:	9b0c      	ldr	r3, [sp, #48]	@ 0x30
70002f10:	b113      	cbz	r3, 70002f18 <HAL_I2C_Mem_Write+0x28>
70002f12:	f1ba 0f00 	cmp.w	sl, #0
70002f16:	d106      	bne.n	70002f26 <HAL_I2C_Mem_Write+0x36>
70002f18:	f44f 7300 	mov.w	r3, #512	@ 0x200
70002f1c:	6463      	str	r3, [r4, #68]	@ 0x44
70002f1e:	2001      	movs	r0, #1
70002f20:	b003      	add	sp, #12
70002f22:	e8bd 8ff0 	ldmia.w	sp!, {r4, r5, r6, r7, r8, r9, sl, fp, pc}
70002f26:	f890 3040 	ldrb.w	r3, [r0, #64]	@ 0x40
70002f2a:	2b01      	cmp	r3, #1
70002f2c:	f000 80b5 	beq.w	7000309a <HAL_I2C_Mem_Write+0x1aa>
70002f30:	f04f 0b01 	mov.w	fp, #1
70002f34:	f880 b040 	strb.w	fp, [r0, #64]	@ 0x40
70002f38:	f7ff f888 	bl	7000204c <HAL_GetTick>
70002f3c:	2319      	movs	r3, #25
70002f3e:	4605      	mov	r5, r0
70002f40:	9000      	str	r0, [sp, #0]
70002f42:	465a      	mov	r2, fp
70002f44:	f44f 4100 	mov.w	r1, #32768	@ 0x8000
70002f48:	4620      	mov	r0, r4
70002f4a:	f7ff fefd 	bl	70002d48 <I2C_WaitOnFlagUntilTimeout>
70002f4e:	2800      	cmp	r0, #0
70002f50:	d1e5      	bne.n	70002f1e <HAL_I2C_Mem_Write+0x2e>
70002f52:	2321      	movs	r3, #33	@ 0x21
70002f54:	6360      	str	r0, [r4, #52]	@ 0x34
70002f56:	fa5f f289 	uxtb.w	r2, r9
70002f5a:	4639      	mov	r1, r7
70002f5c:	f884 3041 	strb.w	r3, [r4, #65]	@ 0x41
70002f60:	2340      	movs	r3, #64	@ 0x40
70002f62:	f884 3042 	strb.w	r3, [r4, #66]	@ 0x42
70002f66:	9b0c      	ldr	r3, [sp, #48]	@ 0x30
70002f68:	6460      	str	r0, [r4, #68]	@ 0x44
70002f6a:	4620      	mov	r0, r4
70002f6c:	6263      	str	r3, [r4, #36]	@ 0x24
70002f6e:	4b4c      	ldr	r3, [pc, #304]	@ (700030a0 <HAL_I2C_Mem_Write+0x1b0>)
70002f70:	f8a4 a02a 	strh.w	sl, [r4, #42]	@ 0x2a
70002f74:	9300      	str	r3, [sp, #0]
70002f76:	f04f 7380 	mov.w	r3, #16777216	@ 0x1000000
70002f7a:	f7ff fe23 	bl	70002bc4 <I2C_TransferConfig>
70002f7e:	462a      	mov	r2, r5
70002f80:	4641      	mov	r1, r8
70002f82:	4620      	mov	r0, r4
70002f84:	f7ff feb5 	bl	70002cf2 <I2C_WaitOnTXISFlagUntilTimeout>
70002f88:	bb18      	cbnz	r0, 70002fd2 <HAL_I2C_Mem_Write+0xe2>
70002f8a:	f1b9 0f01 	cmp.w	r9, #1
70002f8e:	6823      	ldr	r3, [r4, #0]
70002f90:	d115      	bne.n	70002fbe <HAL_I2C_Mem_Write+0xce>
70002f92:	b2f6      	uxtb	r6, r6
70002f94:	2200      	movs	r2, #0
70002f96:	2180      	movs	r1, #128	@ 0x80
70002f98:	4620      	mov	r0, r4
70002f9a:	629e      	str	r6, [r3, #40]	@ 0x28
70002f9c:	4643      	mov	r3, r8
70002f9e:	9500      	str	r5, [sp, #0]
70002fa0:	f7ff fed2 	bl	70002d48 <I2C_WaitOnFlagUntilTimeout>
70002fa4:	b9a8      	cbnz	r0, 70002fd2 <HAL_I2C_Mem_Write+0xe2>
70002fa6:	8d63      	ldrh	r3, [r4, #42]	@ 0x2a
70002fa8:	b29b      	uxth	r3, r3
70002faa:	2bff      	cmp	r3, #255	@ 0xff
70002fac:	d815      	bhi.n	70002fda <HAL_I2C_Mem_Write+0xea>
70002fae:	8d62      	ldrh	r2, [r4, #42]	@ 0x2a
70002fb0:	f04f 7300 	mov.w	r3, #33554432	@ 0x2000000
70002fb4:	b292      	uxth	r2, r2
70002fb6:	8522      	strh	r2, [r4, #40]	@ 0x28
70002fb8:	b2d2      	uxtb	r2, r2
70002fba:	9000      	str	r0, [sp, #0]
70002fbc:	e012      	b.n	70002fe4 <HAL_I2C_Mem_Write+0xf4>
70002fbe:	0a32      	lsrs	r2, r6, #8
70002fc0:	4641      	mov	r1, r8
70002fc2:	4620      	mov	r0, r4
70002fc4:	629a      	str	r2, [r3, #40]	@ 0x28
70002fc6:	462a      	mov	r2, r5
70002fc8:	f7ff fe93 	bl	70002cf2 <I2C_WaitOnTXISFlagUntilTimeout>
70002fcc:	b908      	cbnz	r0, 70002fd2 <HAL_I2C_Mem_Write+0xe2>
70002fce:	6823      	ldr	r3, [r4, #0]
70002fd0:	e7df      	b.n	70002f92 <HAL_I2C_Mem_Write+0xa2>
70002fd2:	2300      	movs	r3, #0
70002fd4:	f884 3040 	strb.w	r3, [r4, #64]	@ 0x40
70002fd8:	e7a1      	b.n	70002f1e <HAL_I2C_Mem_Write+0x2e>
70002fda:	22ff      	movs	r2, #255	@ 0xff
70002fdc:	f04f 7380 	mov.w	r3, #16777216	@ 0x1000000
70002fe0:	8522      	strh	r2, [r4, #40]	@ 0x28
70002fe2:	9000      	str	r0, [sp, #0]
70002fe4:	4639      	mov	r1, r7
70002fe6:	4620      	mov	r0, r4
70002fe8:	f7ff fdec 	bl	70002bc4 <I2C_TransferConfig>
70002fec:	462a      	mov	r2, r5
70002fee:	4641      	mov	r1, r8
70002ff0:	4620      	mov	r0, r4
70002ff2:	f7ff fe7e 	bl	70002cf2 <I2C_WaitOnTXISFlagUntilTimeout>
70002ff6:	2800      	cmp	r0, #0
70002ff8:	d191      	bne.n	70002f1e <HAL_I2C_Mem_Write+0x2e>
70002ffa:	6a63      	ldr	r3, [r4, #36]	@ 0x24
70002ffc:	6822      	ldr	r2, [r4, #0]
70002ffe:	f813 1b01 	ldrb.w	r1, [r3], #1
70003002:	6291      	str	r1, [r2, #40]	@ 0x28
70003004:	6263      	str	r3, [r4, #36]	@ 0x24
70003006:	8d63      	ldrh	r3, [r4, #42]	@ 0x2a
70003008:	8d22      	ldrh	r2, [r4, #40]	@ 0x28
7000300a:	3b01      	subs	r3, #1
7000300c:	3a01      	subs	r2, #1
7000300e:	b29b      	uxth	r3, r3
70003010:	b292      	uxth	r2, r2
70003012:	8563      	strh	r3, [r4, #42]	@ 0x2a
70003014:	8d63      	ldrh	r3, [r4, #42]	@ 0x2a
70003016:	8522      	strh	r2, [r4, #40]	@ 0x28
70003018:	b29b      	uxth	r3, r3
7000301a:	b1b3      	cbz	r3, 7000304a <HAL_I2C_Mem_Write+0x15a>
7000301c:	b9aa      	cbnz	r2, 7000304a <HAL_I2C_Mem_Write+0x15a>
7000301e:	4643      	mov	r3, r8
70003020:	2180      	movs	r1, #128	@ 0x80
70003022:	4620      	mov	r0, r4
70003024:	9500      	str	r5, [sp, #0]
70003026:	f7ff fe8f 	bl	70002d48 <I2C_WaitOnFlagUntilTimeout>
7000302a:	2800      	cmp	r0, #0
7000302c:	f47f af77 	bne.w	70002f1e <HAL_I2C_Mem_Write+0x2e>
70003030:	8d63      	ldrh	r3, [r4, #42]	@ 0x2a
70003032:	b29b      	uxth	r3, r3
70003034:	2bff      	cmp	r3, #255	@ 0xff
70003036:	d928      	bls.n	7000308a <HAL_I2C_Mem_Write+0x19a>
70003038:	22ff      	movs	r2, #255	@ 0xff
7000303a:	f04f 7380 	mov.w	r3, #16777216	@ 0x1000000
7000303e:	8522      	strh	r2, [r4, #40]	@ 0x28
70003040:	9000      	str	r0, [sp, #0]
70003042:	4639      	mov	r1, r7
70003044:	4620      	mov	r0, r4
70003046:	f7ff fdbd 	bl	70002bc4 <I2C_TransferConfig>
7000304a:	8d63      	ldrh	r3, [r4, #42]	@ 0x2a
7000304c:	b29b      	uxth	r3, r3
7000304e:	2b00      	cmp	r3, #0
70003050:	d1cc      	bne.n	70002fec <HAL_I2C_Mem_Write+0xfc>
70003052:	462a      	mov	r2, r5
70003054:	4641      	mov	r1, r8
70003056:	4620      	mov	r0, r4
70003058:	f7ff feb1 	bl	70002dbe <I2C_WaitOnSTOPFlagUntilTimeout>
7000305c:	2800      	cmp	r0, #0
7000305e:	f47f af5e 	bne.w	70002f1e <HAL_I2C_Mem_Write+0x2e>
70003062:	6823      	ldr	r3, [r4, #0]
70003064:	2120      	movs	r1, #32
70003066:	61d9      	str	r1, [r3, #28]
70003068:	685a      	ldr	r2, [r3, #4]
7000306a:	f022 72ff 	bic.w	r2, r2, #33423360	@ 0x1fe0000
7000306e:	f422 328b 	bic.w	r2, r2, #71168	@ 0x11600
70003072:	f422 72ff 	bic.w	r2, r2, #510	@ 0x1fe
70003076:	f022 0201 	bic.w	r2, r2, #1
7000307a:	605a      	str	r2, [r3, #4]
7000307c:	f884 1041 	strb.w	r1, [r4, #65]	@ 0x41
70003080:	f884 0040 	strb.w	r0, [r4, #64]	@ 0x40
70003084:	f884 0042 	strb.w	r0, [r4, #66]	@ 0x42
70003088:	e74a      	b.n	70002f20 <HAL_I2C_Mem_Write+0x30>
7000308a:	8d62      	ldrh	r2, [r4, #42]	@ 0x2a
7000308c:	f04f 7300 	mov.w	r3, #33554432	@ 0x2000000
70003090:	b292      	uxth	r2, r2
70003092:	8522      	strh	r2, [r4, #40]	@ 0x28
70003094:	b2d2      	uxtb	r2, r2
70003096:	9000      	str	r0, [sp, #0]
70003098:	e7d3      	b.n	70003042 <HAL_I2C_Mem_Write+0x152>
7000309a:	2002      	movs	r0, #2
7000309c:	e740      	b.n	70002f20 <HAL_I2C_Mem_Write+0x30>
7000309e:	bf00      	nop
700030a0:	80002000 	.word	0x80002000

700030a4 <HAL_I2C_Mem_Read>:
700030a4:	e92d 4ff7 	stmdb	sp!, {r0, r1, r2, r4, r5, r6, r7, r8, r9, sl, fp, lr}
700030a8:	4699      	mov	r9, r3
700030aa:	f890 3041 	ldrb.w	r3, [r0, #65]	@ 0x41
700030ae:	4604      	mov	r4, r0
700030b0:	460f      	mov	r7, r1
700030b2:	2b20      	cmp	r3, #32
700030b4:	4616      	mov	r6, r2
700030b6:	f8bd a034 	ldrh.w	sl, [sp, #52]	@ 0x34
700030ba:	f8dd 8038 	ldr.w	r8, [sp, #56]	@ 0x38
700030be:	f040 80c9 	bne.w	70003254 <HAL_I2C_Mem_Read+0x1b0>
700030c2:	9b0c      	ldr	r3, [sp, #48]	@ 0x30
700030c4:	b113      	cbz	r3, 700030cc <HAL_I2C_Mem_Read+0x28>
700030c6:	f1ba 0f00 	cmp.w	sl, #0
700030ca:	d106      	bne.n	700030da <HAL_I2C_Mem_Read+0x36>
700030cc:	f44f 7300 	mov.w	r3, #512	@ 0x200
700030d0:	6463      	str	r3, [r4, #68]	@ 0x44
700030d2:	2001      	movs	r0, #1
700030d4:	b003      	add	sp, #12
700030d6:	e8bd 8ff0 	ldmia.w	sp!, {r4, r5, r6, r7, r8, r9, sl, fp, pc}
700030da:	f890 3040 	ldrb.w	r3, [r0, #64]	@ 0x40
700030de:	2b01      	cmp	r3, #1
700030e0:	f000 80b8 	beq.w	70003254 <HAL_I2C_Mem_Read+0x1b0>
700030e4:	f04f 0b01 	mov.w	fp, #1
700030e8:	f880 b040 	strb.w	fp, [r0, #64]	@ 0x40
700030ec:	f7fe ffae 	bl	7000204c <HAL_GetTick>
700030f0:	2319      	movs	r3, #25
700030f2:	9000      	str	r0, [sp, #0]
700030f4:	4605      	mov	r5, r0
700030f6:	465a      	mov	r2, fp
700030f8:	f44f 4100 	mov.w	r1, #32768	@ 0x8000
700030fc:	4620      	mov	r0, r4
700030fe:	f7ff fe23 	bl	70002d48 <I2C_WaitOnFlagUntilTimeout>
70003102:	4603      	mov	r3, r0
70003104:	2800      	cmp	r0, #0
70003106:	d1e4      	bne.n	700030d2 <HAL_I2C_Mem_Read+0x2e>
70003108:	2222      	movs	r2, #34	@ 0x22
7000310a:	6360      	str	r0, [r4, #52]	@ 0x34
7000310c:	4639      	mov	r1, r7
7000310e:	f884 2041 	strb.w	r2, [r4, #65]	@ 0x41
70003112:	2240      	movs	r2, #64	@ 0x40
70003114:	f884 2042 	strb.w	r2, [r4, #66]	@ 0x42
70003118:	9a0c      	ldr	r2, [sp, #48]	@ 0x30
7000311a:	6460      	str	r0, [r4, #68]	@ 0x44
7000311c:	4620      	mov	r0, r4
7000311e:	6262      	str	r2, [r4, #36]	@ 0x24
70003120:	4a4d      	ldr	r2, [pc, #308]	@ (70003258 <HAL_I2C_Mem_Read+0x1b4>)
70003122:	f8a4 a02a 	strh.w	sl, [r4, #42]	@ 0x2a
70003126:	9200      	str	r2, [sp, #0]
70003128:	fa5f f289 	uxtb.w	r2, r9
7000312c:	f7ff fd4a 	bl	70002bc4 <I2C_TransferConfig>
70003130:	462a      	mov	r2, r5
70003132:	4641      	mov	r1, r8
70003134:	4620      	mov	r0, r4
70003136:	f7ff fddc 	bl	70002cf2 <I2C_WaitOnTXISFlagUntilTimeout>
7000313a:	bb20      	cbnz	r0, 70003186 <HAL_I2C_Mem_Read+0xe2>
7000313c:	f1b9 0f01 	cmp.w	r9, #1
70003140:	6823      	ldr	r3, [r4, #0]
70003142:	d116      	bne.n	70003172 <HAL_I2C_Mem_Read+0xce>
70003144:	b2f6      	uxtb	r6, r6
70003146:	2200      	movs	r2, #0
70003148:	2140      	movs	r1, #64	@ 0x40
7000314a:	4620      	mov	r0, r4
7000314c:	629e      	str	r6, [r3, #40]	@ 0x28
7000314e:	4643      	mov	r3, r8
70003150:	9500      	str	r5, [sp, #0]
70003152:	f7ff fdf9 	bl	70002d48 <I2C_WaitOnFlagUntilTimeout>
70003156:	b9b0      	cbnz	r0, 70003186 <HAL_I2C_Mem_Read+0xe2>
70003158:	8d63      	ldrh	r3, [r4, #42]	@ 0x2a
7000315a:	b29b      	uxth	r3, r3
7000315c:	2bff      	cmp	r3, #255	@ 0xff
7000315e:	4b3f      	ldr	r3, [pc, #252]	@ (7000325c <HAL_I2C_Mem_Read+0x1b8>)
70003160:	d815      	bhi.n	7000318e <HAL_I2C_Mem_Read+0xea>
70003162:	8d62      	ldrh	r2, [r4, #42]	@ 0x2a
70003164:	b292      	uxth	r2, r2
70003166:	8522      	strh	r2, [r4, #40]	@ 0x28
70003168:	b2d2      	uxtb	r2, r2
7000316a:	9300      	str	r3, [sp, #0]
7000316c:	f04f 7300 	mov.w	r3, #33554432	@ 0x2000000
70003170:	e012      	b.n	70003198 <HAL_I2C_Mem_Read+0xf4>
70003172:	0a32      	lsrs	r2, r6, #8
70003174:	4641      	mov	r1, r8
70003176:	4620      	mov	r0, r4
70003178:	629a      	str	r2, [r3, #40]	@ 0x28
7000317a:	462a      	mov	r2, r5
7000317c:	f7ff fdb9 	bl	70002cf2 <I2C_WaitOnTXISFlagUntilTimeout>
70003180:	b908      	cbnz	r0, 70003186 <HAL_I2C_Mem_Read+0xe2>
70003182:	6823      	ldr	r3, [r4, #0]
70003184:	e7de      	b.n	70003144 <HAL_I2C_Mem_Read+0xa0>
70003186:	2300      	movs	r3, #0
70003188:	f884 3040 	strb.w	r3, [r4, #64]	@ 0x40
7000318c:	e7a1      	b.n	700030d2 <HAL_I2C_Mem_Read+0x2e>
7000318e:	22ff      	movs	r2, #255	@ 0xff
70003190:	8522      	strh	r2, [r4, #40]	@ 0x28
70003192:	9300      	str	r3, [sp, #0]
70003194:	f04f 7380 	mov.w	r3, #16777216	@ 0x1000000
70003198:	4639      	mov	r1, r7
7000319a:	4620      	mov	r0, r4
7000319c:	f7ff fd12 	bl	70002bc4 <I2C_TransferConfig>
700031a0:	4643      	mov	r3, r8
700031a2:	2200      	movs	r2, #0
700031a4:	2104      	movs	r1, #4
700031a6:	4620      	mov	r0, r4
700031a8:	9500      	str	r5, [sp, #0]
700031aa:	f7ff fdcd 	bl	70002d48 <I2C_WaitOnFlagUntilTimeout>
700031ae:	2800      	cmp	r0, #0
700031b0:	d18f      	bne.n	700030d2 <HAL_I2C_Mem_Read+0x2e>
700031b2:	6823      	ldr	r3, [r4, #0]
700031b4:	6a5a      	ldr	r2, [r3, #36]	@ 0x24
700031b6:	6a63      	ldr	r3, [r4, #36]	@ 0x24
700031b8:	701a      	strb	r2, [r3, #0]
700031ba:	6a63      	ldr	r3, [r4, #36]	@ 0x24
700031bc:	8d22      	ldrh	r2, [r4, #40]	@ 0x28
700031be:	3301      	adds	r3, #1
700031c0:	3a01      	subs	r2, #1
700031c2:	6263      	str	r3, [r4, #36]	@ 0x24
700031c4:	8d63      	ldrh	r3, [r4, #42]	@ 0x2a
700031c6:	b292      	uxth	r2, r2
700031c8:	3b01      	subs	r3, #1
700031ca:	8522      	strh	r2, [r4, #40]	@ 0x28
700031cc:	b29b      	uxth	r3, r3
700031ce:	8563      	strh	r3, [r4, #42]	@ 0x2a
700031d0:	8d63      	ldrh	r3, [r4, #42]	@ 0x2a
700031d2:	b29b      	uxth	r3, r3
700031d4:	b1b3      	cbz	r3, 70003204 <HAL_I2C_Mem_Read+0x160>
700031d6:	b9aa      	cbnz	r2, 70003204 <HAL_I2C_Mem_Read+0x160>
700031d8:	4643      	mov	r3, r8
700031da:	2180      	movs	r1, #128	@ 0x80
700031dc:	4620      	mov	r0, r4
700031de:	9500      	str	r5, [sp, #0]
700031e0:	f7ff fdb2 	bl	70002d48 <I2C_WaitOnFlagUntilTimeout>
700031e4:	2800      	cmp	r0, #0
700031e6:	f47f af74 	bne.w	700030d2 <HAL_I2C_Mem_Read+0x2e>
700031ea:	8d63      	ldrh	r3, [r4, #42]	@ 0x2a
700031ec:	b29b      	uxth	r3, r3
700031ee:	2bff      	cmp	r3, #255	@ 0xff
700031f0:	d928      	bls.n	70003244 <HAL_I2C_Mem_Read+0x1a0>
700031f2:	22ff      	movs	r2, #255	@ 0xff
700031f4:	f04f 7380 	mov.w	r3, #16777216	@ 0x1000000
700031f8:	8522      	strh	r2, [r4, #40]	@ 0x28
700031fa:	9000      	str	r0, [sp, #0]
700031fc:	4639      	mov	r1, r7
700031fe:	4620      	mov	r0, r4
70003200:	f7ff fce0 	bl	70002bc4 <I2C_TransferConfig>
70003204:	8d63      	ldrh	r3, [r4, #42]	@ 0x2a
70003206:	b29b      	uxth	r3, r3
70003208:	2b00      	cmp	r3, #0
7000320a:	d1c9      	bne.n	700031a0 <HAL_I2C_Mem_Read+0xfc>
7000320c:	462a      	mov	r2, r5
7000320e:	4641      	mov	r1, r8
70003210:	4620      	mov	r0, r4
70003212:	f7ff fdd4 	bl	70002dbe <I2C_WaitOnSTOPFlagUntilTimeout>
70003216:	2800      	cmp	r0, #0
70003218:	f47f af5b 	bne.w	700030d2 <HAL_I2C_Mem_Read+0x2e>
7000321c:	6823      	ldr	r3, [r4, #0]
7000321e:	2120      	movs	r1, #32
70003220:	61d9      	str	r1, [r3, #28]
70003222:	685a      	ldr	r2, [r3, #4]
70003224:	f022 72ff 	bic.w	r2, r2, #33423360	@ 0x1fe0000
70003228:	f422 328b 	bic.w	r2, r2, #71168	@ 0x11600
7000322c:	f422 72ff 	bic.w	r2, r2, #510	@ 0x1fe
70003230:	f022 0201 	bic.w	r2, r2, #1
70003234:	605a      	str	r2, [r3, #4]
70003236:	f884 1041 	strb.w	r1, [r4, #65]	@ 0x41
7000323a:	f884 0040 	strb.w	r0, [r4, #64]	@ 0x40
7000323e:	f884 0042 	strb.w	r0, [r4, #66]	@ 0x42
70003242:	e747      	b.n	700030d4 <HAL_I2C_Mem_Read+0x30>
70003244:	8d62      	ldrh	r2, [r4, #42]	@ 0x2a
70003246:	f04f 7300 	mov.w	r3, #33554432	@ 0x2000000
7000324a:	b292      	uxth	r2, r2
7000324c:	8522      	strh	r2, [r4, #40]	@ 0x28
7000324e:	b2d2      	uxtb	r2, r2
70003250:	9000      	str	r0, [sp, #0]
70003252:	e7d3      	b.n	700031fc <HAL_I2C_Mem_Read+0x158>
70003254:	2002      	movs	r0, #2
70003256:	e73d      	b.n	700030d4 <HAL_I2C_Mem_Read+0x30>
70003258:	80002000 	.word	0x80002000
7000325c:	80002400 	.word	0x80002400

70003260 <HAL_I2C_GetState>:
70003260:	f890 0041 	ldrb.w	r0, [r0, #65]	@ 0x41
70003264:	4770      	bx	lr

70003266 <HAL_I2C_GetError>:
70003266:	6c40      	ldr	r0, [r0, #68]	@ 0x44
70003268:	4770      	bx	lr

7000326a <HAL_I2CEx_ConfigAnalogFilter>:
7000326a:	b510      	push	{r4, lr}
7000326c:	f890 2041 	ldrb.w	r2, [r0, #65]	@ 0x41
70003270:	4603      	mov	r3, r0
70003272:	2a20      	cmp	r2, #32
70003274:	b2d4      	uxtb	r4, r2
70003276:	d11c      	bne.n	700032b2 <HAL_I2CEx_ConfigAnalogFilter+0x48>
70003278:	f890 2040 	ldrb.w	r2, [r0, #64]	@ 0x40
7000327c:	2a01      	cmp	r2, #1
7000327e:	d018      	beq.n	700032b2 <HAL_I2CEx_ConfigAnalogFilter+0x48>
70003280:	2224      	movs	r2, #36	@ 0x24
70003282:	f880 2041 	strb.w	r2, [r0, #65]	@ 0x41
70003286:	6802      	ldr	r2, [r0, #0]
70003288:	6810      	ldr	r0, [r2, #0]
7000328a:	f020 0001 	bic.w	r0, r0, #1
7000328e:	6010      	str	r0, [r2, #0]
70003290:	6810      	ldr	r0, [r2, #0]
70003292:	f420 5080 	bic.w	r0, r0, #4096	@ 0x1000
70003296:	6010      	str	r0, [r2, #0]
70003298:	6810      	ldr	r0, [r2, #0]
7000329a:	4301      	orrs	r1, r0
7000329c:	2000      	movs	r0, #0
7000329e:	6011      	str	r1, [r2, #0]
700032a0:	6811      	ldr	r1, [r2, #0]
700032a2:	f041 0101 	orr.w	r1, r1, #1
700032a6:	6011      	str	r1, [r2, #0]
700032a8:	f883 4041 	strb.w	r4, [r3, #65]	@ 0x41
700032ac:	f883 0040 	strb.w	r0, [r3, #64]	@ 0x40
700032b0:	bd10      	pop	{r4, pc}
700032b2:	2002      	movs	r0, #2
700032b4:	e7fc      	b.n	700032b0 <HAL_I2CEx_ConfigAnalogFilter+0x46>

700032b6 <HAL_I2CEx_ConfigDigitalFilter>:
700032b6:	b510      	push	{r4, lr}
700032b8:	f890 2041 	ldrb.w	r2, [r0, #65]	@ 0x41
700032bc:	4603      	mov	r3, r0
700032be:	2a20      	cmp	r2, #32
700032c0:	b2d4      	uxtb	r4, r2
700032c2:	d11b      	bne.n	700032fc <HAL_I2CEx_ConfigDigitalFilter+0x46>
700032c4:	f890 2040 	ldrb.w	r2, [r0, #64]	@ 0x40
700032c8:	2a01      	cmp	r2, #1
700032ca:	d017      	beq.n	700032fc <HAL_I2CEx_ConfigDigitalFilter+0x46>
700032cc:	2224      	movs	r2, #36	@ 0x24
700032ce:	f880 2041 	strb.w	r2, [r0, #65]	@ 0x41
700032d2:	6802      	ldr	r2, [r0, #0]
700032d4:	6810      	ldr	r0, [r2, #0]
700032d6:	f020 0001 	bic.w	r0, r0, #1
700032da:	6010      	str	r0, [r2, #0]
700032dc:	6810      	ldr	r0, [r2, #0]
700032de:	f420 6070 	bic.w	r0, r0, #3840	@ 0xf00
700032e2:	ea40 2101 	orr.w	r1, r0, r1, lsl #8
700032e6:	2000      	movs	r0, #0
700032e8:	6011      	str	r1, [r2, #0]
700032ea:	6811      	ldr	r1, [r2, #0]
700032ec:	f041 0101 	orr.w	r1, r1, #1
700032f0:	6011      	str	r1, [r2, #0]
700032f2:	f883 4041 	strb.w	r4, [r3, #65]	@ 0x41
700032f6:	f883 0040 	strb.w	r0, [r3, #64]	@ 0x40
700032fa:	bd10      	pop	{r4, pc}
700032fc:	2002      	movs	r0, #2
700032fe:	e7fc      	b.n	700032fa <HAL_I2CEx_ConfigDigitalFilter+0x44>

70003300 <HAL_PCD_Init>:
70003300:	b5f7      	push	{r0, r1, r2, r4, r5, r6, r7, lr}
70003302:	4604      	mov	r4, r0
70003304:	b318      	cbz	r0, 7000334e <HAL_PCD_Init+0x4e>
70003306:	f890 3495 	ldrb.w	r3, [r0, #1173]	@ 0x495
7000330a:	6805      	ldr	r5, [r0, #0]
7000330c:	f003 02ff 	and.w	r2, r3, #255	@ 0xff
70003310:	b91b      	cbnz	r3, 7000331a <HAL_PCD_Init+0x1a>
70003312:	f880 2494 	strb.w	r2, [r0, #1172]	@ 0x494
70003316:	f7fd fabf 	bl	70000898 <HAL_PCD_MspInit>
7000331a:	2303      	movs	r3, #3
7000331c:	6820      	ldr	r0, [r4, #0]
7000331e:	f884 3495 	strb.w	r3, [r4, #1173]	@ 0x495
70003322:	4b31      	ldr	r3, [pc, #196]	@ (700033e8 <HAL_PCD_Init+0xe8>)
70003324:	429d      	cmp	r5, r3
70003326:	f104 0504 	add.w	r5, r4, #4
7000332a:	bf04      	itt	eq
7000332c:	2300      	moveq	r3, #0
7000332e:	71a3      	strbeq	r3, [r4, #6]
70003330:	f003 ff50 	bl	700071d4 <USB_DisableGlobalInt>
70003334:	7c23      	ldrb	r3, [r4, #16]
70003336:	f88d 3000 	strb.w	r3, [sp]
7000333a:	6820      	ldr	r0, [r4, #0]
7000333c:	e895 000e 	ldmia.w	r5, {r1, r2, r3}
70003340:	f003 fe8c 	bl	7000705c <USB_CoreInit>
70003344:	4601      	mov	r1, r0
70003346:	b130      	cbz	r0, 70003356 <HAL_PCD_Init+0x56>
70003348:	2302      	movs	r3, #2
7000334a:	f884 3495 	strb.w	r3, [r4, #1173]	@ 0x495
7000334e:	2501      	movs	r5, #1
70003350:	4628      	mov	r0, r5
70003352:	b003      	add	sp, #12
70003354:	bdf0      	pop	{r4, r5, r6, r7, pc}
70003356:	6820      	ldr	r0, [r4, #0]
70003358:	f003 ff42 	bl	700071e0 <USB_SetCurrentMode>
7000335c:	2800      	cmp	r0, #0
7000335e:	d1f3      	bne.n	70003348 <HAL_PCD_Init+0x48>
70003360:	7926      	ldrb	r6, [r4, #4]
70003362:	f104 0314 	add.w	r3, r4, #20
70003366:	2701      	movs	r7, #1
70003368:	4602      	mov	r2, r0
7000336a:	b2c1      	uxtb	r1, r0
7000336c:	3324      	adds	r3, #36	@ 0x24
7000336e:	428e      	cmp	r6, r1
70003370:	d820      	bhi.n	700033b4 <HAL_PCD_Init+0xb4>
70003372:	2100      	movs	r1, #0
70003374:	f504 7315 	add.w	r3, r4, #596	@ 0x254
70003378:	460a      	mov	r2, r1
7000337a:	b2c8      	uxtb	r0, r1
7000337c:	3324      	adds	r3, #36	@ 0x24
7000337e:	4286      	cmp	r6, r0
70003380:	d826      	bhi.n	700033d0 <HAL_PCD_Init+0xd0>
70003382:	7c23      	ldrb	r3, [r4, #16]
70003384:	f88d 3000 	strb.w	r3, [sp]
70003388:	6820      	ldr	r0, [r4, #0]
7000338a:	e895 000e 	ldmia.w	r5, {r1, r2, r3}
7000338e:	f003 ffa1 	bl	700072d4 <USB_DevInit>
70003392:	4605      	mov	r5, r0
70003394:	2800      	cmp	r0, #0
70003396:	d1d7      	bne.n	70003348 <HAL_PCD_Init+0x48>
70003398:	2301      	movs	r3, #1
7000339a:	7460      	strb	r0, [r4, #17]
7000339c:	f884 3495 	strb.w	r3, [r4, #1173]	@ 0x495
700033a0:	7b23      	ldrb	r3, [r4, #12]
700033a2:	2b01      	cmp	r3, #1
700033a4:	d102      	bne.n	700033ac <HAL_PCD_Init+0xac>
700033a6:	4620      	mov	r0, r4
700033a8:	f000 fd34 	bl	70003e14 <HAL_PCDEx_ActivateLPM>
700033ac:	6820      	ldr	r0, [r4, #0]
700033ae:	f004 fb1c 	bl	700079ea <USB_DevDisconnect>
700033b2:	e7cd      	b.n	70003350 <HAL_PCD_Init+0x50>
700033b4:	f823 0c0a 	strh.w	r0, [r3, #-10]
700033b8:	3001      	adds	r0, #1
700033ba:	f803 7c23 	strb.w	r7, [r3, #-35]
700033be:	f803 1c24 	strb.w	r1, [r3, #-36]
700033c2:	f803 2c20 	strb.w	r2, [r3, #-32]
700033c6:	f843 2c14 	str.w	r2, [r3, #-20]
700033ca:	e943 2207 	strd	r2, r2, [r3, #-28]
700033ce:	e7cc      	b.n	7000336a <HAL_PCD_Init+0x6a>
700033d0:	3101      	adds	r1, #1
700033d2:	f803 2c23 	strb.w	r2, [r3, #-35]
700033d6:	f803 0c24 	strb.w	r0, [r3, #-36]
700033da:	f803 2c20 	strb.w	r2, [r3, #-32]
700033de:	f843 2c14 	str.w	r2, [r3, #-20]
700033e2:	e943 2207 	strd	r2, r2, [r3, #-28]
700033e6:	e7c8      	b.n	7000337a <HAL_PCD_Init+0x7a>
700033e8:	40080000 	.word	0x40080000

700033ec <HAL_PCD_Start>:
700033ec:	b510      	push	{r4, lr}
700033ee:	4604      	mov	r4, r0
700033f0:	6800      	ldr	r0, [r0, #0]
700033f2:	f894 3494 	ldrb.w	r3, [r4, #1172]	@ 0x494
700033f6:	2b01      	cmp	r3, #1
700033f8:	d015      	beq.n	70003426 <HAL_PCD_Start+0x3a>
700033fa:	2301      	movs	r3, #1
700033fc:	f884 3494 	strb.w	r3, [r4, #1172]	@ 0x494
70003400:	68c3      	ldr	r3, [r0, #12]
70003402:	065b      	lsls	r3, r3, #25
70003404:	d506      	bpl.n	70003414 <HAL_PCD_Start+0x28>
70003406:	7b63      	ldrb	r3, [r4, #13]
70003408:	2b01      	cmp	r3, #1
7000340a:	d103      	bne.n	70003414 <HAL_PCD_Start+0x28>
7000340c:	6b83      	ldr	r3, [r0, #56]	@ 0x38
7000340e:	f443 3380 	orr.w	r3, r3, #65536	@ 0x10000
70003412:	6383      	str	r3, [r0, #56]	@ 0x38
70003414:	f003 fed8 	bl	700071c8 <USB_EnableGlobalInt>
70003418:	6820      	ldr	r0, [r4, #0]
7000341a:	f004 fad8 	bl	700079ce <USB_DevConnect>
7000341e:	2000      	movs	r0, #0
70003420:	f884 0494 	strb.w	r0, [r4, #1172]	@ 0x494
70003424:	bd10      	pop	{r4, pc}
70003426:	2002      	movs	r0, #2
70003428:	e7fc      	b.n	70003424 <HAL_PCD_Start+0x38>

7000342a <HAL_PCD_Stop>:
7000342a:	b538      	push	{r3, r4, r5, lr}
7000342c:	f890 3494 	ldrb.w	r3, [r0, #1172]	@ 0x494
70003430:	4604      	mov	r4, r0
70003432:	2b01      	cmp	r3, #1
70003434:	d01b      	beq.n	7000346e <HAL_PCD_Stop+0x44>
70003436:	2301      	movs	r3, #1
70003438:	6805      	ldr	r5, [r0, #0]
7000343a:	f880 3494 	strb.w	r3, [r0, #1172]	@ 0x494
7000343e:	4628      	mov	r0, r5
70003440:	f003 fec8 	bl	700071d4 <USB_DisableGlobalInt>
70003444:	6820      	ldr	r0, [r4, #0]
70003446:	f004 fad0 	bl	700079ea <USB_DevDisconnect>
7000344a:	2110      	movs	r1, #16
7000344c:	6820      	ldr	r0, [r4, #0]
7000344e:	f003 fef5 	bl	7000723c <USB_FlushTxFifo>
70003452:	68eb      	ldr	r3, [r5, #12]
70003454:	065b      	lsls	r3, r3, #25
70003456:	d506      	bpl.n	70003466 <HAL_PCD_Stop+0x3c>
70003458:	7b63      	ldrb	r3, [r4, #13]
7000345a:	2b01      	cmp	r3, #1
7000345c:	d103      	bne.n	70003466 <HAL_PCD_Stop+0x3c>
7000345e:	6bab      	ldr	r3, [r5, #56]	@ 0x38
70003460:	f423 3380 	bic.w	r3, r3, #65536	@ 0x10000
70003464:	63ab      	str	r3, [r5, #56]	@ 0x38
70003466:	2000      	movs	r0, #0
70003468:	f884 0494 	strb.w	r0, [r4, #1172]	@ 0x494
7000346c:	bd38      	pop	{r3, r4, r5, pc}
7000346e:	2002      	movs	r0, #2
70003470:	e7fc      	b.n	7000346c <HAL_PCD_Stop+0x42>

70003472 <HAL_PCD_SetAddress>:
70003472:	b510      	push	{r4, lr}
70003474:	f890 2494 	ldrb.w	r2, [r0, #1172]	@ 0x494
70003478:	4604      	mov	r4, r0
7000347a:	2a01      	cmp	r2, #1
7000347c:	d00a      	beq.n	70003494 <HAL_PCD_SetAddress+0x22>
7000347e:	2201      	movs	r2, #1
70003480:	7441      	strb	r1, [r0, #17]
70003482:	f880 2494 	strb.w	r2, [r0, #1172]	@ 0x494
70003486:	6800      	ldr	r0, [r0, #0]
70003488:	f004 fa91 	bl	700079ae <USB_SetDevAddress>
7000348c:	2000      	movs	r0, #0
7000348e:	f884 0494 	strb.w	r0, [r4, #1172]	@ 0x494
70003492:	bd10      	pop	{r4, pc}
70003494:	2002      	movs	r0, #2
70003496:	e7fc      	b.n	70003492 <HAL_PCD_SetAddress+0x20>

70003498 <HAL_PCD_EP_Open>:
70003498:	b570      	push	{r4, r5, r6, lr}
7000349a:	4605      	mov	r5, r0
7000349c:	2424      	movs	r4, #36	@ 0x24
7000349e:	f001 000f 	and.w	r0, r1, #15
700034a2:	f011 0f80 	tst.w	r1, #128	@ 0x80
700034a6:	f3c2 020a 	ubfx	r2, r2, #0, #11
700034aa:	fb00 f404 	mul.w	r4, r0, r4
700034ae:	bf14      	ite	ne
700034b0:	f104 0114 	addne.w	r1, r4, #20
700034b4:	f504 7115 	addeq.w	r1, r4, #596	@ 0x254
700034b8:	eb05 0604 	add.w	r6, r5, r4
700034bc:	bf19      	ittee	ne
700034be:	2401      	movne	r4, #1
700034c0:	1949      	addne	r1, r1, r5
700034c2:	1949      	addeq	r1, r1, r5
700034c4:	2400      	moveq	r4, #0
700034c6:	bf14      	ite	ne
700034c8:	7574      	strbne	r4, [r6, #21]
700034ca:	f886 4255 	strbeq.w	r4, [r6, #597]	@ 0x255
700034ce:	608a      	str	r2, [r1, #8]
700034d0:	784a      	ldrb	r2, [r1, #1]
700034d2:	7008      	strb	r0, [r1, #0]
700034d4:	710b      	strb	r3, [r1, #4]
700034d6:	b102      	cbz	r2, 700034da <HAL_PCD_EP_Open+0x42>
700034d8:	8348      	strh	r0, [r1, #26]
700034da:	2b02      	cmp	r3, #2
700034dc:	bf04      	itt	eq
700034de:	2300      	moveq	r3, #0
700034e0:	714b      	strbeq	r3, [r1, #5]
700034e2:	f895 3494 	ldrb.w	r3, [r5, #1172]	@ 0x494
700034e6:	2b01      	cmp	r3, #1
700034e8:	d009      	beq.n	700034fe <HAL_PCD_EP_Open+0x66>
700034ea:	2301      	movs	r3, #1
700034ec:	6828      	ldr	r0, [r5, #0]
700034ee:	f885 3494 	strb.w	r3, [r5, #1172]	@ 0x494
700034f2:	f003 ffd6 	bl	700074a2 <USB_ActivateEndpoint>
700034f6:	2000      	movs	r0, #0
700034f8:	f885 0494 	strb.w	r0, [r5, #1172]	@ 0x494
700034fc:	bd70      	pop	{r4, r5, r6, pc}
700034fe:	2002      	movs	r0, #2
70003500:	e7fc      	b.n	700034fc <HAL_PCD_EP_Open+0x64>

70003502 <HAL_PCD_EP_Close>:
70003502:	f001 020f 	and.w	r2, r1, #15
70003506:	2324      	movs	r3, #36	@ 0x24
70003508:	f011 0f80 	tst.w	r1, #128	@ 0x80
7000350c:	fb02 f303 	mul.w	r3, r2, r3
70003510:	b510      	push	{r4, lr}
70003512:	bf14      	ite	ne
70003514:	f103 0114 	addne.w	r1, r3, #20
70003518:	f503 7115 	addeq.w	r1, r3, #596	@ 0x254
7000351c:	4604      	mov	r4, r0
7000351e:	4418      	add	r0, r3
70003520:	bf15      	itete	ne
70003522:	2301      	movne	r3, #1
70003524:	2300      	moveq	r3, #0
70003526:	1909      	addne	r1, r1, r4
70003528:	1909      	addeq	r1, r1, r4
7000352a:	bf14      	ite	ne
7000352c:	7543      	strbne	r3, [r0, #21]
7000352e:	f880 3255 	strbeq.w	r3, [r0, #597]	@ 0x255
70003532:	700a      	strb	r2, [r1, #0]
70003534:	f894 3494 	ldrb.w	r3, [r4, #1172]	@ 0x494
70003538:	2b01      	cmp	r3, #1
7000353a:	d009      	beq.n	70003550 <HAL_PCD_EP_Close+0x4e>
7000353c:	2301      	movs	r3, #1
7000353e:	6820      	ldr	r0, [r4, #0]
70003540:	f884 3494 	strb.w	r3, [r4, #1172]	@ 0x494
70003544:	f003 ffec 	bl	70007520 <USB_DeactivateEndpoint>
70003548:	2000      	movs	r0, #0
7000354a:	f884 0494 	strb.w	r0, [r4, #1172]	@ 0x494
7000354e:	bd10      	pop	{r4, pc}
70003550:	2002      	movs	r0, #2
70003552:	e7fc      	b.n	7000354e <HAL_PCD_EP_Close+0x4c>

70003554 <HAL_PCD_EP_Receive>:
70003554:	b538      	push	{r3, r4, r5, lr}
70003556:	4615      	mov	r5, r2
70003558:	2424      	movs	r4, #36	@ 0x24
7000355a:	f001 020f 	and.w	r2, r1, #15
7000355e:	4354      	muls	r4, r2
70003560:	f504 7115 	add.w	r1, r4, #596	@ 0x254
70003564:	4404      	add	r4, r0
70003566:	e9c4 5398 	strd	r5, r3, [r4, #608]	@ 0x260
7000356a:	2300      	movs	r3, #0
7000356c:	f884 2254 	strb.w	r2, [r4, #596]	@ 0x254
70003570:	4401      	add	r1, r0
70003572:	f884 3255 	strb.w	r3, [r4, #597]	@ 0x255
70003576:	f8c4 3268 	str.w	r3, [r4, #616]	@ 0x268
7000357a:	7982      	ldrb	r2, [r0, #6]
7000357c:	6800      	ldr	r0, [r0, #0]
7000357e:	2a01      	cmp	r2, #1
70003580:	bf08      	it	eq
70003582:	f8c4 5270 	streq.w	r5, [r4, #624]	@ 0x270
70003586:	f004 f901 	bl	7000778c <USB_EPStartXfer>
7000358a:	2000      	movs	r0, #0
7000358c:	bd38      	pop	{r3, r4, r5, pc}

7000358e <HAL_PCD_EP_GetRxCount>:
7000358e:	f001 010f 	and.w	r1, r1, #15
70003592:	2324      	movs	r3, #36	@ 0x24
70003594:	fb03 0001 	mla	r0, r3, r1, r0
70003598:	f8d0 0268 	ldr.w	r0, [r0, #616]	@ 0x268
7000359c:	4770      	bx	lr

7000359e <HAL_PCD_EP_Transmit>:
7000359e:	b538      	push	{r3, r4, r5, lr}
700035a0:	4615      	mov	r5, r2
700035a2:	2424      	movs	r4, #36	@ 0x24
700035a4:	f001 020f 	and.w	r2, r1, #15
700035a8:	4354      	muls	r4, r2
700035aa:	f104 0114 	add.w	r1, r4, #20
700035ae:	4404      	add	r4, r0
700035b0:	e9c4 5308 	strd	r5, r3, [r4, #32]
700035b4:	2300      	movs	r3, #0
700035b6:	7522      	strb	r2, [r4, #20]
700035b8:	4401      	add	r1, r0
700035ba:	62a3      	str	r3, [r4, #40]	@ 0x28
700035bc:	2301      	movs	r3, #1
700035be:	7563      	strb	r3, [r4, #21]
700035c0:	7982      	ldrb	r2, [r0, #6]
700035c2:	6800      	ldr	r0, [r0, #0]
700035c4:	429a      	cmp	r2, r3
700035c6:	bf08      	it	eq
700035c8:	6325      	streq	r5, [r4, #48]	@ 0x30
700035ca:	f004 f8df 	bl	7000778c <USB_EPStartXfer>
700035ce:	2000      	movs	r0, #0
700035d0:	bd38      	pop	{r3, r4, r5, pc}

700035d2 <HAL_PCD_EP_SetStall>:
700035d2:	b538      	push	{r3, r4, r5, lr}
700035d4:	f001 050f 	and.w	r5, r1, #15
700035d8:	7903      	ldrb	r3, [r0, #4]
700035da:	4604      	mov	r4, r0
700035dc:	42ab      	cmp	r3, r5
700035de:	d32b      	bcc.n	70003638 <HAL_PCD_EP_SetStall+0x66>
700035e0:	f011 0f80 	tst.w	r1, #128	@ 0x80
700035e4:	f04f 0324 	mov.w	r3, #36	@ 0x24
700035e8:	d01d      	beq.n	70003626 <HAL_PCD_EP_SetStall+0x54>
700035ea:	436b      	muls	r3, r5
700035ec:	2201      	movs	r2, #1
700035ee:	f103 0114 	add.w	r1, r3, #20
700035f2:	4403      	add	r3, r0
700035f4:	4401      	add	r1, r0
700035f6:	755a      	strb	r2, [r3, #21]
700035f8:	2301      	movs	r3, #1
700035fa:	700d      	strb	r5, [r1, #0]
700035fc:	708b      	strb	r3, [r1, #2]
700035fe:	f894 2494 	ldrb.w	r2, [r4, #1172]	@ 0x494
70003602:	429a      	cmp	r2, r3
70003604:	d01a      	beq.n	7000363c <HAL_PCD_EP_SetStall+0x6a>
70003606:	6820      	ldr	r0, [r4, #0]
70003608:	f884 3494 	strb.w	r3, [r4, #1172]	@ 0x494
7000360c:	f004 f856 	bl	700076bc <USB_EPSetStall>
70003610:	b92d      	cbnz	r5, 7000361e <HAL_PCD_EP_SetStall+0x4c>
70003612:	f204 429c 	addw	r2, r4, #1180	@ 0x49c
70003616:	79a1      	ldrb	r1, [r4, #6]
70003618:	6820      	ldr	r0, [r4, #0]
7000361a:	f004 fa35 	bl	70007a88 <USB_EP0_OutStart>
7000361e:	2000      	movs	r0, #0
70003620:	f884 0494 	strb.w	r0, [r4, #1172]	@ 0x494
70003624:	bd38      	pop	{r3, r4, r5, pc}
70003626:	434b      	muls	r3, r1
70003628:	2200      	movs	r2, #0
7000362a:	f503 7115 	add.w	r1, r3, #596	@ 0x254
7000362e:	4403      	add	r3, r0
70003630:	4401      	add	r1, r0
70003632:	f883 2255 	strb.w	r2, [r3, #597]	@ 0x255
70003636:	e7df      	b.n	700035f8 <HAL_PCD_EP_SetStall+0x26>
70003638:	2001      	movs	r0, #1
7000363a:	e7f3      	b.n	70003624 <HAL_PCD_EP_SetStall+0x52>
7000363c:	2002      	movs	r0, #2
7000363e:	e7f1      	b.n	70003624 <HAL_PCD_EP_SetStall+0x52>

70003640 <HAL_PCD_EP_ClrStall>:
70003640:	b538      	push	{r3, r4, r5, lr}
70003642:	f001 020f 	and.w	r2, r1, #15
70003646:	7903      	ldrb	r3, [r0, #4]
70003648:	4604      	mov	r4, r0
7000364a:	4293      	cmp	r3, r2
7000364c:	d325      	bcc.n	7000369a <HAL_PCD_EP_ClrStall+0x5a>
7000364e:	2324      	movs	r3, #36	@ 0x24
70003650:	f011 0f80 	tst.w	r1, #128	@ 0x80
70003654:	f04f 0500 	mov.w	r5, #0
70003658:	fb02 f303 	mul.w	r3, r2, r3
7000365c:	bf14      	ite	ne
7000365e:	f103 0114 	addne.w	r1, r3, #20
70003662:	f503 7115 	addeq.w	r1, r3, #596	@ 0x254
70003666:	4418      	add	r0, r3
70003668:	bf19      	ittee	ne
7000366a:	2301      	movne	r3, #1
7000366c:	1909      	addne	r1, r1, r4
7000366e:	1909      	addeq	r1, r1, r4
70003670:	2300      	moveq	r3, #0
70003672:	bf14      	ite	ne
70003674:	7543      	strbne	r3, [r0, #21]
70003676:	f880 3255 	strbeq.w	r3, [r0, #597]	@ 0x255
7000367a:	708d      	strb	r5, [r1, #2]
7000367c:	700a      	strb	r2, [r1, #0]
7000367e:	f894 3494 	ldrb.w	r3, [r4, #1172]	@ 0x494
70003682:	2b01      	cmp	r3, #1
70003684:	d00b      	beq.n	7000369e <HAL_PCD_EP_ClrStall+0x5e>
70003686:	2301      	movs	r3, #1
70003688:	6820      	ldr	r0, [r4, #0]
7000368a:	f884 3494 	strb.w	r3, [r4, #1172]	@ 0x494
7000368e:	f004 f840 	bl	70007712 <USB_EPClearStall>
70003692:	4628      	mov	r0, r5
70003694:	f884 5494 	strb.w	r5, [r4, #1172]	@ 0x494
70003698:	bd38      	pop	{r3, r4, r5, pc}
7000369a:	2001      	movs	r0, #1
7000369c:	e7fc      	b.n	70003698 <HAL_PCD_EP_ClrStall+0x58>
7000369e:	2002      	movs	r0, #2
700036a0:	e7fa      	b.n	70003698 <HAL_PCD_EP_ClrStall+0x58>

700036a2 <HAL_PCD_EP_Abort>:
700036a2:	f001 030f 	and.w	r3, r1, #15
700036a6:	2224      	movs	r2, #36	@ 0x24
700036a8:	4353      	muls	r3, r2
700036aa:	060a      	lsls	r2, r1, #24
700036ac:	bf4c      	ite	mi
700036ae:	f103 0114 	addmi.w	r1, r3, #20
700036b2:	f503 7115 	addpl.w	r1, r3, #596	@ 0x254
700036b6:	4401      	add	r1, r0
700036b8:	6800      	ldr	r0, [r0, #0]
700036ba:	f003 bf87 	b.w	700075cc <USB_EPStopXfer>
	...

700036c0 <HAL_PCD_IRQHandler>:
700036c0:	e92d 4ff0 	stmdb	sp!, {r4, r5, r6, r7, r8, r9, sl, fp, lr}
700036c4:	6806      	ldr	r6, [r0, #0]
700036c6:	b089      	sub	sp, #36	@ 0x24
700036c8:	4604      	mov	r4, r0
700036ca:	4630      	mov	r0, r6
700036cc:	f004 f9c9 	bl	70007a62 <USB_GetMode>
700036d0:	9003      	str	r0, [sp, #12]
700036d2:	2800      	cmp	r0, #0
700036d4:	f040 816e 	bne.w	700039b4 <HAL_PCD_IRQHandler+0x2f4>
700036d8:	6820      	ldr	r0, [r4, #0]
700036da:	f004 f994 	bl	70007a06 <USB_ReadInterrupts>
700036de:	2800      	cmp	r0, #0
700036e0:	f000 8168 	beq.w	700039b4 <HAL_PCD_IRQHandler+0x2f4>
700036e4:	f8d6 3808 	ldr.w	r3, [r6, #2056]	@ 0x808
700036e8:	f506 6500 	add.w	r5, r6, #2048	@ 0x800
700036ec:	6820      	ldr	r0, [r4, #0]
700036ee:	f3c3 230d 	ubfx	r3, r3, #8, #14
700036f2:	f8c4 34d4 	str.w	r3, [r4, #1236]	@ 0x4d4
700036f6:	f004 f986 	bl	70007a06 <USB_ReadInterrupts>
700036fa:	0787      	lsls	r7, r0, #30
700036fc:	6823      	ldr	r3, [r4, #0]
700036fe:	d503      	bpl.n	70003708 <HAL_PCD_IRQHandler+0x48>
70003700:	695a      	ldr	r2, [r3, #20]
70003702:	f002 0202 	and.w	r2, r2, #2
70003706:	615a      	str	r2, [r3, #20]
70003708:	4618      	mov	r0, r3
7000370a:	f004 f97c 	bl	70007a06 <USB_ReadInterrupts>
7000370e:	06c0      	lsls	r0, r0, #27
70003710:	d52d      	bpl.n	7000376e <HAL_PCD_IRQHandler+0xae>
70003712:	6822      	ldr	r2, [r4, #0]
70003714:	6993      	ldr	r3, [r2, #24]
70003716:	f023 0310 	bic.w	r3, r3, #16
7000371a:	6193      	str	r3, [r2, #24]
7000371c:	f8d6 8020 	ldr.w	r8, [r6, #32]
70003720:	f408 13f0 	and.w	r3, r8, #1966080	@ 0x1e0000
70003724:	f008 070f 	and.w	r7, r8, #15
70003728:	f5b3 2f80 	cmp.w	r3, #262144	@ 0x40000
7000372c:	f040 8145 	bne.w	700039ba <HAL_PCD_IRQHandler+0x2fa>
70003730:	f647 73f0 	movw	r3, #32752	@ 0x7ff0
70003734:	ea18 0f03 	tst.w	r8, r3
70003738:	d014      	beq.n	70003764 <HAL_PCD_IRQHandler+0xa4>
7000373a:	2324      	movs	r3, #36	@ 0x24
7000373c:	f3c8 190a 	ubfx	r9, r8, #4, #11
70003740:	4630      	mov	r0, r6
70003742:	fb03 4707 	mla	r7, r3, r7, r4
70003746:	464a      	mov	r2, r9
70003748:	f8d7 1260 	ldr.w	r1, [r7, #608]	@ 0x260
7000374c:	f004 f90e 	bl	7000796c <USB_ReadPacket>
70003750:	f8d7 3260 	ldr.w	r3, [r7, #608]	@ 0x260
70003754:	444b      	add	r3, r9
70003756:	f8c7 3260 	str.w	r3, [r7, #608]	@ 0x260
7000375a:	f8d7 3268 	ldr.w	r3, [r7, #616]	@ 0x268
7000375e:	444b      	add	r3, r9
70003760:	f8c7 3268 	str.w	r3, [r7, #616]	@ 0x268
70003764:	6822      	ldr	r2, [r4, #0]
70003766:	6993      	ldr	r3, [r2, #24]
70003768:	f043 0310 	orr.w	r3, r3, #16
7000376c:	6193      	str	r3, [r2, #24]
7000376e:	6820      	ldr	r0, [r4, #0]
70003770:	f004 f949 	bl	70007a06 <USB_ReadInterrupts>
70003774:	0301      	lsls	r1, r0, #12
70003776:	f100 8133 	bmi.w	700039e0 <HAL_PCD_IRQHandler+0x320>
7000377a:	6820      	ldr	r0, [r4, #0]
7000377c:	f004 f943 	bl	70007a06 <USB_ReadInterrupts>
70003780:	0342      	lsls	r2, r0, #13
70003782:	d50c      	bpl.n	7000379e <HAL_PCD_IRQHandler+0xde>
70003784:	4627      	mov	r7, r4
70003786:	f506 6b10 	add.w	fp, r6, #2304	@ 0x900
7000378a:	f04f 0a00 	mov.w	sl, #0
7000378e:	6820      	ldr	r0, [r4, #0]
70003790:	f004 f945 	bl	70007a1e <USB_ReadDevAllInEpInterrupt>
70003794:	9004      	str	r0, [sp, #16]
70003796:	9b04      	ldr	r3, [sp, #16]
70003798:	2b00      	cmp	r3, #0
7000379a:	f040 81eb 	bne.w	70003b74 <HAL_PCD_IRQHandler+0x4b4>
7000379e:	6820      	ldr	r0, [r4, #0]
700037a0:	f004 f931 	bl	70007a06 <USB_ReadInterrupts>
700037a4:	2800      	cmp	r0, #0
700037a6:	da13      	bge.n	700037d0 <HAL_PCD_IRQHandler+0x110>
700037a8:	686b      	ldr	r3, [r5, #4]
700037aa:	f023 0301 	bic.w	r3, r3, #1
700037ae:	606b      	str	r3, [r5, #4]
700037b0:	f894 34cc 	ldrb.w	r3, [r4, #1228]	@ 0x4cc
700037b4:	2b01      	cmp	r3, #1
700037b6:	f040 8284 	bne.w	70003cc2 <HAL_PCD_IRQHandler+0x602>
700037ba:	2100      	movs	r1, #0
700037bc:	4620      	mov	r0, r4
700037be:	f884 14cc 	strb.w	r1, [r4, #1228]	@ 0x4cc
700037c2:	f000 fb3a 	bl	70003e3a <HAL_PCDEx_LPM_Callback>
700037c6:	6822      	ldr	r2, [r4, #0]
700037c8:	6953      	ldr	r3, [r2, #20]
700037ca:	f003 4300 	and.w	r3, r3, #2147483648	@ 0x80000000
700037ce:	6153      	str	r3, [r2, #20]
700037d0:	6820      	ldr	r0, [r4, #0]
700037d2:	f004 f918 	bl	70007a06 <USB_ReadInterrupts>
700037d6:	0503      	lsls	r3, r0, #20
700037d8:	d50a      	bpl.n	700037f0 <HAL_PCD_IRQHandler+0x130>
700037da:	68ab      	ldr	r3, [r5, #8]
700037dc:	07df      	lsls	r7, r3, #31
700037de:	d502      	bpl.n	700037e6 <HAL_PCD_IRQHandler+0x126>
700037e0:	4620      	mov	r0, r4
700037e2:	f7fd f8c3 	bl	7000096c <HAL_PCD_SuspendCallback>
700037e6:	6822      	ldr	r2, [r4, #0]
700037e8:	6953      	ldr	r3, [r2, #20]
700037ea:	f403 6300 	and.w	r3, r3, #2048	@ 0x800
700037ee:	6153      	str	r3, [r2, #20]
700037f0:	6820      	ldr	r0, [r4, #0]
700037f2:	f004 f908 	bl	70007a06 <USB_ReadInterrupts>
700037f6:	0100      	lsls	r0, r0, #4
700037f8:	d514      	bpl.n	70003824 <HAL_PCD_IRQHandler+0x164>
700037fa:	6823      	ldr	r3, [r4, #0]
700037fc:	695a      	ldr	r2, [r3, #20]
700037fe:	f002 6200 	and.w	r2, r2, #134217728	@ 0x8000000
70003802:	615a      	str	r2, [r3, #20]
70003804:	f894 24cc 	ldrb.w	r2, [r4, #1228]	@ 0x4cc
70003808:	2a00      	cmp	r2, #0
7000380a:	f040 825e 	bne.w	70003cca <HAL_PCD_IRQHandler+0x60a>
7000380e:	2101      	movs	r1, #1
70003810:	4620      	mov	r0, r4
70003812:	f884 14cc 	strb.w	r1, [r4, #1228]	@ 0x4cc
70003816:	6d5b      	ldr	r3, [r3, #84]	@ 0x54
70003818:	f3c3 0383 	ubfx	r3, r3, #2, #4
7000381c:	f8c4 34d0 	str.w	r3, [r4, #1232]	@ 0x4d0
70003820:	f000 fb0b 	bl	70003e3a <HAL_PCDEx_LPM_Callback>
70003824:	6820      	ldr	r0, [r4, #0]
70003826:	f004 f8ee 	bl	70007a06 <USB_ReadInterrupts>
7000382a:	04c1      	lsls	r1, r0, #19
7000382c:	d533      	bpl.n	70003896 <HAL_PCD_IRQHandler+0x1d6>
7000382e:	686b      	ldr	r3, [r5, #4]
70003830:	2110      	movs	r1, #16
70003832:	6820      	ldr	r0, [r4, #0]
70003834:	f023 0301 	bic.w	r3, r3, #1
70003838:	606b      	str	r3, [r5, #4]
7000383a:	f003 fcff 	bl	7000723c <USB_FlushTxFifo>
7000383e:	7920      	ldrb	r0, [r4, #4]
70003840:	f506 6310 	add.w	r3, r6, #2304	@ 0x900
70003844:	f64f 317f 	movw	r1, #64383	@ 0xfb7f
70003848:	9a03      	ldr	r2, [sp, #12]
7000384a:	4290      	cmp	r0, r2
7000384c:	f200 8241 	bhi.w	70003cd2 <HAL_PCD_IRQHandler+0x612>
70003850:	69eb      	ldr	r3, [r5, #28]
70003852:	f043 1301 	orr.w	r3, r3, #65537	@ 0x10001
70003856:	61eb      	str	r3, [r5, #28]
70003858:	7be3      	ldrb	r3, [r4, #15]
7000385a:	2b00      	cmp	r3, #0
7000385c:	f000 8258 	beq.w	70003d10 <HAL_PCD_IRQHandler+0x650>
70003860:	f8d5 3084 	ldr.w	r3, [r5, #132]	@ 0x84
70003864:	f043 030b 	orr.w	r3, r3, #11
70003868:	f8c5 3084 	str.w	r3, [r5, #132]	@ 0x84
7000386c:	6c6b      	ldr	r3, [r5, #68]	@ 0x44
7000386e:	f043 030b 	orr.w	r3, r3, #11
70003872:	646b      	str	r3, [r5, #68]	@ 0x44
70003874:	f8d6 3800 	ldr.w	r3, [r6, #2048]	@ 0x800
70003878:	f204 429c 	addw	r2, r4, #1180	@ 0x49c
7000387c:	6820      	ldr	r0, [r4, #0]
7000387e:	f423 63fe 	bic.w	r3, r3, #2032	@ 0x7f0
70003882:	f8c6 3800 	str.w	r3, [r6, #2048]	@ 0x800
70003886:	79a1      	ldrb	r1, [r4, #6]
70003888:	f004 f8fe 	bl	70007a88 <USB_EP0_OutStart>
7000388c:	6822      	ldr	r2, [r4, #0]
7000388e:	6953      	ldr	r3, [r2, #20]
70003890:	f403 5380 	and.w	r3, r3, #4096	@ 0x1000
70003894:	6153      	str	r3, [r2, #20]
70003896:	6820      	ldr	r0, [r4, #0]
70003898:	f004 f8b5 	bl	70007a06 <USB_ReadInterrupts>
7000389c:	0482      	lsls	r2, r0, #18
7000389e:	d516      	bpl.n	700038ce <HAL_PCD_IRQHandler+0x20e>
700038a0:	6820      	ldr	r0, [r4, #0]
700038a2:	f004 f8e2 	bl	70007a6a <USB_ActivateSetup>
700038a6:	6820      	ldr	r0, [r4, #0]
700038a8:	f003 fdf0 	bl	7000748c <USB_GetDevSpeed>
700038ac:	6827      	ldr	r7, [r4, #0]
700038ae:	71e0      	strb	r0, [r4, #7]
700038b0:	f000 fcaa 	bl	70004208 <HAL_RCC_GetHCLKFreq>
700038b4:	79e2      	ldrb	r2, [r4, #7]
700038b6:	4601      	mov	r1, r0
700038b8:	4638      	mov	r0, r7
700038ba:	f003 fc15 	bl	700070e8 <USB_SetTurnaroundTime>
700038be:	4620      	mov	r0, r4
700038c0:	f7fd f841 	bl	70000946 <HAL_PCD_ResetCallback>
700038c4:	6822      	ldr	r2, [r4, #0]
700038c6:	6953      	ldr	r3, [r2, #20]
700038c8:	f403 5300 	and.w	r3, r3, #8192	@ 0x2000
700038cc:	6153      	str	r3, [r2, #20]
700038ce:	6820      	ldr	r0, [r4, #0]
700038d0:	f004 f899 	bl	70007a06 <USB_ReadInterrupts>
700038d4:	0703      	lsls	r3, r0, #28
700038d6:	d507      	bpl.n	700038e8 <HAL_PCD_IRQHandler+0x228>
700038d8:	4620      	mov	r0, r4
700038da:	f7fd f830 	bl	7000093e <HAL_PCD_SOFCallback>
700038de:	6822      	ldr	r2, [r4, #0]
700038e0:	6953      	ldr	r3, [r2, #20]
700038e2:	f003 0308 	and.w	r3, r3, #8
700038e6:	6153      	str	r3, [r2, #20]
700038e8:	6820      	ldr	r0, [r4, #0]
700038ea:	f004 f88c 	bl	70007a06 <USB_ReadInterrupts>
700038ee:	0607      	lsls	r7, r0, #24
700038f0:	f100 8219 	bmi.w	70003d26 <HAL_PCD_IRQHandler+0x666>
700038f4:	6820      	ldr	r0, [r4, #0]
700038f6:	f004 f886 	bl	70007a06 <USB_ReadInterrupts>
700038fa:	02c0      	lsls	r0, r0, #11
700038fc:	d50c      	bpl.n	70003918 <HAL_PCD_IRQHandler+0x258>
700038fe:	46a0      	mov	r8, r4
70003900:	f506 6912 	add.w	r9, r6, #2336	@ 0x920
70003904:	2701      	movs	r7, #1
70003906:	7923      	ldrb	r3, [r4, #4]
70003908:	42bb      	cmp	r3, r7
7000390a:	f200 822b 	bhi.w	70003d64 <HAL_PCD_IRQHandler+0x6a4>
7000390e:	6822      	ldr	r2, [r4, #0]
70003910:	6953      	ldr	r3, [r2, #20]
70003912:	f403 1380 	and.w	r3, r3, #1048576	@ 0x100000
70003916:	6153      	str	r3, [r2, #20]
70003918:	6820      	ldr	r0, [r4, #0]
7000391a:	f004 f874 	bl	70007a06 <USB_ReadInterrupts>
7000391e:	0281      	lsls	r1, r0, #10
70003920:	d52b      	bpl.n	7000397a <HAL_PCD_IRQHandler+0x2ba>
70003922:	f894 e004 	ldrb.w	lr, [r4, #4]
70003926:	4623      	mov	r3, r4
70003928:	f506 6132 	add.w	r1, r6, #2848	@ 0xb20
7000392c:	f04f 0c01 	mov.w	ip, #1
70003930:	45e6      	cmp	lr, ip
70003932:	d91d      	bls.n	70003970 <HAL_PCD_IRQHandler+0x2b0>
70003934:	f893 727c 	ldrb.w	r7, [r3, #636]	@ 0x27c
70003938:	6808      	ldr	r0, [r1, #0]
7000393a:	2f01      	cmp	r7, #1
7000393c:	f040 8228 	bne.w	70003d90 <HAL_PCD_IRQHandler+0x6d0>
70003940:	2800      	cmp	r0, #0
70003942:	f280 8225 	bge.w	70003d90 <HAL_PCD_IRQHandler+0x6d0>
70003946:	f8d4 24d4 	ldr.w	r2, [r4, #1236]	@ 0x4d4
7000394a:	ea82 4010 	eor.w	r0, r2, r0, lsr #16
7000394e:	07c2      	lsls	r2, r0, #31
70003950:	f100 821e 	bmi.w	70003d90 <HAL_PCD_IRQHandler+0x6d0>
70003954:	f883 727b 	strb.w	r7, [r3, #635]	@ 0x27b
70003958:	69b0      	ldr	r0, [r6, #24]
7000395a:	f040 0080 	orr.w	r0, r0, #128	@ 0x80
7000395e:	61b0      	str	r0, [r6, #24]
70003960:	6970      	ldr	r0, [r6, #20]
70003962:	0600      	lsls	r0, r0, #24
70003964:	f100 8214 	bmi.w	70003d90 <HAL_PCD_IRQHandler+0x6d0>
70003968:	686b      	ldr	r3, [r5, #4]
7000396a:	f443 7300 	orr.w	r3, r3, #512	@ 0x200
7000396e:	606b      	str	r3, [r5, #4]
70003970:	6822      	ldr	r2, [r4, #0]
70003972:	6953      	ldr	r3, [r2, #20]
70003974:	f403 1300 	and.w	r3, r3, #2097152	@ 0x200000
70003978:	6153      	str	r3, [r2, #20]
7000397a:	6820      	ldr	r0, [r4, #0]
7000397c:	f004 f843 	bl	70007a06 <USB_ReadInterrupts>
70003980:	0041      	lsls	r1, r0, #1
70003982:	d507      	bpl.n	70003994 <HAL_PCD_IRQHandler+0x2d4>
70003984:	4620      	mov	r0, r4
70003986:	f7fd f82d 	bl	700009e4 <HAL_PCD_ConnectCallback>
7000398a:	6822      	ldr	r2, [r4, #0]
7000398c:	6953      	ldr	r3, [r2, #20]
7000398e:	f003 4380 	and.w	r3, r3, #1073741824	@ 0x40000000
70003992:	6153      	str	r3, [r2, #20]
70003994:	6820      	ldr	r0, [r4, #0]
70003996:	f004 f836 	bl	70007a06 <USB_ReadInterrupts>
7000399a:	0742      	lsls	r2, r0, #29
7000399c:	d50a      	bpl.n	700039b4 <HAL_PCD_IRQHandler+0x2f4>
7000399e:	6823      	ldr	r3, [r4, #0]
700039a0:	685d      	ldr	r5, [r3, #4]
700039a2:	076b      	lsls	r3, r5, #29
700039a4:	d502      	bpl.n	700039ac <HAL_PCD_IRQHandler+0x2ec>
700039a6:	4620      	mov	r0, r4
700039a8:	f7fd f820 	bl	700009ec <HAL_PCD_DisconnectCallback>
700039ac:	6822      	ldr	r2, [r4, #0]
700039ae:	6853      	ldr	r3, [r2, #4]
700039b0:	432b      	orrs	r3, r5
700039b2:	6053      	str	r3, [r2, #4]
700039b4:	b009      	add	sp, #36	@ 0x24
700039b6:	e8bd 8ff0 	ldmia.w	sp!, {r4, r5, r6, r7, r8, r9, sl, fp, pc}
700039ba:	f5b3 2f40 	cmp.w	r3, #786432	@ 0xc0000
700039be:	f47f aed1 	bne.w	70003764 <HAL_PCD_IRQHandler+0xa4>
700039c2:	2208      	movs	r2, #8
700039c4:	f204 419c 	addw	r1, r4, #1180	@ 0x49c
700039c8:	4630      	mov	r0, r6
700039ca:	f3c8 180a 	ubfx	r8, r8, #4, #11
700039ce:	f003 ffcd 	bl	7000796c <USB_ReadPacket>
700039d2:	2324      	movs	r3, #36	@ 0x24
700039d4:	fb03 4707 	mla	r7, r3, r7, r4
700039d8:	f8d7 3268 	ldr.w	r3, [r7, #616]	@ 0x268
700039dc:	4443      	add	r3, r8
700039de:	e6bf      	b.n	70003760 <HAL_PCD_IRQHandler+0xa0>
700039e0:	f506 6830 	add.w	r8, r6, #2816	@ 0xb00
700039e4:	46a2      	mov	sl, r4
700039e6:	2700      	movs	r7, #0
700039e8:	6820      	ldr	r0, [r4, #0]
700039ea:	f004 f810 	bl	70007a0e <USB_ReadDevAllOutEpInterrupt>
700039ee:	9004      	str	r0, [sp, #16]
700039f0:	9b04      	ldr	r3, [sp, #16]
700039f2:	2b00      	cmp	r3, #0
700039f4:	f43f aec1 	beq.w	7000377a <HAL_PCD_IRQHandler+0xba>
700039f8:	9b04      	ldr	r3, [sp, #16]
700039fa:	07db      	lsls	r3, r3, #31
700039fc:	d579      	bpl.n	70003af2 <HAL_PCD_IRQHandler+0x432>
700039fe:	fa5f fb87 	uxtb.w	fp, r7
70003a02:	6820      	ldr	r0, [r4, #0]
70003a04:	4659      	mov	r1, fp
70003a06:	f004 f812 	bl	70007a2e <USB_ReadDevOutEPInterrupt>
70003a0a:	f010 0f01 	tst.w	r0, #1
70003a0e:	4681      	mov	r9, r0
70003a10:	d01f      	beq.n	70003a52 <HAL_PCD_IRQHandler+0x392>
70003a12:	2301      	movs	r3, #1
70003a14:	6820      	ldr	r0, [r4, #0]
70003a16:	f8c8 3008 	str.w	r3, [r8, #8]
70003a1a:	f500 6330 	add.w	r3, r0, #2816	@ 0xb00
70003a1e:	f894 c006 	ldrb.w	ip, [r4, #6]
70003a22:	eb03 1347 	add.w	r3, r3, r7, lsl #5
70003a26:	6c01      	ldr	r1, [r0, #64]	@ 0x40
70003a28:	f1bc 0f01 	cmp.w	ip, #1
70003a2c:	689a      	ldr	r2, [r3, #8]
70003a2e:	f040 808b 	bne.w	70003b48 <HAL_PCD_IRQHandler+0x488>
70003a32:	f012 0f08 	tst.w	r2, #8
70003a36:	d007      	beq.n	70003a48 <HAL_PCD_IRQHandler+0x388>
70003a38:	48b3      	ldr	r0, [pc, #716]	@ (70003d08 <HAL_PCD_IRQHandler+0x648>)
70003a3a:	4281      	cmp	r1, r0
70003a3c:	d909      	bls.n	70003a52 <HAL_PCD_IRQHandler+0x392>
70003a3e:	0412      	lsls	r2, r2, #16
70003a40:	d507      	bpl.n	70003a52 <HAL_PCD_IRQHandler+0x392>
70003a42:	f44f 4200 	mov.w	r2, #32768	@ 0x8000
70003a46:	e003      	b.n	70003a50 <HAL_PCD_IRQHandler+0x390>
70003a48:	f012 0f20 	tst.w	r2, #32
70003a4c:	d05a      	beq.n	70003b04 <HAL_PCD_IRQHandler+0x444>
70003a4e:	2220      	movs	r2, #32
70003a50:	609a      	str	r2, [r3, #8]
70003a52:	f019 0f08 	tst.w	r9, #8
70003a56:	d021      	beq.n	70003a9c <HAL_PCD_IRQHandler+0x3dc>
70003a58:	2308      	movs	r3, #8
70003a5a:	49ab      	ldr	r1, [pc, #684]	@ (70003d08 <HAL_PCD_IRQHandler+0x648>)
70003a5c:	f8c8 3008 	str.w	r3, [r8, #8]
70003a60:	6823      	ldr	r3, [r4, #0]
70003a62:	6c1a      	ldr	r2, [r3, #64]	@ 0x40
70003a64:	f503 6330 	add.w	r3, r3, #2816	@ 0xb00
70003a68:	428a      	cmp	r2, r1
70003a6a:	eb03 1347 	add.w	r3, r3, r7, lsl #5
70003a6e:	6898      	ldr	r0, [r3, #8]
70003a70:	d904      	bls.n	70003a7c <HAL_PCD_IRQHandler+0x3bc>
70003a72:	0400      	lsls	r0, r0, #16
70003a74:	d502      	bpl.n	70003a7c <HAL_PCD_IRQHandler+0x3bc>
70003a76:	f44f 4000 	mov.w	r0, #32768	@ 0x8000
70003a7a:	6098      	str	r0, [r3, #8]
70003a7c:	4620      	mov	r0, r4
70003a7e:	9205      	str	r2, [sp, #20]
70003a80:	f7fc ff46 	bl	70000910 <HAL_PCD_SetupStageCallback>
70003a84:	9a05      	ldr	r2, [sp, #20]
70003a86:	49a0      	ldr	r1, [pc, #640]	@ (70003d08 <HAL_PCD_IRQHandler+0x648>)
70003a88:	428a      	cmp	r2, r1
70003a8a:	d907      	bls.n	70003a9c <HAL_PCD_IRQHandler+0x3dc>
70003a8c:	79a1      	ldrb	r1, [r4, #6]
70003a8e:	2901      	cmp	r1, #1
70003a90:	d104      	bne.n	70003a9c <HAL_PCD_IRQHandler+0x3dc>
70003a92:	f204 429c 	addw	r2, r4, #1180	@ 0x49c
70003a96:	6820      	ldr	r0, [r4, #0]
70003a98:	f003 fff6 	bl	70007a88 <USB_EP0_OutStart>
70003a9c:	f019 0f10 	tst.w	r9, #16
70003aa0:	d002      	beq.n	70003aa8 <HAL_PCD_IRQHandler+0x3e8>
70003aa2:	2310      	movs	r3, #16
70003aa4:	f8c8 3008 	str.w	r3, [r8, #8]
70003aa8:	f019 0f02 	tst.w	r9, #2
70003aac:	d014      	beq.n	70003ad8 <HAL_PCD_IRQHandler+0x418>
70003aae:	6973      	ldr	r3, [r6, #20]
70003ab0:	0619      	lsls	r1, r3, #24
70003ab2:	d503      	bpl.n	70003abc <HAL_PCD_IRQHandler+0x3fc>
70003ab4:	686b      	ldr	r3, [r5, #4]
70003ab6:	f443 6380 	orr.w	r3, r3, #1024	@ 0x400
70003aba:	606b      	str	r3, [r5, #4]
70003abc:	f89a 3257 	ldrb.w	r3, [sl, #599]	@ 0x257
70003ac0:	2b01      	cmp	r3, #1
70003ac2:	d106      	bne.n	70003ad2 <HAL_PCD_IRQHandler+0x412>
70003ac4:	2300      	movs	r3, #0
70003ac6:	4659      	mov	r1, fp
70003ac8:	4620      	mov	r0, r4
70003aca:	f88a 3257 	strb.w	r3, [sl, #599]	@ 0x257
70003ace:	f7fc ff81 	bl	700009d4 <HAL_PCD_ISOOUTIncompleteCallback>
70003ad2:	2302      	movs	r3, #2
70003ad4:	f8c8 3008 	str.w	r3, [r8, #8]
70003ad8:	f019 0f20 	tst.w	r9, #32
70003adc:	d002      	beq.n	70003ae4 <HAL_PCD_IRQHandler+0x424>
70003ade:	2320      	movs	r3, #32
70003ae0:	f8c8 3008 	str.w	r3, [r8, #8]
70003ae4:	f419 5f00 	tst.w	r9, #8192	@ 0x2000
70003ae8:	d003      	beq.n	70003af2 <HAL_PCD_IRQHandler+0x432>
70003aea:	f44f 5300 	mov.w	r3, #8192	@ 0x2000
70003aee:	f8c8 3008 	str.w	r3, [r8, #8]
70003af2:	9b04      	ldr	r3, [sp, #16]
70003af4:	3701      	adds	r7, #1
70003af6:	f108 0820 	add.w	r8, r8, #32
70003afa:	f10a 0a24 	add.w	sl, sl, #36	@ 0x24
70003afe:	085b      	lsrs	r3, r3, #1
70003b00:	9304      	str	r3, [sp, #16]
70003b02:	e775      	b.n	700039f0 <HAL_PCD_IRQHandler+0x330>
70003b04:	f8df c200 	ldr.w	ip, [pc, #512]	@ 70003d08 <HAL_PCD_IRQHandler+0x648>
70003b08:	4561      	cmp	r1, ip
70003b0a:	d901      	bls.n	70003b10 <HAL_PCD_IRQHandler+0x450>
70003b0c:	0412      	lsls	r2, r2, #16
70003b0e:	d498      	bmi.n	70003a42 <HAL_PCD_IRQHandler+0x382>
70003b10:	691a      	ldr	r2, [r3, #16]
70003b12:	f8da 3274 	ldr.w	r3, [sl, #628]	@ 0x274
70003b16:	f3c2 0212 	ubfx	r2, r2, #0, #19
70003b1a:	1a9b      	subs	r3, r3, r2
70003b1c:	f8ca 3268 	str.w	r3, [sl, #616]	@ 0x268
70003b20:	b96f      	cbnz	r7, 70003b3e <HAL_PCD_IRQHandler+0x47e>
70003b22:	f8d4 2264 	ldr.w	r2, [r4, #612]	@ 0x264
70003b26:	b92a      	cbnz	r2, 70003b34 <HAL_PCD_IRQHandler+0x474>
70003b28:	f204 429c 	addw	r2, r4, #1180	@ 0x49c
70003b2c:	2101      	movs	r1, #1
70003b2e:	f003 ffab 	bl	70007a88 <USB_EP0_OutStart>
70003b32:	e004      	b.n	70003b3e <HAL_PCD_IRQHandler+0x47e>
70003b34:	f8d4 2260 	ldr.w	r2, [r4, #608]	@ 0x260
70003b38:	441a      	add	r2, r3
70003b3a:	f8c4 2260 	str.w	r2, [r4, #608]	@ 0x260
70003b3e:	4659      	mov	r1, fp
70003b40:	4620      	mov	r0, r4
70003b42:	f7fc feeb 	bl	7000091c <HAL_PCD_DataOutStageCallback>
70003b46:	e784      	b.n	70003a52 <HAL_PCD_IRQHandler+0x392>
70003b48:	f8df c1c0 	ldr.w	ip, [pc, #448]	@ 70003d0c <HAL_PCD_IRQHandler+0x64c>
70003b4c:	4561      	cmp	r1, ip
70003b4e:	d107      	bne.n	70003b60 <HAL_PCD_IRQHandler+0x4a0>
70003b50:	0411      	lsls	r1, r2, #16
70003b52:	f53f af76 	bmi.w	70003a42 <HAL_PCD_IRQHandler+0x382>
70003b56:	0692      	lsls	r2, r2, #26
70003b58:	d5f1      	bpl.n	70003b3e <HAL_PCD_IRQHandler+0x47e>
70003b5a:	2220      	movs	r2, #32
70003b5c:	609a      	str	r2, [r3, #8]
70003b5e:	e7ee      	b.n	70003b3e <HAL_PCD_IRQHandler+0x47e>
70003b60:	2f00      	cmp	r7, #0
70003b62:	d1ec      	bne.n	70003b3e <HAL_PCD_IRQHandler+0x47e>
70003b64:	f8d4 3264 	ldr.w	r3, [r4, #612]	@ 0x264
70003b68:	2b00      	cmp	r3, #0
70003b6a:	d1e8      	bne.n	70003b3e <HAL_PCD_IRQHandler+0x47e>
70003b6c:	f204 429c 	addw	r2, r4, #1180	@ 0x49c
70003b70:	4639      	mov	r1, r7
70003b72:	e7dc      	b.n	70003b2e <HAL_PCD_IRQHandler+0x46e>
70003b74:	9b04      	ldr	r3, [sp, #16]
70003b76:	07da      	lsls	r2, r3, #31
70003b78:	f140 809a 	bpl.w	70003cb0 <HAL_PCD_IRQHandler+0x5f0>
70003b7c:	fa5f f38a 	uxtb.w	r3, sl
70003b80:	6820      	ldr	r0, [r4, #0]
70003b82:	4619      	mov	r1, r3
70003b84:	9307      	str	r3, [sp, #28]
70003b86:	f003 ff5b 	bl	70007a40 <USB_ReadDevInEPInterrupt>
70003b8a:	f010 0f01 	tst.w	r0, #1
70003b8e:	4680      	mov	r8, r0
70003b90:	d020      	beq.n	70003bd4 <HAL_PCD_IRQHandler+0x514>
70003b92:	2101      	movs	r1, #1
70003b94:	f00a 020f 	and.w	r2, sl, #15
70003b98:	6b6b      	ldr	r3, [r5, #52]	@ 0x34
70003b9a:	fa01 f202 	lsl.w	r2, r1, r2
70003b9e:	ea23 0302 	bic.w	r3, r3, r2
70003ba2:	636b      	str	r3, [r5, #52]	@ 0x34
70003ba4:	f8cb 1008 	str.w	r1, [fp, #8]
70003ba8:	79a1      	ldrb	r1, [r4, #6]
70003baa:	2901      	cmp	r1, #1
70003bac:	d10d      	bne.n	70003bca <HAL_PCD_IRQHandler+0x50a>
70003bae:	e9d7 2307 	ldrd	r2, r3, [r7, #28]
70003bb2:	4413      	add	r3, r2
70003bb4:	623b      	str	r3, [r7, #32]
70003bb6:	f1ba 0f00 	cmp.w	sl, #0
70003bba:	d106      	bne.n	70003bca <HAL_PCD_IRQHandler+0x50a>
70003bbc:	6a63      	ldr	r3, [r4, #36]	@ 0x24
70003bbe:	b923      	cbnz	r3, 70003bca <HAL_PCD_IRQHandler+0x50a>
70003bc0:	f204 429c 	addw	r2, r4, #1180	@ 0x49c
70003bc4:	6820      	ldr	r0, [r4, #0]
70003bc6:	f003 ff5f 	bl	70007a88 <USB_EP0_OutStart>
70003bca:	fa5f f18a 	uxtb.w	r1, sl
70003bce:	4620      	mov	r0, r4
70003bd0:	f7fc fead 	bl	7000092e <HAL_PCD_DataInStageCallback>
70003bd4:	f018 0f08 	tst.w	r8, #8
70003bd8:	d002      	beq.n	70003be0 <HAL_PCD_IRQHandler+0x520>
70003bda:	2308      	movs	r3, #8
70003bdc:	f8cb 3008 	str.w	r3, [fp, #8]
70003be0:	f018 0f10 	tst.w	r8, #16
70003be4:	d002      	beq.n	70003bec <HAL_PCD_IRQHandler+0x52c>
70003be6:	2310      	movs	r3, #16
70003be8:	f8cb 3008 	str.w	r3, [fp, #8]
70003bec:	f018 0f40 	tst.w	r8, #64	@ 0x40
70003bf0:	d002      	beq.n	70003bf8 <HAL_PCD_IRQHandler+0x538>
70003bf2:	2340      	movs	r3, #64	@ 0x40
70003bf4:	f8cb 3008 	str.w	r3, [fp, #8]
70003bf8:	f018 0f02 	tst.w	r8, #2
70003bfc:	d010      	beq.n	70003c20 <HAL_PCD_IRQHandler+0x560>
70003bfe:	4651      	mov	r1, sl
70003c00:	4630      	mov	r0, r6
70003c02:	f003 fb1b 	bl	7000723c <USB_FlushTxFifo>
70003c06:	7dfb      	ldrb	r3, [r7, #23]
70003c08:	2b01      	cmp	r3, #1
70003c0a:	d106      	bne.n	70003c1a <HAL_PCD_IRQHandler+0x55a>
70003c0c:	2300      	movs	r3, #0
70003c0e:	fa5f f18a 	uxtb.w	r1, sl
70003c12:	4620      	mov	r0, r4
70003c14:	75fb      	strb	r3, [r7, #23]
70003c16:	f7fc fee1 	bl	700009dc <HAL_PCD_ISOINIncompleteCallback>
70003c1a:	2302      	movs	r3, #2
70003c1c:	f8cb 3008 	str.w	r3, [fp, #8]
70003c20:	f018 0f80 	tst.w	r8, #128	@ 0x80
70003c24:	d044      	beq.n	70003cb0 <HAL_PCD_IRQHandler+0x5f0>
70003c26:	e9d7 3209 	ldrd	r3, r2, [r7, #36]	@ 0x24
70003c2a:	429a      	cmp	r2, r3
70003c2c:	d840      	bhi.n	70003cb0 <HAL_PCD_IRQHandler+0x5f0>
70003c2e:	eba3 0802 	sub.w	r8, r3, r2
70003c32:	69fb      	ldr	r3, [r7, #28]
70003c34:	6821      	ldr	r1, [r4, #0]
70003c36:	4598      	cmp	r8, r3
70003c38:	9105      	str	r1, [sp, #20]
70003c3a:	bf28      	it	cs
70003c3c:	4698      	movcs	r8, r3
70003c3e:	f501 6310 	add.w	r3, r1, #2304	@ 0x900
70003c42:	f108 0803 	add.w	r8, r8, #3
70003c46:	eb03 134a 	add.w	r3, r3, sl, lsl #5
70003c4a:	ea4f 0898 	mov.w	r8, r8, lsr #2
70003c4e:	9306      	str	r3, [sp, #24]
70003c50:	9b06      	ldr	r3, [sp, #24]
70003c52:	6999      	ldr	r1, [r3, #24]
70003c54:	6a7b      	ldr	r3, [r7, #36]	@ 0x24
70003c56:	b289      	uxth	r1, r1
70003c58:	4541      	cmp	r1, r8
70003c5a:	d327      	bcc.n	70003cac <HAL_PCD_IRQHandler+0x5ec>
70003c5c:	4293      	cmp	r3, r2
70003c5e:	d80b      	bhi.n	70003c78 <HAL_PCD_IRQHandler+0x5b8>
70003c60:	9b05      	ldr	r3, [sp, #20]
70003c62:	f00a 000f 	and.w	r0, sl, #15
70003c66:	2101      	movs	r1, #1
70003c68:	f8d3 2834 	ldr.w	r2, [r3, #2100]	@ 0x834
70003c6c:	4081      	lsls	r1, r0
70003c6e:	ea22 0201 	bic.w	r2, r2, r1
70003c72:	f8c3 2834 	str.w	r2, [r3, #2100]	@ 0x834
70003c76:	e01b      	b.n	70003cb0 <HAL_PCD_IRQHandler+0x5f0>
70003c78:	eba3 0902 	sub.w	r9, r3, r2
70003c7c:	69fb      	ldr	r3, [r7, #28]
70003c7e:	9a07      	ldr	r2, [sp, #28]
70003c80:	4599      	cmp	r9, r3
70003c82:	9805      	ldr	r0, [sp, #20]
70003c84:	bf28      	it	cs
70003c86:	4699      	movcs	r9, r3
70003c88:	79a3      	ldrb	r3, [r4, #6]
70003c8a:	9300      	str	r3, [sp, #0]
70003c8c:	fa1f f389 	uxth.w	r3, r9
70003c90:	6a39      	ldr	r1, [r7, #32]
70003c92:	f109 0803 	add.w	r8, r9, #3
70003c96:	f003 fd65 	bl	70007764 <USB_WritePacket>
70003c9a:	6a3b      	ldr	r3, [r7, #32]
70003c9c:	6aba      	ldr	r2, [r7, #40]	@ 0x28
70003c9e:	ea4f 0898 	mov.w	r8, r8, lsr #2
70003ca2:	444b      	add	r3, r9
70003ca4:	444a      	add	r2, r9
70003ca6:	623b      	str	r3, [r7, #32]
70003ca8:	62ba      	str	r2, [r7, #40]	@ 0x28
70003caa:	e7d1      	b.n	70003c50 <HAL_PCD_IRQHandler+0x590>
70003cac:	4293      	cmp	r3, r2
70003cae:	d9d7      	bls.n	70003c60 <HAL_PCD_IRQHandler+0x5a0>
70003cb0:	9b04      	ldr	r3, [sp, #16]
70003cb2:	f10a 0a01 	add.w	sl, sl, #1
70003cb6:	3724      	adds	r7, #36	@ 0x24
70003cb8:	f10b 0b20 	add.w	fp, fp, #32
70003cbc:	085b      	lsrs	r3, r3, #1
70003cbe:	9304      	str	r3, [sp, #16]
70003cc0:	e569      	b.n	70003796 <HAL_PCD_IRQHandler+0xd6>
70003cc2:	4620      	mov	r0, r4
70003cc4:	f7fc fe6a 	bl	7000099c <HAL_PCD_ResumeCallback>
70003cc8:	e57d      	b.n	700037c6 <HAL_PCD_IRQHandler+0x106>
70003cca:	4620      	mov	r0, r4
70003ccc:	f7fc fe4e 	bl	7000096c <HAL_PCD_SuspendCallback>
70003cd0:	e5a8      	b.n	70003824 <HAL_PCD_IRQHandler+0x164>
70003cd2:	6099      	str	r1, [r3, #8]
70003cd4:	3320      	adds	r3, #32
70003cd6:	f853 2c20 	ldr.w	r2, [r3, #-32]
70003cda:	f422 1200 	bic.w	r2, r2, #2097152	@ 0x200000
70003cde:	f843 2c20 	str.w	r2, [r3, #-32]
70003ce2:	f8c3 11e8 	str.w	r1, [r3, #488]	@ 0x1e8
70003ce6:	f8d3 21e0 	ldr.w	r2, [r3, #480]	@ 0x1e0
70003cea:	f422 1200 	bic.w	r2, r2, #2097152	@ 0x200000
70003cee:	f8c3 21e0 	str.w	r2, [r3, #480]	@ 0x1e0
70003cf2:	f8d3 21e0 	ldr.w	r2, [r3, #480]	@ 0x1e0
70003cf6:	f042 6200 	orr.w	r2, r2, #134217728	@ 0x8000000
70003cfa:	f8c3 21e0 	str.w	r2, [r3, #480]	@ 0x1e0
70003cfe:	9a03      	ldr	r2, [sp, #12]
70003d00:	3201      	adds	r2, #1
70003d02:	9203      	str	r2, [sp, #12]
70003d04:	e5a0      	b.n	70003848 <HAL_PCD_IRQHandler+0x188>
70003d06:	bf00      	nop
70003d08:	4f54300a 	.word	0x4f54300a
70003d0c:	4f54310a 	.word	0x4f54310a
70003d10:	696b      	ldr	r3, [r5, #20]
70003d12:	f443 5300 	orr.w	r3, r3, #8192	@ 0x2000
70003d16:	f043 032b 	orr.w	r3, r3, #43	@ 0x2b
70003d1a:	616b      	str	r3, [r5, #20]
70003d1c:	692b      	ldr	r3, [r5, #16]
70003d1e:	f043 030b 	orr.w	r3, r3, #11
70003d22:	612b      	str	r3, [r5, #16]
70003d24:	e5a6      	b.n	70003874 <HAL_PCD_IRQHandler+0x1b4>
70003d26:	69b3      	ldr	r3, [r6, #24]
70003d28:	2201      	movs	r2, #1
70003d2a:	f204 2757 	addw	r7, r4, #599	@ 0x257
70003d2e:	f04f 0c24 	mov.w	ip, #36	@ 0x24
70003d32:	f023 0380 	bic.w	r3, r3, #128	@ 0x80
70003d36:	61b3      	str	r3, [r6, #24]
70003d38:	f506 6332 	add.w	r3, r6, #2848	@ 0xb20
70003d3c:	7920      	ldrb	r0, [r4, #4]
70003d3e:	4290      	cmp	r0, r2
70003d40:	f67f add8 	bls.w	700038f4 <HAL_PCD_IRQHandler+0x234>
70003d44:	fb0c f102 	mul.w	r1, ip, r2
70003d48:	5c79      	ldrb	r1, [r7, r1]
70003d4a:	2901      	cmp	r1, #1
70003d4c:	d107      	bne.n	70003d5e <HAL_PCD_IRQHandler+0x69e>
70003d4e:	6819      	ldr	r1, [r3, #0]
70003d50:	f041 6100 	orr.w	r1, r1, #134217728	@ 0x8000000
70003d54:	6019      	str	r1, [r3, #0]
70003d56:	6819      	ldr	r1, [r3, #0]
70003d58:	f041 4180 	orr.w	r1, r1, #1073741824	@ 0x40000000
70003d5c:	6019      	str	r1, [r3, #0]
70003d5e:	3201      	adds	r2, #1
70003d60:	3320      	adds	r3, #32
70003d62:	e7ec      	b.n	70003d3e <HAL_PCD_IRQHandler+0x67e>
70003d64:	f898 303c 	ldrb.w	r3, [r8, #60]	@ 0x3c
70003d68:	f8d9 2000 	ldr.w	r2, [r9]
70003d6c:	2b01      	cmp	r3, #1
70003d6e:	d109      	bne.n	70003d84 <HAL_PCD_IRQHandler+0x6c4>
70003d70:	2a00      	cmp	r2, #0
70003d72:	da07      	bge.n	70003d84 <HAL_PCD_IRQHandler+0x6c4>
70003d74:	f067 017f 	orn	r1, r7, #127	@ 0x7f
70003d78:	4620      	mov	r0, r4
70003d7a:	f888 303b 	strb.w	r3, [r8, #59]	@ 0x3b
70003d7e:	b2c9      	uxtb	r1, r1
70003d80:	f7ff fc8f 	bl	700036a2 <HAL_PCD_EP_Abort>
70003d84:	3701      	adds	r7, #1
70003d86:	f108 0824 	add.w	r8, r8, #36	@ 0x24
70003d8a:	f109 0920 	add.w	r9, r9, #32
70003d8e:	e5ba      	b.n	70003906 <HAL_PCD_IRQHandler+0x246>
70003d90:	f10c 0c01 	add.w	ip, ip, #1
70003d94:	3324      	adds	r3, #36	@ 0x24
70003d96:	3120      	adds	r1, #32
70003d98:	e5ca      	b.n	70003930 <HAL_PCD_IRQHandler+0x270>
70003d9a:	bf00      	nop

70003d9c <HAL_PCD_EP_Flush>:
70003d9c:	b510      	push	{r4, lr}
70003d9e:	f890 3494 	ldrb.w	r3, [r0, #1172]	@ 0x494
70003da2:	4604      	mov	r4, r0
70003da4:	2b01      	cmp	r3, #1
70003da6:	d010      	beq.n	70003dca <HAL_PCD_EP_Flush+0x2e>
70003da8:	2301      	movs	r3, #1
70003daa:	f880 3494 	strb.w	r3, [r0, #1172]	@ 0x494
70003dae:	060b      	lsls	r3, r1, #24
70003db0:	6800      	ldr	r0, [r0, #0]
70003db2:	d507      	bpl.n	70003dc4 <HAL_PCD_EP_Flush+0x28>
70003db4:	f001 010f 	and.w	r1, r1, #15
70003db8:	f003 fa40 	bl	7000723c <USB_FlushTxFifo>
70003dbc:	2000      	movs	r0, #0
70003dbe:	f884 0494 	strb.w	r0, [r4, #1172]	@ 0x494
70003dc2:	bd10      	pop	{r4, pc}
70003dc4:	f003 fa5d 	bl	70007282 <USB_FlushRxFifo>
70003dc8:	e7f8      	b.n	70003dbc <HAL_PCD_EP_Flush+0x20>
70003dca:	2002      	movs	r0, #2
70003dcc:	e7f9      	b.n	70003dc2 <HAL_PCD_EP_Flush+0x26>

70003dce <HAL_PCDEx_SetTxFiFo>:
70003dce:	6800      	ldr	r0, [r0, #0]
70003dd0:	0412      	lsls	r2, r2, #16
70003dd2:	6a43      	ldr	r3, [r0, #36]	@ 0x24
70003dd4:	b570      	push	{r4, r5, r6, lr}
70003dd6:	b919      	cbnz	r1, 70003de0 <HAL_PCDEx_SetTxFiFo+0x12>
70003dd8:	4313      	orrs	r3, r2
70003dda:	6283      	str	r3, [r0, #40]	@ 0x28
70003ddc:	2000      	movs	r0, #0
70003dde:	bd70      	pop	{r4, r5, r6, pc}
70003de0:	6a84      	ldr	r4, [r0, #40]	@ 0x28
70003de2:	1e4e      	subs	r6, r1, #1
70003de4:	eb03 4314 	add.w	r3, r3, r4, lsr #16
70003de8:	2400      	movs	r4, #0
70003dea:	42b4      	cmp	r4, r6
70003dec:	d305      	bcc.n	70003dfa <HAL_PCDEx_SetTxFiFo+0x2c>
70003dee:	313f      	adds	r1, #63	@ 0x3f
70003df0:	4313      	orrs	r3, r2
70003df2:	eb00 0081 	add.w	r0, r0, r1, lsl #2
70003df6:	6043      	str	r3, [r0, #4]
70003df8:	e7f0      	b.n	70003ddc <HAL_PCDEx_SetTxFiFo+0xe>
70003dfa:	f104 0540 	add.w	r5, r4, #64	@ 0x40
70003dfe:	3401      	adds	r4, #1
70003e00:	eb00 0585 	add.w	r5, r0, r5, lsl #2
70003e04:	686d      	ldr	r5, [r5, #4]
70003e06:	eb03 4315 	add.w	r3, r3, r5, lsr #16
70003e0a:	e7ee      	b.n	70003dea <HAL_PCDEx_SetTxFiFo+0x1c>

70003e0c <HAL_PCDEx_SetRxFiFo>:
70003e0c:	6803      	ldr	r3, [r0, #0]
70003e0e:	2000      	movs	r0, #0
70003e10:	6259      	str	r1, [r3, #36]	@ 0x24
70003e12:	4770      	bx	lr

70003e14 <HAL_PCDEx_ActivateLPM>:
70003e14:	2101      	movs	r1, #1
70003e16:	6802      	ldr	r2, [r0, #0]
70003e18:	4603      	mov	r3, r0
70003e1a:	f8c0 14d8 	str.w	r1, [r0, #1240]	@ 0x4d8
70003e1e:	2000      	movs	r0, #0
70003e20:	f883 04cc 	strb.w	r0, [r3, #1228]	@ 0x4cc
70003e24:	6993      	ldr	r3, [r2, #24]
70003e26:	f043 6300 	orr.w	r3, r3, #134217728	@ 0x8000000
70003e2a:	6193      	str	r3, [r2, #24]
70003e2c:	6d53      	ldr	r3, [r2, #84]	@ 0x54
70003e2e:	f043 5380 	orr.w	r3, r3, #268435456	@ 0x10000000
70003e32:	f043 0303 	orr.w	r3, r3, #3
70003e36:	6553      	str	r3, [r2, #84]	@ 0x54
70003e38:	4770      	bx	lr

70003e3a <HAL_PCDEx_LPM_Callback>:
70003e3a:	4770      	bx	lr

70003e3c <HAL_PWR_EnterSTANDBYMode>:
70003e3c:	4a07      	ldr	r2, [pc, #28]	@ (70003e5c <HAL_PWR_EnterSTANDBYMode+0x20>)
70003e3e:	6913      	ldr	r3, [r2, #16]
70003e40:	f043 0301 	orr.w	r3, r3, #1
70003e44:	6113      	str	r3, [r2, #16]
70003e46:	4a06      	ldr	r2, [pc, #24]	@ (70003e60 <HAL_PWR_EnterSTANDBYMode+0x24>)
70003e48:	6913      	ldr	r3, [r2, #16]
70003e4a:	f043 0304 	orr.w	r3, r3, #4
70003e4e:	6113      	str	r3, [r2, #16]
70003e50:	f3bf 8f4f 	dsb	sy
70003e54:	f3bf 8f6f 	isb	sy
70003e58:	bf30      	wfi
70003e5a:	4770      	bx	lr
70003e5c:	58024800 	.word	0x58024800
70003e60:	e000ed00 	.word	0xe000ed00

70003e64 <HAL_PWR_EnableSleepOnExit>:
70003e64:	4a02      	ldr	r2, [pc, #8]	@ (70003e70 <HAL_PWR_EnableSleepOnExit+0xc>)
70003e66:	6913      	ldr	r3, [r2, #16]
70003e68:	f043 0302 	orr.w	r3, r3, #2
70003e6c:	6113      	str	r3, [r2, #16]
70003e6e:	4770      	bx	lr
70003e70:	e000ed00 	.word	0xe000ed00

70003e74 <HAL_PWR_DisableSleepOnExit>:
70003e74:	4a02      	ldr	r2, [pc, #8]	@ (70003e80 <HAL_PWR_DisableSleepOnExit+0xc>)
70003e76:	6913      	ldr	r3, [r2, #16]
70003e78:	f023 0302 	bic.w	r3, r3, #2
70003e7c:	6113      	str	r3, [r2, #16]
70003e7e:	4770      	bx	lr
70003e80:	e000ed00 	.word	0xe000ed00

70003e84 <HAL_PWREx_EnableUSBVoltageDetector>:
70003e84:	b538      	push	{r3, r4, r5, lr}
70003e86:	4c0a      	ldr	r4, [pc, #40]	@ (70003eb0 <HAL_PWREx_EnableUSBVoltageDetector+0x2c>)
70003e88:	68e3      	ldr	r3, [r4, #12]
70003e8a:	f043 7380 	orr.w	r3, r3, #16777216	@ 0x1000000
70003e8e:	60e3      	str	r3, [r4, #12]
70003e90:	f7fe f8dc 	bl	7000204c <HAL_GetTick>
70003e94:	4605      	mov	r5, r0
70003e96:	68e3      	ldr	r3, [r4, #12]
70003e98:	015b      	lsls	r3, r3, #5
70003e9a:	d501      	bpl.n	70003ea0 <HAL_PWREx_EnableUSBVoltageDetector+0x1c>
70003e9c:	2000      	movs	r0, #0
70003e9e:	bd38      	pop	{r3, r4, r5, pc}
70003ea0:	f7fe f8d4 	bl	7000204c <HAL_GetTick>
70003ea4:	1b40      	subs	r0, r0, r5
70003ea6:	f5b0 7f7a 	cmp.w	r0, #1000	@ 0x3e8
70003eaa:	d9f4      	bls.n	70003e96 <HAL_PWREx_EnableUSBVoltageDetector+0x12>
70003eac:	2001      	movs	r0, #1
70003eae:	e7f6      	b.n	70003e9e <HAL_PWREx_EnableUSBVoltageDetector+0x1a>
70003eb0:	58024800 	.word	0x58024800

70003eb4 <HAL_PWREx_EnableUSBHSregulator>:
70003eb4:	4a02      	ldr	r2, [pc, #8]	@ (70003ec0 <HAL_PWREx_EnableUSBHSregulator+0xc>)
70003eb6:	68d3      	ldr	r3, [r2, #12]
70003eb8:	f043 6300 	orr.w	r3, r3, #134217728	@ 0x8000000
70003ebc:	60d3      	str	r3, [r2, #12]
70003ebe:	4770      	bx	lr
70003ec0:	58024800 	.word	0x58024800

70003ec4 <HAL_PWREx_DisableUCPDDeadBattery>:
70003ec4:	4a02      	ldr	r2, [pc, #8]	@ (70003ed0 <HAL_PWREx_DisableUCPDDeadBattery+0xc>)
70003ec6:	6ad3      	ldr	r3, [r2, #44]	@ 0x2c
70003ec8:	f043 0301 	orr.w	r3, r3, #1
70003ecc:	62d3      	str	r3, [r2, #44]	@ 0x2c
70003ece:	4770      	bx	lr
70003ed0:	58024800 	.word	0x58024800

70003ed4 <RCC_PLL1_GetVCOOutputFreq>:
70003ed4:	b510      	push	{r4, lr}
70003ed6:	4c23      	ldr	r4, [pc, #140]	@ (70003f64 <RCC_PLL1_GetVCOOutputFreq+0x90>)
70003ed8:	6aa0      	ldr	r0, [r4, #40]	@ 0x28
70003eda:	6b22      	ldr	r2, [r4, #48]	@ 0x30
70003edc:	f3c0 1305 	ubfx	r3, r0, #4, #6
70003ee0:	f410 7f7c 	tst.w	r0, #1008	@ 0x3f0
70003ee4:	ee07 3a10 	vmov	s14, r3
70003ee8:	d032      	beq.n	70003f50 <RCC_PLL1_GetVCOOutputFreq+0x7c>
70003eea:	6ae1      	ldr	r1, [r4, #44]	@ 0x2c
70003eec:	f011 0101 	ands.w	r1, r1, #1
70003ef0:	d002      	beq.n	70003ef8 <RCC_PLL1_GetVCOOutputFreq+0x24>
70003ef2:	6b61      	ldr	r1, [r4, #52]	@ 0x34
70003ef4:	f3c1 01cc 	ubfx	r1, r1, #3, #13
70003ef8:	f000 0003 	and.w	r0, r0, #3
70003efc:	2801      	cmp	r0, #1
70003efe:	d02a      	beq.n	70003f56 <RCC_PLL1_GetVCOOutputFreq+0x82>
70003f00:	2802      	cmp	r0, #2
70003f02:	d02a      	beq.n	70003f5a <RCC_PLL1_GetVCOOutputFreq+0x86>
70003f04:	bb58      	cbnz	r0, 70003f5e <RCC_PLL1_GetVCOOutputFreq+0x8a>
70003f06:	4817      	ldr	r0, [pc, #92]	@ (70003f64 <RCC_PLL1_GetVCOOutputFreq+0x90>)
70003f08:	6803      	ldr	r3, [r0, #0]
70003f0a:	f013 0320 	ands.w	r3, r3, #32
70003f0e:	d004      	beq.n	70003f1a <RCC_PLL1_GetVCOOutputFreq+0x46>
70003f10:	6800      	ldr	r0, [r0, #0]
70003f12:	4b15      	ldr	r3, [pc, #84]	@ (70003f68 <RCC_PLL1_GetVCOOutputFreq+0x94>)
70003f14:	f3c0 00c1 	ubfx	r0, r0, #3, #2
70003f18:	40c3      	lsrs	r3, r0
70003f1a:	ee07 3a90 	vmov	s15, r3
70003f1e:	eeb8 7ac7 	vcvt.f32.s32	s14, s14
70003f22:	f3c2 0308 	ubfx	r3, r2, #0, #9
70003f26:	ed9f 6a11 	vldr	s12, [pc, #68]	@ 70003f6c <RCC_PLL1_GetVCOOutputFreq+0x98>
70003f2a:	eef8 7ae7 	vcvt.f32.s32	s15, s15
70003f2e:	3301      	adds	r3, #1
70003f30:	eec7 6a87 	vdiv.f32	s13, s15, s14
70003f34:	ee07 1a90 	vmov	s15, r1
70003f38:	eeb8 7ae7 	vcvt.f32.s32	s14, s15
70003f3c:	ee07 3a90 	vmov	s15, r3
70003f40:	eef8 7ae7 	vcvt.f32.s32	s15, s15
70003f44:	eee7 7a06 	vfma.f32	s15, s14, s12
70003f48:	ee66 7aa7 	vmul.f32	s15, s13, s15
70003f4c:	eebc 7ae7 	vcvt.u32.f32	s14, s15
70003f50:	ee17 0a10 	vmov	r0, s14
70003f54:	bd10      	pop	{r4, pc}
70003f56:	4b06      	ldr	r3, [pc, #24]	@ (70003f70 <RCC_PLL1_GetVCOOutputFreq+0x9c>)
70003f58:	e7df      	b.n	70003f1a <RCC_PLL1_GetVCOOutputFreq+0x46>
70003f5a:	4b06      	ldr	r3, [pc, #24]	@ (70003f74 <RCC_PLL1_GetVCOOutputFreq+0xa0>)
70003f5c:	e7dd      	b.n	70003f1a <RCC_PLL1_GetVCOOutputFreq+0x46>
70003f5e:	2300      	movs	r3, #0
70003f60:	e7db      	b.n	70003f1a <RCC_PLL1_GetVCOOutputFreq+0x46>
70003f62:	bf00      	nop
70003f64:	58024400 	.word	0x58024400
70003f68:	03d09000 	.word	0x03d09000
70003f6c:	39000000 	.word	0x39000000
70003f70:	003d0900 	.word	0x003d0900
70003f74:	016e3600 	.word	0x016e3600

70003f78 <RCC_PLL2_GetVCOOutputFreq>:
70003f78:	b510      	push	{r4, lr}
70003f7a:	4c23      	ldr	r4, [pc, #140]	@ (70004008 <RCC_PLL2_GetVCOOutputFreq+0x90>)
70003f7c:	6aa0      	ldr	r0, [r4, #40]	@ 0x28
70003f7e:	6ba2      	ldr	r2, [r4, #56]	@ 0x38
70003f80:	f3c0 3305 	ubfx	r3, r0, #12, #6
70003f84:	f410 3f7c 	tst.w	r0, #258048	@ 0x3f000
70003f88:	ee07 3a10 	vmov	s14, r3
70003f8c:	d032      	beq.n	70003ff4 <RCC_PLL2_GetVCOOutputFreq+0x7c>
70003f8e:	6ae1      	ldr	r1, [r4, #44]	@ 0x2c
70003f90:	f411 6100 	ands.w	r1, r1, #2048	@ 0x800
70003f94:	d002      	beq.n	70003f9c <RCC_PLL2_GetVCOOutputFreq+0x24>
70003f96:	6be1      	ldr	r1, [r4, #60]	@ 0x3c
70003f98:	f3c1 01cc 	ubfx	r1, r1, #3, #13
70003f9c:	f000 0003 	and.w	r0, r0, #3
70003fa0:	2801      	cmp	r0, #1
70003fa2:	d02a      	beq.n	70003ffa <RCC_PLL2_GetVCOOutputFreq+0x82>
70003fa4:	2802      	cmp	r0, #2
70003fa6:	d02a      	beq.n	70003ffe <RCC_PLL2_GetVCOOutputFreq+0x86>
70003fa8:	bb58      	cbnz	r0, 70004002 <RCC_PLL2_GetVCOOutputFreq+0x8a>
70003faa:	4817      	ldr	r0, [pc, #92]	@ (70004008 <RCC_PLL2_GetVCOOutputFreq+0x90>)
70003fac:	6803      	ldr	r3, [r0, #0]
70003fae:	f013 0320 	ands.w	r3, r3, #32
70003fb2:	d004      	beq.n	70003fbe <RCC_PLL2_GetVCOOutputFreq+0x46>
70003fb4:	6800      	ldr	r0, [r0, #0]
70003fb6:	4b15      	ldr	r3, [pc, #84]	@ (7000400c <RCC_PLL2_GetVCOOutputFreq+0x94>)
70003fb8:	f3c0 00c1 	ubfx	r0, r0, #3, #2
70003fbc:	40c3      	lsrs	r3, r0
70003fbe:	ee07 3a90 	vmov	s15, r3
70003fc2:	eeb8 7ac7 	vcvt.f32.s32	s14, s14
70003fc6:	f3c2 0308 	ubfx	r3, r2, #0, #9
70003fca:	ed9f 6a11 	vldr	s12, [pc, #68]	@ 70004010 <RCC_PLL2_GetVCOOutputFreq+0x98>
70003fce:	eef8 7ae7 	vcvt.f32.s32	s15, s15
70003fd2:	3301      	adds	r3, #1
70003fd4:	eec7 6a87 	vdiv.f32	s13, s15, s14
70003fd8:	ee07 1a90 	vmov	s15, r1
70003fdc:	eeb8 7ae7 	vcvt.f32.s32	s14, s15
70003fe0:	ee07 3a90 	vmov	s15, r3
70003fe4:	eef8 7ae7 	vcvt.f32.s32	s15, s15
70003fe8:	eee7 7a06 	vfma.f32	s15, s14, s12
70003fec:	ee66 7aa7 	vmul.f32	s15, s13, s15
70003ff0:	eebc 7ae7 	vcvt.u32.f32	s14, s15
70003ff4:	ee17 0a10 	vmov	r0, s14
70003ff8:	bd10      	pop	{r4, pc}
70003ffa:	4b06      	ldr	r3, [pc, #24]	@ (70004014 <RCC_PLL2_GetVCOOutputFreq+0x9c>)
70003ffc:	e7df      	b.n	70003fbe <RCC_PLL2_GetVCOOutputFreq+0x46>
70003ffe:	4b06      	ldr	r3, [pc, #24]	@ (70004018 <RCC_PLL2_GetVCOOutputFreq+0xa0>)
70004000:	e7dd      	b.n	70003fbe <RCC_PLL2_GetVCOOutputFreq+0x46>
70004002:	2300      	movs	r3, #0
70004004:	e7db      	b.n	70003fbe <RCC_PLL2_GetVCOOutputFreq+0x46>
70004006:	bf00      	nop
70004008:	58024400 	.word	0x58024400
7000400c:	03d09000 	.word	0x03d09000
70004010:	39000000 	.word	0x39000000
70004014:	003d0900 	.word	0x003d0900
70004018:	016e3600 	.word	0x016e3600

7000401c <RCC_PLL3_GetVCOOutputFreq>:
7000401c:	b510      	push	{r4, lr}
7000401e:	4c23      	ldr	r4, [pc, #140]	@ (700040ac <RCC_PLL3_GetVCOOutputFreq+0x90>)
70004020:	6aa0      	ldr	r0, [r4, #40]	@ 0x28
70004022:	6c22      	ldr	r2, [r4, #64]	@ 0x40
70004024:	f3c0 5305 	ubfx	r3, r0, #20, #6
70004028:	f010 7f7c 	tst.w	r0, #66060288	@ 0x3f00000
7000402c:	ee07 3a10 	vmov	s14, r3
70004030:	d032      	beq.n	70004098 <RCC_PLL3_GetVCOOutputFreq+0x7c>
70004032:	6ae1      	ldr	r1, [r4, #44]	@ 0x2c
70004034:	f411 0180 	ands.w	r1, r1, #4194304	@ 0x400000
70004038:	d002      	beq.n	70004040 <RCC_PLL3_GetVCOOutputFreq+0x24>
7000403a:	6c61      	ldr	r1, [r4, #68]	@ 0x44
7000403c:	f3c1 01cc 	ubfx	r1, r1, #3, #13
70004040:	f000 0003 	and.w	r0, r0, #3
70004044:	2801      	cmp	r0, #1
70004046:	d02a      	beq.n	7000409e <RCC_PLL3_GetVCOOutputFreq+0x82>
70004048:	2802      	cmp	r0, #2
7000404a:	d02a      	beq.n	700040a2 <RCC_PLL3_GetVCOOutputFreq+0x86>
7000404c:	bb58      	cbnz	r0, 700040a6 <RCC_PLL3_GetVCOOutputFreq+0x8a>
7000404e:	4817      	ldr	r0, [pc, #92]	@ (700040ac <RCC_PLL3_GetVCOOutputFreq+0x90>)
70004050:	6803      	ldr	r3, [r0, #0]
70004052:	f013 0320 	ands.w	r3, r3, #32
70004056:	d004      	beq.n	70004062 <RCC_PLL3_GetVCOOutputFreq+0x46>
70004058:	6800      	ldr	r0, [r0, #0]
7000405a:	4b15      	ldr	r3, [pc, #84]	@ (700040b0 <RCC_PLL3_GetVCOOutputFreq+0x94>)
7000405c:	f3c0 00c1 	ubfx	r0, r0, #3, #2
70004060:	40c3      	lsrs	r3, r0
70004062:	ee07 3a90 	vmov	s15, r3
70004066:	eeb8 7ac7 	vcvt.f32.s32	s14, s14
7000406a:	f3c2 0308 	ubfx	r3, r2, #0, #9
7000406e:	ed9f 6a11 	vldr	s12, [pc, #68]	@ 700040b4 <RCC_PLL3_GetVCOOutputFreq+0x98>
70004072:	eef8 7ae7 	vcvt.f32.s32	s15, s15
70004076:	3301      	adds	r3, #1
70004078:	eec7 6a87 	vdiv.f32	s13, s15, s14
7000407c:	ee07 1a90 	vmov	s15, r1
70004080:	eeb8 7ae7 	vcvt.f32.s32	s14, s15
70004084:	ee07 3a90 	vmov	s15, r3
70004088:	eef8 7ae7 	vcvt.f32.s32	s15, s15
7000408c:	eee7 7a06 	vfma.f32	s15, s14, s12
70004090:	ee66 7aa7 	vmul.f32	s15, s13, s15
70004094:	eebc 7ae7 	vcvt.u32.f32	s14, s15
70004098:	ee17 0a10 	vmov	r0, s14
7000409c:	bd10      	pop	{r4, pc}
7000409e:	4b06      	ldr	r3, [pc, #24]	@ (700040b8 <RCC_PLL3_GetVCOOutputFreq+0x9c>)
700040a0:	e7df      	b.n	70004062 <RCC_PLL3_GetVCOOutputFreq+0x46>
700040a2:	4b06      	ldr	r3, [pc, #24]	@ (700040bc <RCC_PLL3_GetVCOOutputFreq+0xa0>)
700040a4:	e7dd      	b.n	70004062 <RCC_PLL3_GetVCOOutputFreq+0x46>
700040a6:	2300      	movs	r3, #0
700040a8:	e7db      	b.n	70004062 <RCC_PLL3_GetVCOOutputFreq+0x46>
700040aa:	bf00      	nop
700040ac:	58024400 	.word	0x58024400
700040b0:	03d09000 	.word	0x03d09000
700040b4:	39000000 	.word	0x39000000
700040b8:	003d0900 	.word	0x003d0900
700040bc:	016e3600 	.word	0x016e3600

700040c0 <HAL_RCC_GetSysClockFreq>:
700040c0:	4b49      	ldr	r3, [pc, #292]	@ (700041e8 <HAL_RCC_GetSysClockFreq+0x128>)
700040c2:	691a      	ldr	r2, [r3, #16]
700040c4:	f002 0238 	and.w	r2, r2, #56	@ 0x38
700040c8:	2a10      	cmp	r2, #16
700040ca:	b530      	push	{r4, r5, lr}
700040cc:	f000 8088 	beq.w	700041e0 <HAL_RCC_GetSysClockFreq+0x120>
700040d0:	2a18      	cmp	r2, #24
700040d2:	d014      	beq.n	700040fe <HAL_RCC_GetSysClockFreq+0x3e>
700040d4:	2a00      	cmp	r2, #0
700040d6:	f040 8085 	bne.w	700041e4 <HAL_RCC_GetSysClockFreq+0x124>
700040da:	6818      	ldr	r0, [r3, #0]
700040dc:	f010 0020 	ands.w	r0, r0, #32
700040e0:	d004      	beq.n	700040ec <HAL_RCC_GetSysClockFreq+0x2c>
700040e2:	681b      	ldr	r3, [r3, #0]
700040e4:	4841      	ldr	r0, [pc, #260]	@ (700041ec <HAL_RCC_GetSysClockFreq+0x12c>)
700040e6:	f3c3 03c1 	ubfx	r3, r3, #3, #2
700040ea:	40d8      	lsrs	r0, r3
700040ec:	4b3e      	ldr	r3, [pc, #248]	@ (700041e8 <HAL_RCC_GetSysClockFreq+0x128>)
700040ee:	699b      	ldr	r3, [r3, #24]
700040f0:	071a      	lsls	r2, r3, #28
700040f2:	bf42      	ittt	mi
700040f4:	f003 030f 	andmi.w	r3, r3, #15
700040f8:	3b07      	submi	r3, #7
700040fa:	40d8      	lsrmi	r0, r3
700040fc:	bd30      	pop	{r4, r5, pc}
700040fe:	6a99      	ldr	r1, [r3, #40]	@ 0x28
70004100:	6a9d      	ldr	r5, [r3, #40]	@ 0x28
70004102:	6adc      	ldr	r4, [r3, #44]	@ 0x2c
70004104:	f415 7f7c 	tst.w	r5, #1008	@ 0x3f0
70004108:	f3c5 1005 	ubfx	r0, r5, #4, #6
7000410c:	6b5a      	ldr	r2, [r3, #52]	@ 0x34
7000410e:	d0ed      	beq.n	700040ec <HAL_RCC_GetSysClockFreq+0x2c>
70004110:	f3c2 02cc 	ubfx	r2, r2, #3, #13
70004114:	f004 0401 	and.w	r4, r4, #1
70004118:	f001 0103 	and.w	r1, r1, #3
7000411c:	4362      	muls	r2, r4
7000411e:	2901      	cmp	r1, #1
70004120:	ee07 2a90 	vmov	s15, r2
70004124:	eeb8 7ae7 	vcvt.f32.s32	s14, s15
70004128:	d050      	beq.n	700041cc <HAL_RCC_GetSysClockFreq+0x10c>
7000412a:	2902      	cmp	r1, #2
7000412c:	d034      	beq.n	70004198 <HAL_RCC_GetSysClockFreq+0xd8>
7000412e:	2900      	cmp	r1, #0
70004130:	d14c      	bne.n	700041cc <HAL_RCC_GetSysClockFreq+0x10c>
70004132:	681a      	ldr	r2, [r3, #0]
70004134:	0691      	lsls	r1, r2, #26
70004136:	d550      	bpl.n	700041da <HAL_RCC_GetSysClockFreq+0x11a>
70004138:	6819      	ldr	r1, [r3, #0]
7000413a:	4a2c      	ldr	r2, [pc, #176]	@ (700041ec <HAL_RCC_GetSysClockFreq+0x12c>)
7000413c:	f3c1 01c1 	ubfx	r1, r1, #3, #2
70004140:	6b1b      	ldr	r3, [r3, #48]	@ 0x30
70004142:	40ca      	lsrs	r2, r1
70004144:	f3c3 0308 	ubfx	r3, r3, #0, #9
70004148:	ee07 2a90 	vmov	s15, r2
7000414c:	eef8 6ae7 	vcvt.f32.s32	s13, s15
70004150:	ee07 0a90 	vmov	s15, r0
70004154:	eef8 7ae7 	vcvt.f32.s32	s15, s15
70004158:	ee86 6aa7 	vdiv.f32	s12, s13, s15
7000415c:	ee07 3a90 	vmov	s15, r3
70004160:	eddf 6a23 	vldr	s13, [pc, #140]	@ 700041f0 <HAL_RCC_GetSysClockFreq+0x130>
70004164:	eef8 7ae7 	vcvt.f32.s32	s15, s15
70004168:	eee7 7a26 	vfma.f32	s15, s14, s13
7000416c:	eeb7 7a00 	vmov.f32	s14, #112	@ 0x3f800000  1.0
70004170:	ee77 7a87 	vadd.f32	s15, s15, s14
70004174:	ee67 7a86 	vmul.f32	s15, s15, s12
70004178:	4b1b      	ldr	r3, [pc, #108]	@ (700041e8 <HAL_RCC_GetSysClockFreq+0x128>)
7000417a:	6b1b      	ldr	r3, [r3, #48]	@ 0x30
7000417c:	f3c3 2346 	ubfx	r3, r3, #9, #7
70004180:	3301      	adds	r3, #1
70004182:	ee07 3a10 	vmov	s14, r3
70004186:	eef8 6ac7 	vcvt.f32.s32	s13, s14
7000418a:	ee87 7aa6 	vdiv.f32	s14, s15, s13
7000418e:	eefc 7ac7 	vcvt.u32.f32	s15, s14
70004192:	ee17 0a90 	vmov	r0, s15
70004196:	e7a9      	b.n	700040ec <HAL_RCC_GetSysClockFreq+0x2c>
70004198:	ee07 0a90 	vmov	s15, r0
7000419c:	ed9f 6a15 	vldr	s12, [pc, #84]	@ 700041f4 <HAL_RCC_GetSysClockFreq+0x134>
700041a0:	eef8 7ae7 	vcvt.f32.s32	s15, s15
700041a4:	6b1b      	ldr	r3, [r3, #48]	@ 0x30
700041a6:	eec6 6a27 	vdiv.f32	s13, s12, s15
700041aa:	ed9f 6a11 	vldr	s12, [pc, #68]	@ 700041f0 <HAL_RCC_GetSysClockFreq+0x130>
700041ae:	f3c3 0308 	ubfx	r3, r3, #0, #9
700041b2:	ee07 3a90 	vmov	s15, r3
700041b6:	eef8 7ae7 	vcvt.f32.s32	s15, s15
700041ba:	eee7 7a06 	vfma.f32	s15, s14, s12
700041be:	eeb7 7a00 	vmov.f32	s14, #112	@ 0x3f800000  1.0
700041c2:	ee77 7a87 	vadd.f32	s15, s15, s14
700041c6:	ee67 7aa6 	vmul.f32	s15, s15, s13
700041ca:	e7d5      	b.n	70004178 <HAL_RCC_GetSysClockFreq+0xb8>
700041cc:	ee07 0a90 	vmov	s15, r0
700041d0:	ed9f 6a09 	vldr	s12, [pc, #36]	@ 700041f8 <HAL_RCC_GetSysClockFreq+0x138>
700041d4:	eef8 7ae7 	vcvt.f32.s32	s15, s15
700041d8:	e7e4      	b.n	700041a4 <HAL_RCC_GetSysClockFreq+0xe4>
700041da:	eddf 7a08 	vldr	s15, [pc, #32]	@ 700041fc <HAL_RCC_GetSysClockFreq+0x13c>
700041de:	e7cb      	b.n	70004178 <HAL_RCC_GetSysClockFreq+0xb8>
700041e0:	4807      	ldr	r0, [pc, #28]	@ (70004200 <HAL_RCC_GetSysClockFreq+0x140>)
700041e2:	e783      	b.n	700040ec <HAL_RCC_GetSysClockFreq+0x2c>
700041e4:	4807      	ldr	r0, [pc, #28]	@ (70004204 <HAL_RCC_GetSysClockFreq+0x144>)
700041e6:	e781      	b.n	700040ec <HAL_RCC_GetSysClockFreq+0x2c>
700041e8:	58024400 	.word	0x58024400
700041ec:	03d09000 	.word	0x03d09000
700041f0:	39000000 	.word	0x39000000
700041f4:	4bb71b00 	.word	0x4bb71b00
700041f8:	4a742400 	.word	0x4a742400
700041fc:	00000000 	.word	0x00000000
70004200:	016e3600 	.word	0x016e3600
70004204:	003d0900 	.word	0x003d0900

70004208 <HAL_RCC_GetHCLKFreq>:
70004208:	b507      	push	{r0, r1, r2, lr}
7000420a:	4a0a      	ldr	r2, [pc, #40]	@ (70004234 <HAL_RCC_GetHCLKFreq+0x2c>)
7000420c:	466b      	mov	r3, sp
7000420e:	6810      	ldr	r0, [r2, #0]
70004210:	6851      	ldr	r1, [r2, #4]
70004212:	c303      	stmia	r3!, {r0, r1}
70004214:	f7ff ff54 	bl	700040c0 <HAL_RCC_GetSysClockFreq>
70004218:	4b07      	ldr	r3, [pc, #28]	@ (70004238 <HAL_RCC_GetHCLKFreq+0x30>)
7000421a:	69db      	ldr	r3, [r3, #28]
7000421c:	071a      	lsls	r2, r3, #28
7000421e:	d506      	bpl.n	7000422e <HAL_RCC_GetHCLKFreq+0x26>
70004220:	f003 030f 	and.w	r3, r3, #15
70004224:	3308      	adds	r3, #8
70004226:	446b      	add	r3, sp
70004228:	f813 3c10 	ldrb.w	r3, [r3, #-16]
7000422c:	40d8      	lsrs	r0, r3
7000422e:	b003      	add	sp, #12
70004230:	f85d fb04 	ldr.w	pc, [sp], #4
70004234:	70009b29 	.word	0x70009b29
70004238:	58024400 	.word	0x58024400

7000423c <HAL_RCC_GetPCLK1Freq>:
7000423c:	b508      	push	{r3, lr}
7000423e:	f7ff ffe3 	bl	70004208 <HAL_RCC_GetHCLKFreq>
70004242:	4b04      	ldr	r3, [pc, #16]	@ (70004254 <HAL_RCC_GetPCLK1Freq+0x18>)
70004244:	6a1b      	ldr	r3, [r3, #32]
70004246:	075a      	lsls	r2, r3, #29
70004248:	bf42      	ittt	mi
7000424a:	f003 0307 	andmi.w	r3, r3, #7
7000424e:	3b03      	submi	r3, #3
70004250:	40d8      	lsrmi	r0, r3
70004252:	bd08      	pop	{r3, pc}
70004254:	58024400 	.word	0x58024400

70004258 <HAL_RCC_GetPCLK2Freq>:
70004258:	b508      	push	{r3, lr}
7000425a:	f7ff ffd5 	bl	70004208 <HAL_RCC_GetHCLKFreq>
7000425e:	4b04      	ldr	r3, [pc, #16]	@ (70004270 <HAL_RCC_GetPCLK2Freq+0x18>)
70004260:	6a1b      	ldr	r3, [r3, #32]
70004262:	065a      	lsls	r2, r3, #25
70004264:	bf42      	ittt	mi
70004266:	f3c3 1302 	ubfxmi	r3, r3, #4, #3
7000426a:	3b03      	submi	r3, #3
7000426c:	40d8      	lsrmi	r0, r3
7000426e:	bd08      	pop	{r3, pc}
70004270:	58024400 	.word	0x58024400

70004274 <HAL_RCC_GetPCLK4Freq>:
70004274:	b508      	push	{r3, lr}
70004276:	f7ff ffc7 	bl	70004208 <HAL_RCC_GetHCLKFreq>
7000427a:	4b04      	ldr	r3, [pc, #16]	@ (7000428c <HAL_RCC_GetPCLK4Freq+0x18>)
7000427c:	6a1b      	ldr	r3, [r3, #32]
7000427e:	055a      	lsls	r2, r3, #21
70004280:	bf42      	ittt	mi
70004282:	f3c3 2302 	ubfxmi	r3, r3, #8, #3
70004286:	3b03      	submi	r3, #3
70004288:	40d8      	lsrmi	r0, r3
7000428a:	bd08      	pop	{r3, pc}
7000428c:	58024400 	.word	0x58024400

70004290 <HAL_RCC_GetPLL1QFreq>:
70004290:	4b05      	ldr	r3, [pc, #20]	@ (700042a8 <HAL_RCC_GetPLL1QFreq+0x18>)
70004292:	b510      	push	{r4, lr}
70004294:	6b1c      	ldr	r4, [r3, #48]	@ 0x30
70004296:	f7ff fe1d 	bl	70003ed4 <RCC_PLL1_GetVCOOutputFreq>
7000429a:	f3c4 4406 	ubfx	r4, r4, #16, #7
7000429e:	3401      	adds	r4, #1
700042a0:	fbb0 f0f4 	udiv	r0, r0, r4
700042a4:	bd10      	pop	{r4, pc}
700042a6:	bf00      	nop
700042a8:	58024400 	.word	0x58024400

700042ac <HAL_RCC_GetPLL2PFreq>:
700042ac:	4b05      	ldr	r3, [pc, #20]	@ (700042c4 <HAL_RCC_GetPLL2PFreq+0x18>)
700042ae:	b510      	push	{r4, lr}
700042b0:	6b9c      	ldr	r4, [r3, #56]	@ 0x38
700042b2:	f7ff fe61 	bl	70003f78 <RCC_PLL2_GetVCOOutputFreq>
700042b6:	f3c4 2446 	ubfx	r4, r4, #9, #7
700042ba:	3401      	adds	r4, #1
700042bc:	fbb0 f0f4 	udiv	r0, r0, r4
700042c0:	bd10      	pop	{r4, pc}
700042c2:	bf00      	nop
700042c4:	58024400 	.word	0x58024400

700042c8 <HAL_RCC_GetPLL2QFreq>:
700042c8:	4b05      	ldr	r3, [pc, #20]	@ (700042e0 <HAL_RCC_GetPLL2QFreq+0x18>)
700042ca:	b510      	push	{r4, lr}
700042cc:	6b9c      	ldr	r4, [r3, #56]	@ 0x38
700042ce:	f7ff fe53 	bl	70003f78 <RCC_PLL2_GetVCOOutputFreq>
700042d2:	f3c4 4406 	ubfx	r4, r4, #16, #7
700042d6:	3401      	adds	r4, #1
700042d8:	fbb0 f0f4 	udiv	r0, r0, r4
700042dc:	bd10      	pop	{r4, pc}
700042de:	bf00      	nop
700042e0:	58024400 	.word	0x58024400

700042e4 <HAL_RCC_GetPLL2RFreq>:
700042e4:	4b05      	ldr	r3, [pc, #20]	@ (700042fc <HAL_RCC_GetPLL2RFreq+0x18>)
700042e6:	b510      	push	{r4, lr}
700042e8:	6b9c      	ldr	r4, [r3, #56]	@ 0x38
700042ea:	f7ff fe45 	bl	70003f78 <RCC_PLL2_GetVCOOutputFreq>
700042ee:	f3c4 6406 	ubfx	r4, r4, #24, #7
700042f2:	3401      	adds	r4, #1
700042f4:	fbb0 f0f4 	udiv	r0, r0, r4
700042f8:	bd10      	pop	{r4, pc}
700042fa:	bf00      	nop
700042fc:	58024400 	.word	0x58024400

70004300 <HAL_RCC_GetPLL2SFreq>:
70004300:	4b05      	ldr	r3, [pc, #20]	@ (70004318 <HAL_RCC_GetPLL2SFreq+0x18>)
70004302:	b510      	push	{r4, lr}
70004304:	f8d3 40c4 	ldr.w	r4, [r3, #196]	@ 0xc4
70004308:	f7ff fe36 	bl	70003f78 <RCC_PLL2_GetVCOOutputFreq>
7000430c:	f004 0407 	and.w	r4, r4, #7
70004310:	3401      	adds	r4, #1
70004312:	fbb0 f0f4 	udiv	r0, r0, r4
70004316:	bd10      	pop	{r4, pc}
70004318:	58024400 	.word	0x58024400

7000431c <HAL_RCC_GetPLL2TFreq>:
7000431c:	4b05      	ldr	r3, [pc, #20]	@ (70004334 <HAL_RCC_GetPLL2TFreq+0x18>)
7000431e:	b510      	push	{r4, lr}
70004320:	f8d3 40c4 	ldr.w	r4, [r3, #196]	@ 0xc4
70004324:	f7ff fe28 	bl	70003f78 <RCC_PLL2_GetVCOOutputFreq>
70004328:	f3c4 2402 	ubfx	r4, r4, #8, #3
7000432c:	3401      	adds	r4, #1
7000432e:	fbb0 f0f4 	udiv	r0, r0, r4
70004332:	bd10      	pop	{r4, pc}
70004334:	58024400 	.word	0x58024400

70004338 <HAL_RCC_GetPLL3PFreq>:
70004338:	4b05      	ldr	r3, [pc, #20]	@ (70004350 <HAL_RCC_GetPLL3PFreq+0x18>)
7000433a:	b510      	push	{r4, lr}
7000433c:	6c1c      	ldr	r4, [r3, #64]	@ 0x40
7000433e:	f7ff fe6d 	bl	7000401c <RCC_PLL3_GetVCOOutputFreq>
70004342:	f3c4 2446 	ubfx	r4, r4, #9, #7
70004346:	3401      	adds	r4, #1
70004348:	fbb0 f0f4 	udiv	r0, r0, r4
7000434c:	bd10      	pop	{r4, pc}
7000434e:	bf00      	nop
70004350:	58024400 	.word	0x58024400

70004354 <HAL_RCC_GetPLL3QFreq>:
70004354:	4b05      	ldr	r3, [pc, #20]	@ (7000436c <HAL_RCC_GetPLL3QFreq+0x18>)
70004356:	b510      	push	{r4, lr}
70004358:	6c1c      	ldr	r4, [r3, #64]	@ 0x40
7000435a:	f7ff fe5f 	bl	7000401c <RCC_PLL3_GetVCOOutputFreq>
7000435e:	f3c4 4406 	ubfx	r4, r4, #16, #7
70004362:	3401      	adds	r4, #1
70004364:	fbb0 f0f4 	udiv	r0, r0, r4
70004368:	bd10      	pop	{r4, pc}
7000436a:	bf00      	nop
7000436c:	58024400 	.word	0x58024400

70004370 <HAL_RCC_GetPLL3RFreq>:
70004370:	4b05      	ldr	r3, [pc, #20]	@ (70004388 <HAL_RCC_GetPLL3RFreq+0x18>)
70004372:	b510      	push	{r4, lr}
70004374:	6c1c      	ldr	r4, [r3, #64]	@ 0x40
70004376:	f7ff fe51 	bl	7000401c <RCC_PLL3_GetVCOOutputFreq>
7000437a:	f3c4 6406 	ubfx	r4, r4, #24, #7
7000437e:	3401      	adds	r4, #1
70004380:	fbb0 f0f4 	udiv	r0, r0, r4
70004384:	bd10      	pop	{r4, pc}
70004386:	bf00      	nop
70004388:	58024400 	.word	0x58024400

7000438c <HAL_RCC_GetPLL3SFreq>:
7000438c:	4b05      	ldr	r3, [pc, #20]	@ (700043a4 <HAL_RCC_GetPLL3SFreq+0x18>)
7000438e:	b510      	push	{r4, lr}
70004390:	f8d3 40c8 	ldr.w	r4, [r3, #200]	@ 0xc8
70004394:	f7ff fe42 	bl	7000401c <RCC_PLL3_GetVCOOutputFreq>
70004398:	f004 0407 	and.w	r4, r4, #7
7000439c:	3401      	adds	r4, #1
7000439e:	fbb0 f0f4 	udiv	r0, r0, r4
700043a2:	bd10      	pop	{r4, pc}
700043a4:	58024400 	.word	0x58024400

700043a8 <RCC_GetCLKPFreq>:
700043a8:	4b13      	ldr	r3, [pc, #76]	@ (700043f8 <RCC_GetCLKPFreq+0x50>)
700043aa:	6cda      	ldr	r2, [r3, #76]	@ 0x4c
700043ac:	f012 5240 	ands.w	r2, r2, #805306368	@ 0x30000000
700043b0:	d10d      	bne.n	700043ce <RCC_GetCLKPFreq+0x26>
700043b2:	6818      	ldr	r0, [r3, #0]
700043b4:	f010 0004 	ands.w	r0, r0, #4
700043b8:	d01c      	beq.n	700043f4 <RCC_GetCLKPFreq+0x4c>
700043ba:	6818      	ldr	r0, [r3, #0]
700043bc:	f010 0020 	ands.w	r0, r0, #32
700043c0:	d018      	beq.n	700043f4 <RCC_GetCLKPFreq+0x4c>
700043c2:	681b      	ldr	r3, [r3, #0]
700043c4:	480d      	ldr	r0, [pc, #52]	@ (700043fc <RCC_GetCLKPFreq+0x54>)
700043c6:	f3c3 03c1 	ubfx	r3, r3, #3, #2
700043ca:	40d8      	lsrs	r0, r3
700043cc:	4770      	bx	lr
700043ce:	f1b2 5f80 	cmp.w	r2, #268435456	@ 0x10000000
700043d2:	d106      	bne.n	700043e2 <RCC_GetCLKPFreq+0x3a>
700043d4:	681b      	ldr	r3, [r3, #0]
700043d6:	480a      	ldr	r0, [pc, #40]	@ (70004400 <RCC_GetCLKPFreq+0x58>)
700043d8:	f413 7f80 	tst.w	r3, #256	@ 0x100
700043dc:	bf08      	it	eq
700043de:	2000      	moveq	r0, #0
700043e0:	4770      	bx	lr
700043e2:	f1b2 5f00 	cmp.w	r2, #536870912	@ 0x20000000
700043e6:	d104      	bne.n	700043f2 <RCC_GetCLKPFreq+0x4a>
700043e8:	681b      	ldr	r3, [r3, #0]
700043ea:	4806      	ldr	r0, [pc, #24]	@ (70004404 <RCC_GetCLKPFreq+0x5c>)
700043ec:	f413 3f00 	tst.w	r3, #131072	@ 0x20000
700043f0:	e7f4      	b.n	700043dc <RCC_GetCLKPFreq+0x34>
700043f2:	2000      	movs	r0, #0
700043f4:	4770      	bx	lr
700043f6:	bf00      	nop
700043f8:	58024400 	.word	0x58024400
700043fc:	03d09000 	.word	0x03d09000
70004400:	003d0900 	.word	0x003d0900
70004404:	016e3600 	.word	0x016e3600

70004408 <HAL_RCCEx_PeriphCLKConfig>:
70004408:	b5f8      	push	{r3, r4, r5, r6, r7, lr}
7000440a:	6803      	ldr	r3, [r0, #0]
7000440c:	4604      	mov	r4, r0
7000440e:	0359      	lsls	r1, r3, #13
70004410:	d54d      	bpl.n	700044ae <HAL_RCCEx_PeriphCLKConfig+0xa6>
70004412:	4b2f      	ldr	r3, [pc, #188]	@ (700044d0 <HAL_RCCEx_PeriphCLKConfig+0xc8>)
70004414:	f8d0 0084 	ldr.w	r0, [r0, #132]	@ 0x84
70004418:	6f1a      	ldr	r2, [r3, #112]	@ 0x70
7000441a:	f412 7240 	ands.w	r2, r2, #768	@ 0x300
7000441e:	d017      	beq.n	70004450 <HAL_RCCEx_PeriphCLKConfig+0x48>
70004420:	f400 7140 	and.w	r1, r0, #768	@ 0x300
70004424:	4291      	cmp	r1, r2
70004426:	d013      	beq.n	70004450 <HAL_RCCEx_PeriphCLKConfig+0x48>
70004428:	4a2a      	ldr	r2, [pc, #168]	@ (700044d4 <HAL_RCCEx_PeriphCLKConfig+0xcc>)
7000442a:	6811      	ldr	r1, [r2, #0]
7000442c:	f441 7180 	orr.w	r1, r1, #256	@ 0x100
70004430:	6011      	str	r1, [r2, #0]
70004432:	6812      	ldr	r2, [r2, #0]
70004434:	05d2      	lsls	r2, r2, #23
70004436:	d549      	bpl.n	700044cc <HAL_RCCEx_PeriphCLKConfig+0xc4>
70004438:	6f1a      	ldr	r2, [r3, #112]	@ 0x70
7000443a:	6f19      	ldr	r1, [r3, #112]	@ 0x70
7000443c:	f422 7240 	bic.w	r2, r2, #768	@ 0x300
70004440:	f441 3180 	orr.w	r1, r1, #65536	@ 0x10000
70004444:	6719      	str	r1, [r3, #112]	@ 0x70
70004446:	6f19      	ldr	r1, [r3, #112]	@ 0x70
70004448:	f421 3180 	bic.w	r1, r1, #65536	@ 0x10000
7000444c:	6719      	str	r1, [r3, #112]	@ 0x70
7000444e:	671a      	str	r2, [r3, #112]	@ 0x70
70004450:	f5b0 7f80 	cmp.w	r0, #256	@ 0x100
70004454:	d009      	beq.n	7000446a <HAL_RCCEx_PeriphCLKConfig+0x62>
70004456:	f8d4 3084 	ldr.w	r3, [r4, #132]	@ 0x84
7000445a:	491d      	ldr	r1, [pc, #116]	@ (700044d0 <HAL_RCCEx_PeriphCLKConfig+0xc8>)
7000445c:	f413 3f7c 	tst.w	r3, #258048	@ 0x3f000
70004460:	d113      	bne.n	7000448a <HAL_RCCEx_PeriphCLKConfig+0x82>
70004462:	690a      	ldr	r2, [r1, #16]
70004464:	f422 527c 	bic.w	r2, r2, #16128	@ 0x3f00
70004468:	e016      	b.n	70004498 <HAL_RCCEx_PeriphCLKConfig+0x90>
7000446a:	f7fd fdef 	bl	7000204c <HAL_GetTick>
7000446e:	4e18      	ldr	r6, [pc, #96]	@ (700044d0 <HAL_RCCEx_PeriphCLKConfig+0xc8>)
70004470:	4605      	mov	r5, r0
70004472:	f241 3788 	movw	r7, #5000	@ 0x1388
70004476:	6f33      	ldr	r3, [r6, #112]	@ 0x70
70004478:	079b      	lsls	r3, r3, #30
7000447a:	d4ec      	bmi.n	70004456 <HAL_RCCEx_PeriphCLKConfig+0x4e>
7000447c:	f7fd fde6 	bl	7000204c <HAL_GetTick>
70004480:	1b40      	subs	r0, r0, r5
70004482:	42b8      	cmp	r0, r7
70004484:	d9f7      	bls.n	70004476 <HAL_RCCEx_PeriphCLKConfig+0x6e>
70004486:	2303      	movs	r3, #3
70004488:	e012      	b.n	700044b0 <HAL_RCCEx_PeriphCLKConfig+0xa8>
7000448a:	6908      	ldr	r0, [r1, #16]
7000448c:	4a12      	ldr	r2, [pc, #72]	@ (700044d8 <HAL_RCCEx_PeriphCLKConfig+0xd0>)
7000448e:	f420 507c 	bic.w	r0, r0, #16128	@ 0x3f00
70004492:	ea02 1213 	and.w	r2, r2, r3, lsr #4
70004496:	4302      	orrs	r2, r0
70004498:	610a      	str	r2, [r1, #16]
7000449a:	f403 7340 	and.w	r3, r3, #768	@ 0x300
7000449e:	4a0c      	ldr	r2, [pc, #48]	@ (700044d0 <HAL_RCCEx_PeriphCLKConfig+0xc8>)
700044a0:	6f11      	ldr	r1, [r2, #112]	@ 0x70
700044a2:	430b      	orrs	r3, r1
700044a4:	6713      	str	r3, [r2, #112]	@ 0x70
700044a6:	6f13      	ldr	r3, [r2, #112]	@ 0x70
700044a8:	f443 4300 	orr.w	r3, r3, #32768	@ 0x8000
700044ac:	6713      	str	r3, [r2, #112]	@ 0x70
700044ae:	2300      	movs	r3, #0
700044b0:	e9d4 2000 	ldrd	r2, r0, [r4]
700044b4:	07d5      	lsls	r5, r2, #31
700044b6:	d51d      	bpl.n	700044f4 <HAL_RCCEx_PeriphCLKConfig+0xec>
700044b8:	68a5      	ldr	r5, [r4, #8]
700044ba:	2d03      	cmp	r5, #3
700044bc:	f200 8107 	bhi.w	700046ce <HAL_RCCEx_PeriphCLKConfig+0x2c6>
700044c0:	e8df f015 	tbh	[pc, r5, lsl #1]
700044c4:	000c0011 	.word	0x000c0011
700044c8:	00110100 	.word	0x00110100
700044cc:	2301      	movs	r3, #1
700044ce:	e7ef      	b.n	700044b0 <HAL_RCCEx_PeriphCLKConfig+0xa8>
700044d0:	58024400 	.word	0x58024400
700044d4:	58024800 	.word	0x58024800
700044d8:	0fffffcf 	.word	0x0fffffcf
700044dc:	4e9d      	ldr	r6, [pc, #628]	@ (70004754 <HAL_RCCEx_PeriphCLKConfig+0x34c>)
700044de:	6af1      	ldr	r1, [r6, #44]	@ 0x2c
700044e0:	f041 0140 	orr.w	r1, r1, #64	@ 0x40
700044e4:	62f1      	str	r1, [r6, #44]	@ 0x2c
700044e6:	b92b      	cbnz	r3, 700044f4 <HAL_RCCEx_PeriphCLKConfig+0xec>
700044e8:	4e9a      	ldr	r6, [pc, #616]	@ (70004754 <HAL_RCCEx_PeriphCLKConfig+0x34c>)
700044ea:	6cf1      	ldr	r1, [r6, #76]	@ 0x4c
700044ec:	f021 0103 	bic.w	r1, r1, #3
700044f0:	4329      	orrs	r1, r5
700044f2:	64f1      	str	r1, [r6, #76]	@ 0x4c
700044f4:	0791      	lsls	r1, r2, #30
700044f6:	d50a      	bpl.n	7000450e <HAL_RCCEx_PeriphCLKConfig+0x106>
700044f8:	68e5      	ldr	r5, [r4, #12]
700044fa:	2d10      	cmp	r5, #16
700044fc:	f000 80e9 	beq.w	700046d2 <HAL_RCCEx_PeriphCLKConfig+0x2ca>
70004500:	2d20      	cmp	r5, #32
70004502:	f000 80f5 	beq.w	700046f0 <HAL_RCCEx_PeriphCLKConfig+0x2e8>
70004506:	2d00      	cmp	r5, #0
70004508:	f000 80e8 	beq.w	700046dc <HAL_RCCEx_PeriphCLKConfig+0x2d4>
7000450c:	2301      	movs	r3, #1
7000450e:	0757      	lsls	r7, r2, #29
70004510:	d50a      	bpl.n	70004528 <HAL_RCCEx_PeriphCLKConfig+0x120>
70004512:	6925      	ldr	r5, [r4, #16]
70004514:	2d40      	cmp	r5, #64	@ 0x40
70004516:	f000 80f0 	beq.w	700046fa <HAL_RCCEx_PeriphCLKConfig+0x2f2>
7000451a:	2d80      	cmp	r5, #128	@ 0x80
7000451c:	f000 80fc 	beq.w	70004718 <HAL_RCCEx_PeriphCLKConfig+0x310>
70004520:	2d00      	cmp	r5, #0
70004522:	f000 80ef 	beq.w	70004704 <HAL_RCCEx_PeriphCLKConfig+0x2fc>
70004526:	2301      	movs	r3, #1
70004528:	0716      	lsls	r6, r2, #28
7000452a:	d506      	bpl.n	7000453a <HAL_RCCEx_PeriphCLKConfig+0x132>
7000452c:	4d89      	ldr	r5, [pc, #548]	@ (70004754 <HAL_RCCEx_PeriphCLKConfig+0x34c>)
7000452e:	6966      	ldr	r6, [r4, #20]
70004530:	6ce9      	ldr	r1, [r5, #76]	@ 0x4c
70004532:	f021 5140 	bic.w	r1, r1, #805306368	@ 0x30000000
70004536:	4331      	orrs	r1, r6
70004538:	64e9      	str	r1, [r5, #76]	@ 0x4c
7000453a:	0295      	lsls	r5, r2, #10
7000453c:	d507      	bpl.n	7000454e <HAL_RCCEx_PeriphCLKConfig+0x146>
7000453e:	6da5      	ldr	r5, [r4, #88]	@ 0x58
70004540:	2d00      	cmp	r5, #0
70004542:	f000 80ee 	beq.w	70004722 <HAL_RCCEx_PeriphCLKConfig+0x31a>
70004546:	2d04      	cmp	r5, #4
70004548:	f000 80fa 	beq.w	70004740 <HAL_RCCEx_PeriphCLKConfig+0x338>
7000454c:	2301      	movs	r3, #1
7000454e:	06d1      	lsls	r1, r2, #27
70004550:	d516      	bpl.n	70004580 <HAL_RCCEx_PeriphCLKConfig+0x178>
70004552:	69a5      	ldr	r5, [r4, #24]
70004554:	f1b5 7f80 	cmp.w	r5, #16777216	@ 0x1000000
70004558:	f000 80f7 	beq.w	7000474a <HAL_RCCEx_PeriphCLKConfig+0x342>
7000455c:	f1b5 7f00 	cmp.w	r5, #33554432	@ 0x2000000
70004560:	d007      	beq.n	70004572 <HAL_RCCEx_PeriphCLKConfig+0x16a>
70004562:	2d00      	cmp	r5, #0
70004564:	f040 80f8 	bne.w	70004758 <HAL_RCCEx_PeriphCLKConfig+0x350>
70004568:	4e7a      	ldr	r6, [pc, #488]	@ (70004754 <HAL_RCCEx_PeriphCLKConfig+0x34c>)
7000456a:	6af1      	ldr	r1, [r6, #44]	@ 0x2c
7000456c:	f441 3180 	orr.w	r1, r1, #65536	@ 0x10000
70004570:	62f1      	str	r1, [r6, #44]	@ 0x2c
70004572:	b92b      	cbnz	r3, 70004580 <HAL_RCCEx_PeriphCLKConfig+0x178>
70004574:	4e77      	ldr	r6, [pc, #476]	@ (70004754 <HAL_RCCEx_PeriphCLKConfig+0x34c>)
70004576:	6cf1      	ldr	r1, [r6, #76]	@ 0x4c
70004578:	f021 7140 	bic.w	r1, r1, #50331648	@ 0x3000000
7000457c:	4329      	orrs	r1, r5
7000457e:	64f1      	str	r1, [r6, #76]	@ 0x4c
70004580:	0697      	lsls	r7, r2, #26
70004582:	d50e      	bpl.n	700045a2 <HAL_RCCEx_PeriphCLKConfig+0x19a>
70004584:	69e1      	ldr	r1, [r4, #28]
70004586:	f5b1 1f00 	cmp.w	r1, #2097152	@ 0x200000
7000458a:	f000 8100 	beq.w	7000478e <HAL_RCCEx_PeriphCLKConfig+0x386>
7000458e:	f200 80e5 	bhi.w	7000475c <HAL_RCCEx_PeriphCLKConfig+0x354>
70004592:	2900      	cmp	r1, #0
70004594:	f000 80eb 	beq.w	7000476e <HAL_RCCEx_PeriphCLKConfig+0x366>
70004598:	f5b1 1f80 	cmp.w	r1, #1048576	@ 0x100000
7000459c:	f000 80f1 	beq.w	70004782 <HAL_RCCEx_PeriphCLKConfig+0x37a>
700045a0:	2301      	movs	r3, #1
700045a2:	0656      	lsls	r6, r2, #25
700045a4:	d506      	bpl.n	700045b4 <HAL_RCCEx_PeriphCLKConfig+0x1ac>
700045a6:	4d6b      	ldr	r5, [pc, #428]	@ (70004754 <HAL_RCCEx_PeriphCLKConfig+0x34c>)
700045a8:	6a26      	ldr	r6, [r4, #32]
700045aa:	6d29      	ldr	r1, [r5, #80]	@ 0x50
700045ac:	f021 5140 	bic.w	r1, r1, #805306368	@ 0x30000000
700045b0:	4331      	orrs	r1, r6
700045b2:	6529      	str	r1, [r5, #80]	@ 0x50
700045b4:	0615      	lsls	r5, r2, #24
700045b6:	d506      	bpl.n	700045c6 <HAL_RCCEx_PeriphCLKConfig+0x1be>
700045b8:	4d66      	ldr	r5, [pc, #408]	@ (70004754 <HAL_RCCEx_PeriphCLKConfig+0x34c>)
700045ba:	6a66      	ldr	r6, [r4, #36]	@ 0x24
700045bc:	6ce9      	ldr	r1, [r5, #76]	@ 0x4c
700045be:	f421 3140 	bic.w	r1, r1, #196608	@ 0x30000
700045c2:	4331      	orrs	r1, r6
700045c4:	64e9      	str	r1, [r5, #76]	@ 0x4c
700045c6:	05d1      	lsls	r1, r2, #23
700045c8:	d511      	bpl.n	700045ee <HAL_RCCEx_PeriphCLKConfig+0x1e6>
700045ca:	6aa5      	ldr	r5, [r4, #40]	@ 0x28
700045cc:	b145      	cbz	r5, 700045e0 <HAL_RCCEx_PeriphCLKConfig+0x1d8>
700045ce:	f5b5 2f80 	cmp.w	r5, #262144	@ 0x40000
700045d2:	f040 80e1 	bne.w	70004798 <HAL_RCCEx_PeriphCLKConfig+0x390>
700045d6:	4e5f      	ldr	r6, [pc, #380]	@ (70004754 <HAL_RCCEx_PeriphCLKConfig+0x34c>)
700045d8:	6af1      	ldr	r1, [r6, #44]	@ 0x2c
700045da:	f041 4180 	orr.w	r1, r1, #1073741824	@ 0x40000000
700045de:	62f1      	str	r1, [r6, #44]	@ 0x2c
700045e0:	b92b      	cbnz	r3, 700045ee <HAL_RCCEx_PeriphCLKConfig+0x1e6>
700045e2:	4e5c      	ldr	r6, [pc, #368]	@ (70004754 <HAL_RCCEx_PeriphCLKConfig+0x34c>)
700045e4:	6cf1      	ldr	r1, [r6, #76]	@ 0x4c
700045e6:	f421 2180 	bic.w	r1, r1, #262144	@ 0x40000
700045ea:	4329      	orrs	r1, r5
700045ec:	64f1      	str	r1, [r6, #76]	@ 0x4c
700045ee:	0597      	lsls	r7, r2, #22
700045f0:	d50c      	bpl.n	7000460c <HAL_RCCEx_PeriphCLKConfig+0x204>
700045f2:	6ae5      	ldr	r5, [r4, #44]	@ 0x2c
700045f4:	f5b5 0f80 	cmp.w	r5, #4194304	@ 0x400000
700045f8:	f000 80d0 	beq.w	7000479c <HAL_RCCEx_PeriphCLKConfig+0x394>
700045fc:	f5b5 0f00 	cmp.w	r5, #8388608	@ 0x800000
70004600:	f000 80db 	beq.w	700047ba <HAL_RCCEx_PeriphCLKConfig+0x3b2>
70004604:	2d00      	cmp	r5, #0
70004606:	f000 80ce 	beq.w	700047a6 <HAL_RCCEx_PeriphCLKConfig+0x39e>
7000460a:	2301      	movs	r3, #1
7000460c:	0516      	lsls	r6, r2, #20
7000460e:	d50a      	bpl.n	70004626 <HAL_RCCEx_PeriphCLKConfig+0x21e>
70004610:	6b25      	ldr	r5, [r4, #48]	@ 0x30
70004612:	f5b5 5f80 	cmp.w	r5, #4096	@ 0x1000
70004616:	f000 80e5 	beq.w	700047e4 <HAL_RCCEx_PeriphCLKConfig+0x3dc>
7000461a:	f200 80d3 	bhi.w	700047c4 <HAL_RCCEx_PeriphCLKConfig+0x3bc>
7000461e:	2d00      	cmp	r5, #0
70004620:	f000 80d6 	beq.w	700047d0 <HAL_RCCEx_PeriphCLKConfig+0x3c8>
70004624:	2301      	movs	r3, #1
70004626:	0555      	lsls	r5, r2, #21
70004628:	d50a      	bpl.n	70004640 <HAL_RCCEx_PeriphCLKConfig+0x238>
7000462a:	6b65      	ldr	r5, [r4, #52]	@ 0x34
7000462c:	f5b5 7f80 	cmp.w	r5, #256	@ 0x100
70004630:	f000 80ee 	beq.w	70004810 <HAL_RCCEx_PeriphCLKConfig+0x408>
70004634:	f200 80dc 	bhi.w	700047f0 <HAL_RCCEx_PeriphCLKConfig+0x3e8>
70004638:	2d00      	cmp	r5, #0
7000463a:	f000 80df 	beq.w	700047fc <HAL_RCCEx_PeriphCLKConfig+0x3f4>
7000463e:	2301      	movs	r3, #1
70004640:	04d1      	lsls	r1, r2, #19
70004642:	d50e      	bpl.n	70004662 <HAL_RCCEx_PeriphCLKConfig+0x25a>
70004644:	6ba1      	ldr	r1, [r4, #56]	@ 0x38
70004646:	f5b1 3f00 	cmp.w	r1, #131072	@ 0x20000
7000464a:	f000 8100 	beq.w	7000484e <HAL_RCCEx_PeriphCLKConfig+0x446>
7000464e:	f200 80e5 	bhi.w	7000481c <HAL_RCCEx_PeriphCLKConfig+0x414>
70004652:	2900      	cmp	r1, #0
70004654:	f000 80eb 	beq.w	7000482e <HAL_RCCEx_PeriphCLKConfig+0x426>
70004658:	f5b1 3f80 	cmp.w	r1, #65536	@ 0x10000
7000465c:	f000 80f1 	beq.w	70004842 <HAL_RCCEx_PeriphCLKConfig+0x43a>
70004660:	2301      	movs	r3, #1
70004662:	0497      	lsls	r7, r2, #18
70004664:	d50e      	bpl.n	70004684 <HAL_RCCEx_PeriphCLKConfig+0x27c>
70004666:	6be1      	ldr	r1, [r4, #60]	@ 0x3c
70004668:	f5b1 7f00 	cmp.w	r1, #512	@ 0x200
7000466c:	f000 810d 	beq.w	7000488a <HAL_RCCEx_PeriphCLKConfig+0x482>
70004670:	f200 80f2 	bhi.w	70004858 <HAL_RCCEx_PeriphCLKConfig+0x450>
70004674:	2900      	cmp	r1, #0
70004676:	f000 80f8 	beq.w	7000486a <HAL_RCCEx_PeriphCLKConfig+0x462>
7000467a:	f5b1 7f80 	cmp.w	r1, #256	@ 0x100
7000467e:	f000 80fe 	beq.w	7000487e <HAL_RCCEx_PeriphCLKConfig+0x476>
70004682:	2301      	movs	r3, #1
70004684:	0456      	lsls	r6, r2, #17
70004686:	d50e      	bpl.n	700046a6 <HAL_RCCEx_PeriphCLKConfig+0x29e>
70004688:	6c21      	ldr	r1, [r4, #64]	@ 0x40
7000468a:	f5b1 5f00 	cmp.w	r1, #8192	@ 0x2000
7000468e:	f000 811a 	beq.w	700048c6 <HAL_RCCEx_PeriphCLKConfig+0x4be>
70004692:	f200 80ff 	bhi.w	70004894 <HAL_RCCEx_PeriphCLKConfig+0x48c>
70004696:	2900      	cmp	r1, #0
70004698:	f000 8105 	beq.w	700048a6 <HAL_RCCEx_PeriphCLKConfig+0x49e>
7000469c:	f5b1 5f80 	cmp.w	r1, #4096	@ 0x1000
700046a0:	f000 810b 	beq.w	700048ba <HAL_RCCEx_PeriphCLKConfig+0x4b2>
700046a4:	2301      	movs	r3, #1
700046a6:	0415      	lsls	r5, r2, #16
700046a8:	f140 8120 	bpl.w	700048ec <HAL_RCCEx_PeriphCLKConfig+0x4e4>
700046ac:	6c65      	ldr	r5, [r4, #68]	@ 0x44
700046ae:	2d05      	cmp	r5, #5
700046b0:	f200 81b3 	bhi.w	70004a1a <HAL_RCCEx_PeriphCLKConfig+0x612>
700046b4:	e8df f015 	tbh	[pc, r5, lsl #1]
700046b8:	010e0113 	.word	0x010e0113
700046bc:	011301ac 	.word	0x011301ac
700046c0:	01130113 	.word	0x01130113
700046c4:	4e23      	ldr	r6, [pc, #140]	@ (70004754 <HAL_RCCEx_PeriphCLKConfig+0x34c>)
700046c6:	6af1      	ldr	r1, [r6, #44]	@ 0x2c
700046c8:	f441 2180 	orr.w	r1, r1, #262144	@ 0x40000
700046cc:	e70a      	b.n	700044e4 <HAL_RCCEx_PeriphCLKConfig+0xdc>
700046ce:	2301      	movs	r3, #1
700046d0:	e710      	b.n	700044f4 <HAL_RCCEx_PeriphCLKConfig+0xec>
700046d2:	4e20      	ldr	r6, [pc, #128]	@ (70004754 <HAL_RCCEx_PeriphCLKConfig+0x34c>)
700046d4:	6af1      	ldr	r1, [r6, #44]	@ 0x2c
700046d6:	f441 2100 	orr.w	r1, r1, #524288	@ 0x80000
700046da:	62f1      	str	r1, [r6, #44]	@ 0x2c
700046dc:	2b00      	cmp	r3, #0
700046de:	f47f af16 	bne.w	7000450e <HAL_RCCEx_PeriphCLKConfig+0x106>
700046e2:	4e1c      	ldr	r6, [pc, #112]	@ (70004754 <HAL_RCCEx_PeriphCLKConfig+0x34c>)
700046e4:	6cf1      	ldr	r1, [r6, #76]	@ 0x4c
700046e6:	f021 0130 	bic.w	r1, r1, #48	@ 0x30
700046ea:	4329      	orrs	r1, r5
700046ec:	64f1      	str	r1, [r6, #76]	@ 0x4c
700046ee:	e70e      	b.n	7000450e <HAL_RCCEx_PeriphCLKConfig+0x106>
700046f0:	4e18      	ldr	r6, [pc, #96]	@ (70004754 <HAL_RCCEx_PeriphCLKConfig+0x34c>)
700046f2:	6af1      	ldr	r1, [r6, #44]	@ 0x2c
700046f4:	f441 1180 	orr.w	r1, r1, #1048576	@ 0x100000
700046f8:	e7ef      	b.n	700046da <HAL_RCCEx_PeriphCLKConfig+0x2d2>
700046fa:	4e16      	ldr	r6, [pc, #88]	@ (70004754 <HAL_RCCEx_PeriphCLKConfig+0x34c>)
700046fc:	6af1      	ldr	r1, [r6, #44]	@ 0x2c
700046fe:	f441 2100 	orr.w	r1, r1, #524288	@ 0x80000
70004702:	62f1      	str	r1, [r6, #44]	@ 0x2c
70004704:	2b00      	cmp	r3, #0
70004706:	f47f af0f 	bne.w	70004528 <HAL_RCCEx_PeriphCLKConfig+0x120>
7000470a:	4e12      	ldr	r6, [pc, #72]	@ (70004754 <HAL_RCCEx_PeriphCLKConfig+0x34c>)
7000470c:	6cf1      	ldr	r1, [r6, #76]	@ 0x4c
7000470e:	f021 01c0 	bic.w	r1, r1, #192	@ 0xc0
70004712:	4329      	orrs	r1, r5
70004714:	64f1      	str	r1, [r6, #76]	@ 0x4c
70004716:	e707      	b.n	70004528 <HAL_RCCEx_PeriphCLKConfig+0x120>
70004718:	4e0e      	ldr	r6, [pc, #56]	@ (70004754 <HAL_RCCEx_PeriphCLKConfig+0x34c>)
7000471a:	6af1      	ldr	r1, [r6, #44]	@ 0x2c
7000471c:	f441 1180 	orr.w	r1, r1, #1048576	@ 0x100000
70004720:	e7ef      	b.n	70004702 <HAL_RCCEx_PeriphCLKConfig+0x2fa>
70004722:	4e0c      	ldr	r6, [pc, #48]	@ (70004754 <HAL_RCCEx_PeriphCLKConfig+0x34c>)
70004724:	6af1      	ldr	r1, [r6, #44]	@ 0x2c
70004726:	f441 2100 	orr.w	r1, r1, #524288	@ 0x80000
7000472a:	62f1      	str	r1, [r6, #44]	@ 0x2c
7000472c:	2b00      	cmp	r3, #0
7000472e:	f47f af0e 	bne.w	7000454e <HAL_RCCEx_PeriphCLKConfig+0x146>
70004732:	4e08      	ldr	r6, [pc, #32]	@ (70004754 <HAL_RCCEx_PeriphCLKConfig+0x34c>)
70004734:	6cf1      	ldr	r1, [r6, #76]	@ 0x4c
70004736:	f021 0104 	bic.w	r1, r1, #4
7000473a:	4329      	orrs	r1, r5
7000473c:	64f1      	str	r1, [r6, #76]	@ 0x4c
7000473e:	e706      	b.n	7000454e <HAL_RCCEx_PeriphCLKConfig+0x146>
70004740:	4e04      	ldr	r6, [pc, #16]	@ (70004754 <HAL_RCCEx_PeriphCLKConfig+0x34c>)
70004742:	6af1      	ldr	r1, [r6, #44]	@ 0x2c
70004744:	f441 1180 	orr.w	r1, r1, #1048576	@ 0x100000
70004748:	e7ef      	b.n	7000472a <HAL_RCCEx_PeriphCLKConfig+0x322>
7000474a:	4e02      	ldr	r6, [pc, #8]	@ (70004754 <HAL_RCCEx_PeriphCLKConfig+0x34c>)
7000474c:	6af1      	ldr	r1, [r6, #44]	@ 0x2c
7000474e:	f041 5100 	orr.w	r1, r1, #536870912	@ 0x20000000
70004752:	e70d      	b.n	70004570 <HAL_RCCEx_PeriphCLKConfig+0x168>
70004754:	58024400 	.word	0x58024400
70004758:	2301      	movs	r3, #1
7000475a:	e711      	b.n	70004580 <HAL_RCCEx_PeriphCLKConfig+0x178>
7000475c:	f421 1580 	bic.w	r5, r1, #1048576	@ 0x100000
70004760:	f5b5 0f80 	cmp.w	r5, #4194304	@ 0x400000
70004764:	d003      	beq.n	7000476e <HAL_RCCEx_PeriphCLKConfig+0x366>
70004766:	f5b1 1f40 	cmp.w	r1, #3145728	@ 0x300000
7000476a:	f47f af19 	bne.w	700045a0 <HAL_RCCEx_PeriphCLKConfig+0x198>
7000476e:	2b00      	cmp	r3, #0
70004770:	f47f af17 	bne.w	700045a2 <HAL_RCCEx_PeriphCLKConfig+0x19a>
70004774:	4e56      	ldr	r6, [pc, #344]	@ (700048d0 <HAL_RCCEx_PeriphCLKConfig+0x4c8>)
70004776:	6cf5      	ldr	r5, [r6, #76]	@ 0x4c
70004778:	f425 05e0 	bic.w	r5, r5, #7340032	@ 0x700000
7000477c:	4329      	orrs	r1, r5
7000477e:	64f1      	str	r1, [r6, #76]	@ 0x4c
70004780:	e70f      	b.n	700045a2 <HAL_RCCEx_PeriphCLKConfig+0x19a>
70004782:	4e53      	ldr	r6, [pc, #332]	@ (700048d0 <HAL_RCCEx_PeriphCLKConfig+0x4c8>)
70004784:	6af5      	ldr	r5, [r6, #44]	@ 0x2c
70004786:	f445 3580 	orr.w	r5, r5, #65536	@ 0x10000
7000478a:	62f5      	str	r5, [r6, #44]	@ 0x2c
7000478c:	e7ef      	b.n	7000476e <HAL_RCCEx_PeriphCLKConfig+0x366>
7000478e:	4e50      	ldr	r6, [pc, #320]	@ (700048d0 <HAL_RCCEx_PeriphCLKConfig+0x4c8>)
70004790:	6af5      	ldr	r5, [r6, #44]	@ 0x2c
70004792:	f045 6500 	orr.w	r5, r5, #134217728	@ 0x8000000
70004796:	e7f8      	b.n	7000478a <HAL_RCCEx_PeriphCLKConfig+0x382>
70004798:	2301      	movs	r3, #1
7000479a:	e728      	b.n	700045ee <HAL_RCCEx_PeriphCLKConfig+0x1e6>
7000479c:	4e4c      	ldr	r6, [pc, #304]	@ (700048d0 <HAL_RCCEx_PeriphCLKConfig+0x4c8>)
7000479e:	6af1      	ldr	r1, [r6, #44]	@ 0x2c
700047a0:	f041 0140 	orr.w	r1, r1, #64	@ 0x40
700047a4:	62f1      	str	r1, [r6, #44]	@ 0x2c
700047a6:	2b00      	cmp	r3, #0
700047a8:	f47f af30 	bne.w	7000460c <HAL_RCCEx_PeriphCLKConfig+0x204>
700047ac:	4e48      	ldr	r6, [pc, #288]	@ (700048d0 <HAL_RCCEx_PeriphCLKConfig+0x4c8>)
700047ae:	6d31      	ldr	r1, [r6, #80]	@ 0x50
700047b0:	f421 0140 	bic.w	r1, r1, #12582912	@ 0xc00000
700047b4:	4329      	orrs	r1, r5
700047b6:	6531      	str	r1, [r6, #80]	@ 0x50
700047b8:	e728      	b.n	7000460c <HAL_RCCEx_PeriphCLKConfig+0x204>
700047ba:	4e45      	ldr	r6, [pc, #276]	@ (700048d0 <HAL_RCCEx_PeriphCLKConfig+0x4c8>)
700047bc:	6af1      	ldr	r1, [r6, #44]	@ 0x2c
700047be:	f441 3180 	orr.w	r1, r1, #65536	@ 0x10000
700047c2:	e7ef      	b.n	700047a4 <HAL_RCCEx_PeriphCLKConfig+0x39c>
700047c4:	f425 5180 	bic.w	r1, r5, #4096	@ 0x1000
700047c8:	f5b1 5f00 	cmp.w	r1, #8192	@ 0x2000
700047cc:	f47f af2a 	bne.w	70004624 <HAL_RCCEx_PeriphCLKConfig+0x21c>
700047d0:	2b00      	cmp	r3, #0
700047d2:	f47f af28 	bne.w	70004626 <HAL_RCCEx_PeriphCLKConfig+0x21e>
700047d6:	4e3e      	ldr	r6, [pc, #248]	@ (700048d0 <HAL_RCCEx_PeriphCLKConfig+0x4c8>)
700047d8:	6d31      	ldr	r1, [r6, #80]	@ 0x50
700047da:	f421 5140 	bic.w	r1, r1, #12288	@ 0x3000
700047de:	4329      	orrs	r1, r5
700047e0:	6531      	str	r1, [r6, #80]	@ 0x50
700047e2:	e720      	b.n	70004626 <HAL_RCCEx_PeriphCLKConfig+0x21e>
700047e4:	4e3a      	ldr	r6, [pc, #232]	@ (700048d0 <HAL_RCCEx_PeriphCLKConfig+0x4c8>)
700047e6:	6af1      	ldr	r1, [r6, #44]	@ 0x2c
700047e8:	f041 5100 	orr.w	r1, r1, #536870912	@ 0x20000000
700047ec:	62f1      	str	r1, [r6, #44]	@ 0x2c
700047ee:	e7ef      	b.n	700047d0 <HAL_RCCEx_PeriphCLKConfig+0x3c8>
700047f0:	f425 7180 	bic.w	r1, r5, #256	@ 0x100
700047f4:	f5b1 7f00 	cmp.w	r1, #512	@ 0x200
700047f8:	f47f af21 	bne.w	7000463e <HAL_RCCEx_PeriphCLKConfig+0x236>
700047fc:	2b00      	cmp	r3, #0
700047fe:	f47f af1f 	bne.w	70004640 <HAL_RCCEx_PeriphCLKConfig+0x238>
70004802:	4e33      	ldr	r6, [pc, #204]	@ (700048d0 <HAL_RCCEx_PeriphCLKConfig+0x4c8>)
70004804:	6d31      	ldr	r1, [r6, #80]	@ 0x50
70004806:	f421 7140 	bic.w	r1, r1, #768	@ 0x300
7000480a:	4329      	orrs	r1, r5
7000480c:	6531      	str	r1, [r6, #80]	@ 0x50
7000480e:	e717      	b.n	70004640 <HAL_RCCEx_PeriphCLKConfig+0x238>
70004810:	4e2f      	ldr	r6, [pc, #188]	@ (700048d0 <HAL_RCCEx_PeriphCLKConfig+0x4c8>)
70004812:	6af1      	ldr	r1, [r6, #44]	@ 0x2c
70004814:	f041 5100 	orr.w	r1, r1, #536870912	@ 0x20000000
70004818:	62f1      	str	r1, [r6, #44]	@ 0x2c
7000481a:	e7ef      	b.n	700047fc <HAL_RCCEx_PeriphCLKConfig+0x3f4>
7000481c:	f421 3580 	bic.w	r5, r1, #65536	@ 0x10000
70004820:	f5b5 2f80 	cmp.w	r5, #262144	@ 0x40000
70004824:	d003      	beq.n	7000482e <HAL_RCCEx_PeriphCLKConfig+0x426>
70004826:	f5b1 3f40 	cmp.w	r1, #196608	@ 0x30000
7000482a:	f47f af19 	bne.w	70004660 <HAL_RCCEx_PeriphCLKConfig+0x258>
7000482e:	2b00      	cmp	r3, #0
70004830:	f47f af17 	bne.w	70004662 <HAL_RCCEx_PeriphCLKConfig+0x25a>
70004834:	4e26      	ldr	r6, [pc, #152]	@ (700048d0 <HAL_RCCEx_PeriphCLKConfig+0x4c8>)
70004836:	6d35      	ldr	r5, [r6, #80]	@ 0x50
70004838:	f425 25e0 	bic.w	r5, r5, #458752	@ 0x70000
7000483c:	4329      	orrs	r1, r5
7000483e:	6531      	str	r1, [r6, #80]	@ 0x50
70004840:	e70f      	b.n	70004662 <HAL_RCCEx_PeriphCLKConfig+0x25a>
70004842:	4e23      	ldr	r6, [pc, #140]	@ (700048d0 <HAL_RCCEx_PeriphCLKConfig+0x4c8>)
70004844:	6af5      	ldr	r5, [r6, #44]	@ 0x2c
70004846:	f445 3580 	orr.w	r5, r5, #65536	@ 0x10000
7000484a:	62f5      	str	r5, [r6, #44]	@ 0x2c
7000484c:	e7ef      	b.n	7000482e <HAL_RCCEx_PeriphCLKConfig+0x426>
7000484e:	4e20      	ldr	r6, [pc, #128]	@ (700048d0 <HAL_RCCEx_PeriphCLKConfig+0x4c8>)
70004850:	6af5      	ldr	r5, [r6, #44]	@ 0x2c
70004852:	f045 5500 	orr.w	r5, r5, #536870912	@ 0x20000000
70004856:	e7f8      	b.n	7000484a <HAL_RCCEx_PeriphCLKConfig+0x442>
70004858:	f421 7580 	bic.w	r5, r1, #256	@ 0x100
7000485c:	f5b5 6f80 	cmp.w	r5, #1024	@ 0x400
70004860:	d003      	beq.n	7000486a <HAL_RCCEx_PeriphCLKConfig+0x462>
70004862:	f5b1 7f40 	cmp.w	r1, #768	@ 0x300
70004866:	f47f af0c 	bne.w	70004682 <HAL_RCCEx_PeriphCLKConfig+0x27a>
7000486a:	2b00      	cmp	r3, #0
7000486c:	f47f af0a 	bne.w	70004684 <HAL_RCCEx_PeriphCLKConfig+0x27c>
70004870:	4e17      	ldr	r6, [pc, #92]	@ (700048d0 <HAL_RCCEx_PeriphCLKConfig+0x4c8>)
70004872:	6db5      	ldr	r5, [r6, #88]	@ 0x58
70004874:	f425 65e0 	bic.w	r5, r5, #1792	@ 0x700
70004878:	4329      	orrs	r1, r5
7000487a:	65b1      	str	r1, [r6, #88]	@ 0x58
7000487c:	e702      	b.n	70004684 <HAL_RCCEx_PeriphCLKConfig+0x27c>
7000487e:	4e14      	ldr	r6, [pc, #80]	@ (700048d0 <HAL_RCCEx_PeriphCLKConfig+0x4c8>)
70004880:	6af5      	ldr	r5, [r6, #44]	@ 0x2c
70004882:	f445 3580 	orr.w	r5, r5, #65536	@ 0x10000
70004886:	62f5      	str	r5, [r6, #44]	@ 0x2c
70004888:	e7ef      	b.n	7000486a <HAL_RCCEx_PeriphCLKConfig+0x462>
7000488a:	4e11      	ldr	r6, [pc, #68]	@ (700048d0 <HAL_RCCEx_PeriphCLKConfig+0x4c8>)
7000488c:	6af5      	ldr	r5, [r6, #44]	@ 0x2c
7000488e:	f045 5500 	orr.w	r5, r5, #536870912	@ 0x20000000
70004892:	e7f8      	b.n	70004886 <HAL_RCCEx_PeriphCLKConfig+0x47e>
70004894:	f421 5580 	bic.w	r5, r1, #4096	@ 0x1000
70004898:	f5b5 4f80 	cmp.w	r5, #16384	@ 0x4000
7000489c:	d003      	beq.n	700048a6 <HAL_RCCEx_PeriphCLKConfig+0x49e>
7000489e:	f5b1 5f40 	cmp.w	r1, #12288	@ 0x3000
700048a2:	f47f aeff 	bne.w	700046a4 <HAL_RCCEx_PeriphCLKConfig+0x29c>
700048a6:	2b00      	cmp	r3, #0
700048a8:	f47f aefd 	bne.w	700046a6 <HAL_RCCEx_PeriphCLKConfig+0x29e>
700048ac:	4e08      	ldr	r6, [pc, #32]	@ (700048d0 <HAL_RCCEx_PeriphCLKConfig+0x4c8>)
700048ae:	6db5      	ldr	r5, [r6, #88]	@ 0x58
700048b0:	f425 45e0 	bic.w	r5, r5, #28672	@ 0x7000
700048b4:	4329      	orrs	r1, r5
700048b6:	65b1      	str	r1, [r6, #88]	@ 0x58
700048b8:	e6f5      	b.n	700046a6 <HAL_RCCEx_PeriphCLKConfig+0x29e>
700048ba:	4e05      	ldr	r6, [pc, #20]	@ (700048d0 <HAL_RCCEx_PeriphCLKConfig+0x4c8>)
700048bc:	6af5      	ldr	r5, [r6, #44]	@ 0x2c
700048be:	f445 3580 	orr.w	r5, r5, #65536	@ 0x10000
700048c2:	62f5      	str	r5, [r6, #44]	@ 0x2c
700048c4:	e7ef      	b.n	700048a6 <HAL_RCCEx_PeriphCLKConfig+0x49e>
700048c6:	4e02      	ldr	r6, [pc, #8]	@ (700048d0 <HAL_RCCEx_PeriphCLKConfig+0x4c8>)
700048c8:	6af5      	ldr	r5, [r6, #44]	@ 0x2c
700048ca:	f045 5500 	orr.w	r5, r5, #536870912	@ 0x20000000
700048ce:	e7f8      	b.n	700048c2 <HAL_RCCEx_PeriphCLKConfig+0x4ba>
700048d0:	58024400 	.word	0x58024400
700048d4:	4ea2      	ldr	r6, [pc, #648]	@ (70004b60 <HAL_RCCEx_PeriphCLKConfig+0x758>)
700048d6:	6af1      	ldr	r1, [r6, #44]	@ 0x2c
700048d8:	f441 3100 	orr.w	r1, r1, #131072	@ 0x20000
700048dc:	62f1      	str	r1, [r6, #44]	@ 0x2c
700048de:	b92b      	cbnz	r3, 700048ec <HAL_RCCEx_PeriphCLKConfig+0x4e4>
700048e0:	4e9f      	ldr	r6, [pc, #636]	@ (70004b60 <HAL_RCCEx_PeriphCLKConfig+0x758>)
700048e2:	6db1      	ldr	r1, [r6, #88]	@ 0x58
700048e4:	f021 0107 	bic.w	r1, r1, #7
700048e8:	4329      	orrs	r1, r5
700048ea:	65b1      	str	r1, [r6, #88]	@ 0x58
700048ec:	03d1      	lsls	r1, r2, #15
700048ee:	d504      	bpl.n	700048fa <HAL_RCCEx_PeriphCLKConfig+0x4f2>
700048f0:	4d9b      	ldr	r5, [pc, #620]	@ (70004b60 <HAL_RCCEx_PeriphCLKConfig+0x758>)
700048f2:	6ae9      	ldr	r1, [r5, #44]	@ 0x2c
700048f4:	f041 5100 	orr.w	r1, r1, #536870912	@ 0x20000000
700048f8:	62e9      	str	r1, [r5, #44]	@ 0x2c
700048fa:	0397      	lsls	r7, r2, #14
700048fc:	d508      	bpl.n	70004910 <HAL_RCCEx_PeriphCLKConfig+0x508>
700048fe:	6ce5      	ldr	r5, [r4, #76]	@ 0x4c
70004900:	2d00      	cmp	r5, #0
70004902:	f000 808c 	beq.w	70004a1e <HAL_RCCEx_PeriphCLKConfig+0x616>
70004906:	f1b5 6f00 	cmp.w	r5, #134217728	@ 0x8000000
7000490a:	f000 808d 	beq.w	70004a28 <HAL_RCCEx_PeriphCLKConfig+0x620>
7000490e:	2301      	movs	r3, #1
70004910:	0316      	lsls	r6, r2, #12
70004912:	d50e      	bpl.n	70004932 <HAL_RCCEx_PeriphCLKConfig+0x52a>
70004914:	6d21      	ldr	r1, [r4, #80]	@ 0x50
70004916:	f5b1 3f00 	cmp.w	r1, #131072	@ 0x20000
7000491a:	f000 80ab 	beq.w	70004a74 <HAL_RCCEx_PeriphCLKConfig+0x66c>
7000491e:	f200 808d 	bhi.w	70004a3c <HAL_RCCEx_PeriphCLKConfig+0x634>
70004922:	2900      	cmp	r1, #0
70004924:	f000 809b 	beq.w	70004a5e <HAL_RCCEx_PeriphCLKConfig+0x656>
70004928:	f5b1 3f80 	cmp.w	r1, #65536	@ 0x10000
7000492c:	f000 809d 	beq.w	70004a6a <HAL_RCCEx_PeriphCLKConfig+0x662>
70004930:	2301      	movs	r3, #1
70004932:	02d5      	lsls	r5, r2, #11
70004934:	d50e      	bpl.n	70004954 <HAL_RCCEx_PeriphCLKConfig+0x54c>
70004936:	6d61      	ldr	r1, [r4, #84]	@ 0x54
70004938:	f5b1 1f00 	cmp.w	r1, #2097152	@ 0x200000
7000493c:	f000 80bd 	beq.w	70004aba <HAL_RCCEx_PeriphCLKConfig+0x6b2>
70004940:	f200 809d 	bhi.w	70004a7e <HAL_RCCEx_PeriphCLKConfig+0x676>
70004944:	2900      	cmp	r1, #0
70004946:	f000 80ad 	beq.w	70004aa4 <HAL_RCCEx_PeriphCLKConfig+0x69c>
7000494a:	f5b1 1f80 	cmp.w	r1, #1048576	@ 0x100000
7000494e:	f000 80af 	beq.w	70004ab0 <HAL_RCCEx_PeriphCLKConfig+0x6a8>
70004952:	2301      	movs	r3, #1
70004954:	0251      	lsls	r1, r2, #9
70004956:	d50e      	bpl.n	70004976 <HAL_RCCEx_PeriphCLKConfig+0x56e>
70004958:	6ee5      	ldr	r5, [r4, #108]	@ 0x6c
7000495a:	f1b5 7f00 	cmp.w	r5, #33554432	@ 0x2000000
7000495e:	f000 80ca 	beq.w	70004af6 <HAL_RCCEx_PeriphCLKConfig+0x6ee>
70004962:	f200 80af 	bhi.w	70004ac4 <HAL_RCCEx_PeriphCLKConfig+0x6bc>
70004966:	2d00      	cmp	r5, #0
70004968:	f000 80ba 	beq.w	70004ae0 <HAL_RCCEx_PeriphCLKConfig+0x6d8>
7000496c:	f1b5 7f80 	cmp.w	r5, #16777216	@ 0x1000000
70004970:	f000 80bc 	beq.w	70004aec <HAL_RCCEx_PeriphCLKConfig+0x6e4>
70004974:	2301      	movs	r3, #1
70004976:	0217      	lsls	r7, r2, #8
70004978:	d50e      	bpl.n	70004998 <HAL_RCCEx_PeriphCLKConfig+0x590>
7000497a:	6de1      	ldr	r1, [r4, #92]	@ 0x5c
7000497c:	f5b1 7f00 	cmp.w	r1, #512	@ 0x200
70004980:	f000 80da 	beq.w	70004b38 <HAL_RCCEx_PeriphCLKConfig+0x730>
70004984:	f200 80bc 	bhi.w	70004b00 <HAL_RCCEx_PeriphCLKConfig+0x6f8>
70004988:	2900      	cmp	r1, #0
7000498a:	f000 80ca 	beq.w	70004b22 <HAL_RCCEx_PeriphCLKConfig+0x71a>
7000498e:	f5b1 7f80 	cmp.w	r1, #256	@ 0x100
70004992:	f000 80cc 	beq.w	70004b2e <HAL_RCCEx_PeriphCLKConfig+0x726>
70004996:	2301      	movs	r3, #1
70004998:	01d6      	lsls	r6, r2, #7
7000499a:	d50c      	bpl.n	700049b6 <HAL_RCCEx_PeriphCLKConfig+0x5ae>
7000499c:	6e21      	ldr	r1, [r4, #96]	@ 0x60
7000499e:	2920      	cmp	r1, #32
700049a0:	f000 80eb 	beq.w	70004b7a <HAL_RCCEx_PeriphCLKConfig+0x772>
700049a4:	f200 80cd 	bhi.w	70004b42 <HAL_RCCEx_PeriphCLKConfig+0x73a>
700049a8:	2900      	cmp	r1, #0
700049aa:	f000 80db 	beq.w	70004b64 <HAL_RCCEx_PeriphCLKConfig+0x75c>
700049ae:	2910      	cmp	r1, #16
700049b0:	f000 80de 	beq.w	70004b70 <HAL_RCCEx_PeriphCLKConfig+0x768>
700049b4:	2301      	movs	r3, #1
700049b6:	0195      	lsls	r5, r2, #6
700049b8:	d50c      	bpl.n	700049d4 <HAL_RCCEx_PeriphCLKConfig+0x5cc>
700049ba:	6e61      	ldr	r1, [r4, #100]	@ 0x64
700049bc:	2920      	cmp	r1, #32
700049be:	f000 80f8 	beq.w	70004bb2 <HAL_RCCEx_PeriphCLKConfig+0x7aa>
700049c2:	f200 80df 	bhi.w	70004b84 <HAL_RCCEx_PeriphCLKConfig+0x77c>
700049c6:	2900      	cmp	r1, #0
700049c8:	f000 80e3 	beq.w	70004b92 <HAL_RCCEx_PeriphCLKConfig+0x78a>
700049cc:	2910      	cmp	r1, #16
700049ce:	f000 80ea 	beq.w	70004ba6 <HAL_RCCEx_PeriphCLKConfig+0x79e>
700049d2:	2301      	movs	r3, #1
700049d4:	0151      	lsls	r1, r2, #5
700049d6:	d50c      	bpl.n	700049f2 <HAL_RCCEx_PeriphCLKConfig+0x5ea>
700049d8:	6ea1      	ldr	r1, [r4, #104]	@ 0x68
700049da:	2920      	cmp	r1, #32
700049dc:	f000 8105 	beq.w	70004bea <HAL_RCCEx_PeriphCLKConfig+0x7e2>
700049e0:	f200 80ec 	bhi.w	70004bbc <HAL_RCCEx_PeriphCLKConfig+0x7b4>
700049e4:	2900      	cmp	r1, #0
700049e6:	f000 80f0 	beq.w	70004bca <HAL_RCCEx_PeriphCLKConfig+0x7c2>
700049ea:	2910      	cmp	r1, #16
700049ec:	f000 80f7 	beq.w	70004bde <HAL_RCCEx_PeriphCLKConfig+0x7d6>
700049f0:	2301      	movs	r3, #1
700049f2:	00d7      	lsls	r7, r2, #3
700049f4:	f140 810a 	bpl.w	70004c0c <HAL_RCCEx_PeriphCLKConfig+0x804>
700049f8:	6f25      	ldr	r5, [r4, #112]	@ 0x70
700049fa:	2d05      	cmp	r5, #5
700049fc:	f200 8115 	bhi.w	70004c2a <HAL_RCCEx_PeriphCLKConfig+0x822>
70004a00:	e8df f015 	tbh	[pc, r5, lsl #1]
70004a04:	00f800fd 	.word	0x00f800fd
70004a08:	00fd010e 	.word	0x00fd010e
70004a0c:	00fd00fd 	.word	0x00fd00fd
70004a10:	4e53      	ldr	r6, [pc, #332]	@ (70004b60 <HAL_RCCEx_PeriphCLKConfig+0x758>)
70004a12:	6af1      	ldr	r1, [r6, #44]	@ 0x2c
70004a14:	f041 5180 	orr.w	r1, r1, #268435456	@ 0x10000000
70004a18:	e760      	b.n	700048dc <HAL_RCCEx_PeriphCLKConfig+0x4d4>
70004a1a:	2301      	movs	r3, #1
70004a1c:	e766      	b.n	700048ec <HAL_RCCEx_PeriphCLKConfig+0x4e4>
70004a1e:	4e50      	ldr	r6, [pc, #320]	@ (70004b60 <HAL_RCCEx_PeriphCLKConfig+0x758>)
70004a20:	6af1      	ldr	r1, [r6, #44]	@ 0x2c
70004a22:	f041 5100 	orr.w	r1, r1, #536870912	@ 0x20000000
70004a26:	62f1      	str	r1, [r6, #44]	@ 0x2c
70004a28:	2b00      	cmp	r3, #0
70004a2a:	f47f af71 	bne.w	70004910 <HAL_RCCEx_PeriphCLKConfig+0x508>
70004a2e:	4e4c      	ldr	r6, [pc, #304]	@ (70004b60 <HAL_RCCEx_PeriphCLKConfig+0x758>)
70004a30:	6cf1      	ldr	r1, [r6, #76]	@ 0x4c
70004a32:	f021 6100 	bic.w	r1, r1, #134217728	@ 0x8000000
70004a36:	4329      	orrs	r1, r5
70004a38:	64f1      	str	r1, [r6, #76]	@ 0x4c
70004a3a:	e769      	b.n	70004910 <HAL_RCCEx_PeriphCLKConfig+0x508>
70004a3c:	f5b1 3f40 	cmp.w	r1, #196608	@ 0x30000
70004a40:	d003      	beq.n	70004a4a <HAL_RCCEx_PeriphCLKConfig+0x642>
70004a42:	f5b1 2f80 	cmp.w	r1, #262144	@ 0x40000
70004a46:	f47f af73 	bne.w	70004930 <HAL_RCCEx_PeriphCLKConfig+0x528>
70004a4a:	2b00      	cmp	r3, #0
70004a4c:	f47f af71 	bne.w	70004932 <HAL_RCCEx_PeriphCLKConfig+0x52a>
70004a50:	4e43      	ldr	r6, [pc, #268]	@ (70004b60 <HAL_RCCEx_PeriphCLKConfig+0x758>)
70004a52:	6d75      	ldr	r5, [r6, #84]	@ 0x54
70004a54:	f425 25e0 	bic.w	r5, r5, #458752	@ 0x70000
70004a58:	4329      	orrs	r1, r5
70004a5a:	6571      	str	r1, [r6, #84]	@ 0x54
70004a5c:	e769      	b.n	70004932 <HAL_RCCEx_PeriphCLKConfig+0x52a>
70004a5e:	4e40      	ldr	r6, [pc, #256]	@ (70004b60 <HAL_RCCEx_PeriphCLKConfig+0x758>)
70004a60:	6af5      	ldr	r5, [r6, #44]	@ 0x2c
70004a62:	f045 0540 	orr.w	r5, r5, #64	@ 0x40
70004a66:	62f5      	str	r5, [r6, #44]	@ 0x2c
70004a68:	e7ef      	b.n	70004a4a <HAL_RCCEx_PeriphCLKConfig+0x642>
70004a6a:	4e3d      	ldr	r6, [pc, #244]	@ (70004b60 <HAL_RCCEx_PeriphCLKConfig+0x758>)
70004a6c:	6af5      	ldr	r5, [r6, #44]	@ 0x2c
70004a6e:	f445 3580 	orr.w	r5, r5, #65536	@ 0x10000
70004a72:	e7f8      	b.n	70004a66 <HAL_RCCEx_PeriphCLKConfig+0x65e>
70004a74:	4e3a      	ldr	r6, [pc, #232]	@ (70004b60 <HAL_RCCEx_PeriphCLKConfig+0x758>)
70004a76:	6af5      	ldr	r5, [r6, #44]	@ 0x2c
70004a78:	f045 6500 	orr.w	r5, r5, #134217728	@ 0x8000000
70004a7c:	e7f3      	b.n	70004a66 <HAL_RCCEx_PeriphCLKConfig+0x65e>
70004a7e:	f421 1580 	bic.w	r5, r1, #1048576	@ 0x100000
70004a82:	f5b5 0f80 	cmp.w	r5, #4194304	@ 0x400000
70004a86:	d003      	beq.n	70004a90 <HAL_RCCEx_PeriphCLKConfig+0x688>
70004a88:	f5b1 1f40 	cmp.w	r1, #3145728	@ 0x300000
70004a8c:	f47f af61 	bne.w	70004952 <HAL_RCCEx_PeriphCLKConfig+0x54a>
70004a90:	2b00      	cmp	r3, #0
70004a92:	f47f af5f 	bne.w	70004954 <HAL_RCCEx_PeriphCLKConfig+0x54c>
70004a96:	4e32      	ldr	r6, [pc, #200]	@ (70004b60 <HAL_RCCEx_PeriphCLKConfig+0x758>)
70004a98:	6d75      	ldr	r5, [r6, #84]	@ 0x54
70004a9a:	f425 05e0 	bic.w	r5, r5, #7340032	@ 0x700000
70004a9e:	4329      	orrs	r1, r5
70004aa0:	6571      	str	r1, [r6, #84]	@ 0x54
70004aa2:	e757      	b.n	70004954 <HAL_RCCEx_PeriphCLKConfig+0x54c>
70004aa4:	4e2e      	ldr	r6, [pc, #184]	@ (70004b60 <HAL_RCCEx_PeriphCLKConfig+0x758>)
70004aa6:	6af5      	ldr	r5, [r6, #44]	@ 0x2c
70004aa8:	f045 0540 	orr.w	r5, r5, #64	@ 0x40
70004aac:	62f5      	str	r5, [r6, #44]	@ 0x2c
70004aae:	e7ef      	b.n	70004a90 <HAL_RCCEx_PeriphCLKConfig+0x688>
70004ab0:	4e2b      	ldr	r6, [pc, #172]	@ (70004b60 <HAL_RCCEx_PeriphCLKConfig+0x758>)
70004ab2:	6af5      	ldr	r5, [r6, #44]	@ 0x2c
70004ab4:	f445 3580 	orr.w	r5, r5, #65536	@ 0x10000
70004ab8:	e7f8      	b.n	70004aac <HAL_RCCEx_PeriphCLKConfig+0x6a4>
70004aba:	4e29      	ldr	r6, [pc, #164]	@ (70004b60 <HAL_RCCEx_PeriphCLKConfig+0x758>)
70004abc:	6af5      	ldr	r5, [r6, #44]	@ 0x2c
70004abe:	f045 6500 	orr.w	r5, r5, #134217728	@ 0x8000000
70004ac2:	e7f3      	b.n	70004aac <HAL_RCCEx_PeriphCLKConfig+0x6a4>
70004ac4:	f1b5 7f40 	cmp.w	r5, #50331648	@ 0x3000000
70004ac8:	f47f af54 	bne.w	70004974 <HAL_RCCEx_PeriphCLKConfig+0x56c>
70004acc:	2b00      	cmp	r3, #0
70004ace:	f47f af52 	bne.w	70004976 <HAL_RCCEx_PeriphCLKConfig+0x56e>
70004ad2:	4e23      	ldr	r6, [pc, #140]	@ (70004b60 <HAL_RCCEx_PeriphCLKConfig+0x758>)
70004ad4:	6d31      	ldr	r1, [r6, #80]	@ 0x50
70004ad6:	f021 7140 	bic.w	r1, r1, #50331648	@ 0x3000000
70004ada:	4329      	orrs	r1, r5
70004adc:	6531      	str	r1, [r6, #80]	@ 0x50
70004ade:	e74a      	b.n	70004976 <HAL_RCCEx_PeriphCLKConfig+0x56e>
70004ae0:	4e1f      	ldr	r6, [pc, #124]	@ (70004b60 <HAL_RCCEx_PeriphCLKConfig+0x758>)
70004ae2:	6af1      	ldr	r1, [r6, #44]	@ 0x2c
70004ae4:	f041 0140 	orr.w	r1, r1, #64	@ 0x40
70004ae8:	62f1      	str	r1, [r6, #44]	@ 0x2c
70004aea:	e7ef      	b.n	70004acc <HAL_RCCEx_PeriphCLKConfig+0x6c4>
70004aec:	4e1c      	ldr	r6, [pc, #112]	@ (70004b60 <HAL_RCCEx_PeriphCLKConfig+0x758>)
70004aee:	6af1      	ldr	r1, [r6, #44]	@ 0x2c
70004af0:	f441 2180 	orr.w	r1, r1, #262144	@ 0x40000
70004af4:	e7f8      	b.n	70004ae8 <HAL_RCCEx_PeriphCLKConfig+0x6e0>
70004af6:	4e1a      	ldr	r6, [pc, #104]	@ (70004b60 <HAL_RCCEx_PeriphCLKConfig+0x758>)
70004af8:	6af1      	ldr	r1, [r6, #44]	@ 0x2c
70004afa:	f041 5100 	orr.w	r1, r1, #536870912	@ 0x20000000
70004afe:	e7f3      	b.n	70004ae8 <HAL_RCCEx_PeriphCLKConfig+0x6e0>
70004b00:	f5b1 7f40 	cmp.w	r1, #768	@ 0x300
70004b04:	d003      	beq.n	70004b0e <HAL_RCCEx_PeriphCLKConfig+0x706>
70004b06:	f5b1 6f80 	cmp.w	r1, #1024	@ 0x400
70004b0a:	f47f af44 	bne.w	70004996 <HAL_RCCEx_PeriphCLKConfig+0x58e>
70004b0e:	2b00      	cmp	r3, #0
70004b10:	f47f af42 	bne.w	70004998 <HAL_RCCEx_PeriphCLKConfig+0x590>
70004b14:	4e12      	ldr	r6, [pc, #72]	@ (70004b60 <HAL_RCCEx_PeriphCLKConfig+0x758>)
70004b16:	6d75      	ldr	r5, [r6, #84]	@ 0x54
70004b18:	f425 65e0 	bic.w	r5, r5, #1792	@ 0x700
70004b1c:	4329      	orrs	r1, r5
70004b1e:	6571      	str	r1, [r6, #84]	@ 0x54
70004b20:	e73a      	b.n	70004998 <HAL_RCCEx_PeriphCLKConfig+0x590>
70004b22:	4e0f      	ldr	r6, [pc, #60]	@ (70004b60 <HAL_RCCEx_PeriphCLKConfig+0x758>)
70004b24:	6af5      	ldr	r5, [r6, #44]	@ 0x2c
70004b26:	f045 0540 	orr.w	r5, r5, #64	@ 0x40
70004b2a:	62f5      	str	r5, [r6, #44]	@ 0x2c
70004b2c:	e7ef      	b.n	70004b0e <HAL_RCCEx_PeriphCLKConfig+0x706>
70004b2e:	4e0c      	ldr	r6, [pc, #48]	@ (70004b60 <HAL_RCCEx_PeriphCLKConfig+0x758>)
70004b30:	6af5      	ldr	r5, [r6, #44]	@ 0x2c
70004b32:	f445 3580 	orr.w	r5, r5, #65536	@ 0x10000
70004b36:	e7f8      	b.n	70004b2a <HAL_RCCEx_PeriphCLKConfig+0x722>
70004b38:	4e09      	ldr	r6, [pc, #36]	@ (70004b60 <HAL_RCCEx_PeriphCLKConfig+0x758>)
70004b3a:	6af5      	ldr	r5, [r6, #44]	@ 0x2c
70004b3c:	f045 6500 	orr.w	r5, r5, #134217728	@ 0x8000000
70004b40:	e7f3      	b.n	70004b2a <HAL_RCCEx_PeriphCLKConfig+0x722>
70004b42:	2930      	cmp	r1, #48	@ 0x30
70004b44:	d002      	beq.n	70004b4c <HAL_RCCEx_PeriphCLKConfig+0x744>
70004b46:	2940      	cmp	r1, #64	@ 0x40
70004b48:	f47f af34 	bne.w	700049b4 <HAL_RCCEx_PeriphCLKConfig+0x5ac>
70004b4c:	2b00      	cmp	r3, #0
70004b4e:	f47f af32 	bne.w	700049b6 <HAL_RCCEx_PeriphCLKConfig+0x5ae>
70004b52:	4e03      	ldr	r6, [pc, #12]	@ (70004b60 <HAL_RCCEx_PeriphCLKConfig+0x758>)
70004b54:	6d35      	ldr	r5, [r6, #80]	@ 0x50
70004b56:	f025 0570 	bic.w	r5, r5, #112	@ 0x70
70004b5a:	4329      	orrs	r1, r5
70004b5c:	6531      	str	r1, [r6, #80]	@ 0x50
70004b5e:	e72a      	b.n	700049b6 <HAL_RCCEx_PeriphCLKConfig+0x5ae>
70004b60:	58024400 	.word	0x58024400
70004b64:	4e63      	ldr	r6, [pc, #396]	@ (70004cf4 <HAL_RCCEx_PeriphCLKConfig+0x8ec>)
70004b66:	6af5      	ldr	r5, [r6, #44]	@ 0x2c
70004b68:	f045 0540 	orr.w	r5, r5, #64	@ 0x40
70004b6c:	62f5      	str	r5, [r6, #44]	@ 0x2c
70004b6e:	e7ed      	b.n	70004b4c <HAL_RCCEx_PeriphCLKConfig+0x744>
70004b70:	4e60      	ldr	r6, [pc, #384]	@ (70004cf4 <HAL_RCCEx_PeriphCLKConfig+0x8ec>)
70004b72:	6af5      	ldr	r5, [r6, #44]	@ 0x2c
70004b74:	f445 3580 	orr.w	r5, r5, #65536	@ 0x10000
70004b78:	e7f8      	b.n	70004b6c <HAL_RCCEx_PeriphCLKConfig+0x764>
70004b7a:	4e5e      	ldr	r6, [pc, #376]	@ (70004cf4 <HAL_RCCEx_PeriphCLKConfig+0x8ec>)
70004b7c:	6af5      	ldr	r5, [r6, #44]	@ 0x2c
70004b7e:	f045 6500 	orr.w	r5, r5, #134217728	@ 0x8000000
70004b82:	e7f3      	b.n	70004b6c <HAL_RCCEx_PeriphCLKConfig+0x764>
70004b84:	f021 0510 	bic.w	r5, r1, #16
70004b88:	2d40      	cmp	r5, #64	@ 0x40
70004b8a:	d002      	beq.n	70004b92 <HAL_RCCEx_PeriphCLKConfig+0x78a>
70004b8c:	2930      	cmp	r1, #48	@ 0x30
70004b8e:	f47f af20 	bne.w	700049d2 <HAL_RCCEx_PeriphCLKConfig+0x5ca>
70004b92:	2b00      	cmp	r3, #0
70004b94:	f47f af1e 	bne.w	700049d4 <HAL_RCCEx_PeriphCLKConfig+0x5cc>
70004b98:	4e56      	ldr	r6, [pc, #344]	@ (70004cf4 <HAL_RCCEx_PeriphCLKConfig+0x8ec>)
70004b9a:	6d75      	ldr	r5, [r6, #84]	@ 0x54
70004b9c:	f025 0570 	bic.w	r5, r5, #112	@ 0x70
70004ba0:	4329      	orrs	r1, r5
70004ba2:	6571      	str	r1, [r6, #84]	@ 0x54
70004ba4:	e716      	b.n	700049d4 <HAL_RCCEx_PeriphCLKConfig+0x5cc>
70004ba6:	4e53      	ldr	r6, [pc, #332]	@ (70004cf4 <HAL_RCCEx_PeriphCLKConfig+0x8ec>)
70004ba8:	6af5      	ldr	r5, [r6, #44]	@ 0x2c
70004baa:	f445 3500 	orr.w	r5, r5, #131072	@ 0x20000
70004bae:	62f5      	str	r5, [r6, #44]	@ 0x2c
70004bb0:	e7ef      	b.n	70004b92 <HAL_RCCEx_PeriphCLKConfig+0x78a>
70004bb2:	4e50      	ldr	r6, [pc, #320]	@ (70004cf4 <HAL_RCCEx_PeriphCLKConfig+0x8ec>)
70004bb4:	6af5      	ldr	r5, [r6, #44]	@ 0x2c
70004bb6:	f045 5580 	orr.w	r5, r5, #268435456	@ 0x10000000
70004bba:	e7f8      	b.n	70004bae <HAL_RCCEx_PeriphCLKConfig+0x7a6>
70004bbc:	f021 0510 	bic.w	r5, r1, #16
70004bc0:	2d40      	cmp	r5, #64	@ 0x40
70004bc2:	d002      	beq.n	70004bca <HAL_RCCEx_PeriphCLKConfig+0x7c2>
70004bc4:	2930      	cmp	r1, #48	@ 0x30
70004bc6:	f47f af13 	bne.w	700049f0 <HAL_RCCEx_PeriphCLKConfig+0x5e8>
70004bca:	2b00      	cmp	r3, #0
70004bcc:	f47f af11 	bne.w	700049f2 <HAL_RCCEx_PeriphCLKConfig+0x5ea>
70004bd0:	4e48      	ldr	r6, [pc, #288]	@ (70004cf4 <HAL_RCCEx_PeriphCLKConfig+0x8ec>)
70004bd2:	6db5      	ldr	r5, [r6, #88]	@ 0x58
70004bd4:	f025 0570 	bic.w	r5, r5, #112	@ 0x70
70004bd8:	4329      	orrs	r1, r5
70004bda:	65b1      	str	r1, [r6, #88]	@ 0x58
70004bdc:	e709      	b.n	700049f2 <HAL_RCCEx_PeriphCLKConfig+0x5ea>
70004bde:	4e45      	ldr	r6, [pc, #276]	@ (70004cf4 <HAL_RCCEx_PeriphCLKConfig+0x8ec>)
70004be0:	6af5      	ldr	r5, [r6, #44]	@ 0x2c
70004be2:	f445 3500 	orr.w	r5, r5, #131072	@ 0x20000
70004be6:	62f5      	str	r5, [r6, #44]	@ 0x2c
70004be8:	e7ef      	b.n	70004bca <HAL_RCCEx_PeriphCLKConfig+0x7c2>
70004bea:	4e42      	ldr	r6, [pc, #264]	@ (70004cf4 <HAL_RCCEx_PeriphCLKConfig+0x8ec>)
70004bec:	6af5      	ldr	r5, [r6, #44]	@ 0x2c
70004bee:	f045 5580 	orr.w	r5, r5, #268435456	@ 0x10000000
70004bf2:	e7f8      	b.n	70004be6 <HAL_RCCEx_PeriphCLKConfig+0x7de>
70004bf4:	4e3f      	ldr	r6, [pc, #252]	@ (70004cf4 <HAL_RCCEx_PeriphCLKConfig+0x8ec>)
70004bf6:	6af1      	ldr	r1, [r6, #44]	@ 0x2c
70004bf8:	f441 3100 	orr.w	r1, r1, #131072	@ 0x20000
70004bfc:	62f1      	str	r1, [r6, #44]	@ 0x2c
70004bfe:	b92b      	cbnz	r3, 70004c0c <HAL_RCCEx_PeriphCLKConfig+0x804>
70004c00:	4e3c      	ldr	r6, [pc, #240]	@ (70004cf4 <HAL_RCCEx_PeriphCLKConfig+0x8ec>)
70004c02:	6d71      	ldr	r1, [r6, #84]	@ 0x54
70004c04:	f021 0107 	bic.w	r1, r1, #7
70004c08:	4329      	orrs	r1, r5
70004c0a:	6571      	str	r1, [r6, #84]	@ 0x54
70004c0c:	0096      	lsls	r6, r2, #2
70004c0e:	d51a      	bpl.n	70004c46 <HAL_RCCEx_PeriphCLKConfig+0x83e>
70004c10:	6f65      	ldr	r5, [r4, #116]	@ 0x74
70004c12:	2d05      	cmp	r5, #5
70004c14:	d84a      	bhi.n	70004cac <HAL_RCCEx_PeriphCLKConfig+0x8a4>
70004c16:	e8df f005 	tbb	[pc, r5]
70004c1a:	0a0f      	.short	0x0a0f
70004c1c:	0f0f0f44 	.word	0x0f0f0f44
70004c20:	4e34      	ldr	r6, [pc, #208]	@ (70004cf4 <HAL_RCCEx_PeriphCLKConfig+0x8ec>)
70004c22:	6af1      	ldr	r1, [r6, #44]	@ 0x2c
70004c24:	f041 5180 	orr.w	r1, r1, #268435456	@ 0x10000000
70004c28:	e7e8      	b.n	70004bfc <HAL_RCCEx_PeriphCLKConfig+0x7f4>
70004c2a:	2301      	movs	r3, #1
70004c2c:	e7ee      	b.n	70004c0c <HAL_RCCEx_PeriphCLKConfig+0x804>
70004c2e:	4e31      	ldr	r6, [pc, #196]	@ (70004cf4 <HAL_RCCEx_PeriphCLKConfig+0x8ec>)
70004c30:	6af1      	ldr	r1, [r6, #44]	@ 0x2c
70004c32:	f441 3100 	orr.w	r1, r1, #131072	@ 0x20000
70004c36:	62f1      	str	r1, [r6, #44]	@ 0x2c
70004c38:	b92b      	cbnz	r3, 70004c46 <HAL_RCCEx_PeriphCLKConfig+0x83e>
70004c3a:	4e2e      	ldr	r6, [pc, #184]	@ (70004cf4 <HAL_RCCEx_PeriphCLKConfig+0x8ec>)
70004c3c:	6d31      	ldr	r1, [r6, #80]	@ 0x50
70004c3e:	f021 0107 	bic.w	r1, r1, #7
70004c42:	4329      	orrs	r1, r5
70004c44:	6531      	str	r1, [r6, #80]	@ 0x50
70004c46:	0055      	lsls	r5, r2, #1
70004c48:	d509      	bpl.n	70004c5e <HAL_RCCEx_PeriphCLKConfig+0x856>
70004c4a:	6fa5      	ldr	r5, [r4, #120]	@ 0x78
70004c4c:	f5b5 5f80 	cmp.w	r5, #4096	@ 0x1000
70004c50:	d033      	beq.n	70004cba <HAL_RCCEx_PeriphCLKConfig+0x8b2>
70004c52:	f5b5 5f00 	cmp.w	r5, #8192	@ 0x2000
70004c56:	d02b      	beq.n	70004cb0 <HAL_RCCEx_PeriphCLKConfig+0x8a8>
70004c58:	2d00      	cmp	r5, #0
70004c5a:	d02e      	beq.n	70004cba <HAL_RCCEx_PeriphCLKConfig+0x8b2>
70004c5c:	2301      	movs	r3, #1
70004c5e:	2a00      	cmp	r2, #0
70004c60:	da08      	bge.n	70004c74 <HAL_RCCEx_PeriphCLKConfig+0x86c>
70004c62:	f8d4 5080 	ldr.w	r5, [r4, #128]	@ 0x80
70004c66:	f5b5 4f80 	cmp.w	r5, #16384	@ 0x4000
70004c6a:	d03d      	beq.n	70004ce8 <HAL_RCCEx_PeriphCLKConfig+0x8e0>
70004c6c:	d82e      	bhi.n	70004ccc <HAL_RCCEx_PeriphCLKConfig+0x8c4>
70004c6e:	2d00      	cmp	r5, #0
70004c70:	d031      	beq.n	70004cd6 <HAL_RCCEx_PeriphCLKConfig+0x8ce>
70004c72:	2301      	movs	r3, #1
70004c74:	0111      	lsls	r1, r2, #4
70004c76:	d507      	bpl.n	70004c88 <HAL_RCCEx_PeriphCLKConfig+0x880>
70004c78:	491e      	ldr	r1, [pc, #120]	@ (70004cf4 <HAL_RCCEx_PeriphCLKConfig+0x8ec>)
70004c7a:	f8d4 5088 	ldr.w	r5, [r4, #136]	@ 0x88
70004c7e:	690a      	ldr	r2, [r1, #16]
70004c80:	f422 4200 	bic.w	r2, r2, #32768	@ 0x8000
70004c84:	432a      	orrs	r2, r5
70004c86:	610a      	str	r2, [r1, #16]
70004c88:	07c2      	lsls	r2, r0, #31
70004c8a:	d506      	bpl.n	70004c9a <HAL_RCCEx_PeriphCLKConfig+0x892>
70004c8c:	4919      	ldr	r1, [pc, #100]	@ (70004cf4 <HAL_RCCEx_PeriphCLKConfig+0x8ec>)
70004c8e:	6fe0      	ldr	r0, [r4, #124]	@ 0x7c
70004c90:	6cca      	ldr	r2, [r1, #76]	@ 0x4c
70004c92:	f422 6270 	bic.w	r2, r2, #3840	@ 0xf00
70004c96:	4302      	orrs	r2, r0
70004c98:	64ca      	str	r2, [r1, #76]	@ 0x4c
70004c9a:	1e18      	subs	r0, r3, #0
70004c9c:	bf18      	it	ne
70004c9e:	2001      	movne	r0, #1
70004ca0:	bdf8      	pop	{r3, r4, r5, r6, r7, pc}
70004ca2:	4e14      	ldr	r6, [pc, #80]	@ (70004cf4 <HAL_RCCEx_PeriphCLKConfig+0x8ec>)
70004ca4:	6af1      	ldr	r1, [r6, #44]	@ 0x2c
70004ca6:	f041 5180 	orr.w	r1, r1, #268435456	@ 0x10000000
70004caa:	e7c4      	b.n	70004c36 <HAL_RCCEx_PeriphCLKConfig+0x82e>
70004cac:	2301      	movs	r3, #1
70004cae:	e7ca      	b.n	70004c46 <HAL_RCCEx_PeriphCLKConfig+0x83e>
70004cb0:	4e10      	ldr	r6, [pc, #64]	@ (70004cf4 <HAL_RCCEx_PeriphCLKConfig+0x8ec>)
70004cb2:	6af1      	ldr	r1, [r6, #44]	@ 0x2c
70004cb4:	f041 5180 	orr.w	r1, r1, #268435456	@ 0x10000000
70004cb8:	62f1      	str	r1, [r6, #44]	@ 0x2c
70004cba:	2b00      	cmp	r3, #0
70004cbc:	d1cf      	bne.n	70004c5e <HAL_RCCEx_PeriphCLKConfig+0x856>
70004cbe:	4e0d      	ldr	r6, [pc, #52]	@ (70004cf4 <HAL_RCCEx_PeriphCLKConfig+0x8ec>)
70004cc0:	6cf1      	ldr	r1, [r6, #76]	@ 0x4c
70004cc2:	f421 5140 	bic.w	r1, r1, #12288	@ 0x3000
70004cc6:	4329      	orrs	r1, r5
70004cc8:	64f1      	str	r1, [r6, #76]	@ 0x4c
70004cca:	e7c8      	b.n	70004c5e <HAL_RCCEx_PeriphCLKConfig+0x856>
70004ccc:	f425 4180 	bic.w	r1, r5, #16384	@ 0x4000
70004cd0:	f5b1 4f00 	cmp.w	r1, #32768	@ 0x8000
70004cd4:	d1cd      	bne.n	70004c72 <HAL_RCCEx_PeriphCLKConfig+0x86a>
70004cd6:	2b00      	cmp	r3, #0
70004cd8:	d1cc      	bne.n	70004c74 <HAL_RCCEx_PeriphCLKConfig+0x86c>
70004cda:	4e06      	ldr	r6, [pc, #24]	@ (70004cf4 <HAL_RCCEx_PeriphCLKConfig+0x8ec>)
70004cdc:	6cf1      	ldr	r1, [r6, #76]	@ 0x4c
70004cde:	f421 4140 	bic.w	r1, r1, #49152	@ 0xc000
70004ce2:	4329      	orrs	r1, r5
70004ce4:	64f1      	str	r1, [r6, #76]	@ 0x4c
70004ce6:	e7c5      	b.n	70004c74 <HAL_RCCEx_PeriphCLKConfig+0x86c>
70004ce8:	4e02      	ldr	r6, [pc, #8]	@ (70004cf4 <HAL_RCCEx_PeriphCLKConfig+0x8ec>)
70004cea:	6af1      	ldr	r1, [r6, #44]	@ 0x2c
70004cec:	f041 5180 	orr.w	r1, r1, #268435456	@ 0x10000000
70004cf0:	62f1      	str	r1, [r6, #44]	@ 0x2c
70004cf2:	e7f0      	b.n	70004cd6 <HAL_RCCEx_PeriphCLKConfig+0x8ce>
70004cf4:	58024400 	.word	0x58024400

70004cf8 <HAL_RCCEx_GetPeriphCLKFreq>:
70004cf8:	f5b0 4f00 	cmp.w	r0, #32768	@ 0x8000
70004cfc:	b508      	push	{r3, lr}
70004cfe:	f000 82d0 	beq.w	700052a2 <HAL_RCCEx_GetPeriphCLKFreq+0x5aa>
70004d02:	d840      	bhi.n	70004d86 <HAL_RCCEx_GetPeriphCLKFreq+0x8e>
70004d04:	2880      	cmp	r0, #128	@ 0x80
70004d06:	f000 81a6 	beq.w	70005056 <HAL_RCCEx_GetPeriphCLKFreq+0x35e>
70004d0a:	d81b      	bhi.n	70004d44 <HAL_RCCEx_GetPeriphCLKFreq+0x4c>
70004d0c:	2808      	cmp	r0, #8
70004d0e:	d80e      	bhi.n	70004d2e <HAL_RCCEx_GetPeriphCLKFreq+0x36>
70004d10:	b1b8      	cbz	r0, 70004d42 <HAL_RCCEx_GetPeriphCLKFreq+0x4a>
70004d12:	3801      	subs	r0, #1
70004d14:	2807      	cmp	r0, #7
70004d16:	f200 850c 	bhi.w	70005732 <HAL_RCCEx_GetPeriphCLKFreq+0xa3a>
70004d1a:	e8df f010 	tbh	[pc, r0, lsl #1]
70004d1e:	007b      	.short	0x007b
70004d20:	050a00b6 	.word	0x050a00b6
70004d24:	050a00da 	.word	0x050a00da
70004d28:	050a050a 	.word	0x050a050a
70004d2c:	00ed      	.short	0x00ed
70004d2e:	2820      	cmp	r0, #32
70004d30:	f000 812f 	beq.w	70004f92 <HAL_RCCEx_GetPeriphCLKFreq+0x29a>
70004d34:	2840      	cmp	r0, #64	@ 0x40
70004d36:	f000 816d 	beq.w	70005014 <HAL_RCCEx_GetPeriphCLKFreq+0x31c>
70004d3a:	2810      	cmp	r0, #16
70004d3c:	f000 8107 	beq.w	70004f4e <HAL_RCCEx_GetPeriphCLKFreq+0x256>
70004d40:	2000      	movs	r0, #0
70004d42:	bd08      	pop	{r3, pc}
70004d44:	f5b0 6f00 	cmp.w	r0, #2048	@ 0x800
70004d48:	f000 8203 	beq.w	70005152 <HAL_RCCEx_GetPeriphCLKFreq+0x45a>
70004d4c:	d80d      	bhi.n	70004d6a <HAL_RCCEx_GetPeriphCLKFreq+0x72>
70004d4e:	f5b0 7f00 	cmp.w	r0, #512	@ 0x200
70004d52:	f000 81b9 	beq.w	700050c8 <HAL_RCCEx_GetPeriphCLKFreq+0x3d0>
70004d56:	f5b0 6f80 	cmp.w	r0, #1024	@ 0x400
70004d5a:	f000 81d0 	beq.w	700050fe <HAL_RCCEx_GetPeriphCLKFreq+0x406>
70004d5e:	f5b0 7f80 	cmp.w	r0, #256	@ 0x100
70004d62:	f000 819e 	beq.w	700050a2 <HAL_RCCEx_GetPeriphCLKFreq+0x3aa>
70004d66:	2000      	movs	r0, #0
70004d68:	e7eb      	b.n	70004d42 <HAL_RCCEx_GetPeriphCLKFreq+0x4a>
70004d6a:	f5b0 5f00 	cmp.w	r0, #8192	@ 0x2000
70004d6e:	f000 8243 	beq.w	700051f8 <HAL_RCCEx_GetPeriphCLKFreq+0x500>
70004d72:	f5b0 4f80 	cmp.w	r0, #16384	@ 0x4000
70004d76:	f000 826b 	beq.w	70005250 <HAL_RCCEx_GetPeriphCLKFreq+0x558>
70004d7a:	f5b0 5f80 	cmp.w	r0, #4096	@ 0x1000
70004d7e:	f000 820c 	beq.w	7000519a <HAL_RCCEx_GetPeriphCLKFreq+0x4a2>
70004d82:	2000      	movs	r0, #0
70004d84:	e7dd      	b.n	70004d42 <HAL_RCCEx_GetPeriphCLKFreq+0x4a>
70004d86:	f5b0 0f00 	cmp.w	r0, #8388608	@ 0x800000
70004d8a:	f000 837c 	beq.w	70005486 <HAL_RCCEx_GetPeriphCLKFreq+0x78e>
70004d8e:	d820      	bhi.n	70004dd2 <HAL_RCCEx_GetPeriphCLKFreq+0xda>
70004d90:	f5b0 2f00 	cmp.w	r0, #524288	@ 0x80000
70004d94:	f000 831a 	beq.w	700053cc <HAL_RCCEx_GetPeriphCLKFreq+0x6d4>
70004d98:	d80d      	bhi.n	70004db6 <HAL_RCCEx_GetPeriphCLKFreq+0xbe>
70004d9a:	f5b0 3f00 	cmp.w	r0, #131072	@ 0x20000
70004d9e:	f000 82cc 	beq.w	7000533a <HAL_RCCEx_GetPeriphCLKFreq+0x642>
70004da2:	f5b0 2f80 	cmp.w	r0, #262144	@ 0x40000
70004da6:	f000 82d7 	beq.w	70005358 <HAL_RCCEx_GetPeriphCLKFreq+0x660>
70004daa:	f5b0 3f80 	cmp.w	r0, #65536	@ 0x10000
70004dae:	f000 82bd 	beq.w	7000532c <HAL_RCCEx_GetPeriphCLKFreq+0x634>
70004db2:	2000      	movs	r0, #0
70004db4:	e7c5      	b.n	70004d42 <HAL_RCCEx_GetPeriphCLKFreq+0x4a>
70004db6:	f5b0 1f00 	cmp.w	r0, #2097152	@ 0x200000
70004dba:	f000 8333 	beq.w	70005424 <HAL_RCCEx_GetPeriphCLKFreq+0x72c>
70004dbe:	f5b0 0f80 	cmp.w	r0, #4194304	@ 0x400000
70004dc2:	f000 8336 	beq.w	70005432 <HAL_RCCEx_GetPeriphCLKFreq+0x73a>
70004dc6:	f5b0 1f80 	cmp.w	r0, #1048576	@ 0x100000
70004dca:	f000 8316 	beq.w	700053fa <HAL_RCCEx_GetPeriphCLKFreq+0x702>
70004dce:	2000      	movs	r0, #0
70004dd0:	e7b7      	b.n	70004d42 <HAL_RCCEx_GetPeriphCLKFreq+0x4a>
70004dd2:	f1b0 5f80 	cmp.w	r0, #268435456	@ 0x10000000
70004dd6:	f000 83f3 	beq.w	700055c0 <HAL_RCCEx_GetPeriphCLKFreq+0x8c8>
70004dda:	d80d      	bhi.n	70004df8 <HAL_RCCEx_GetPeriphCLKFreq+0x100>
70004ddc:	f1b0 7f00 	cmp.w	r0, #33554432	@ 0x2000000
70004de0:	f000 8379 	beq.w	700054d6 <HAL_RCCEx_GetPeriphCLKFreq+0x7de>
70004de4:	f1b0 6f80 	cmp.w	r0, #67108864	@ 0x4000000
70004de8:	f000 83b0 	beq.w	7000554c <HAL_RCCEx_GetPeriphCLKFreq+0x854>
70004dec:	f1b0 7f80 	cmp.w	r0, #16777216	@ 0x1000000
70004df0:	f000 8360 	beq.w	700054b4 <HAL_RCCEx_GetPeriphCLKFreq+0x7bc>
70004df4:	2000      	movs	r0, #0
70004df6:	e7a4      	b.n	70004d42 <HAL_RCCEx_GetPeriphCLKFreq+0x4a>
70004df8:	f1b0 4f80 	cmp.w	r0, #1073741824	@ 0x40000000
70004dfc:	f000 8453 	beq.w	700056a6 <HAL_RCCEx_GetPeriphCLKFreq+0x9ae>
70004e00:	f1b0 4f00 	cmp.w	r0, #2147483648	@ 0x80000000
70004e04:	f000 8472 	beq.w	700056ec <HAL_RCCEx_GetPeriphCLKFreq+0x9f4>
70004e08:	f1b0 5f00 	cmp.w	r0, #536870912	@ 0x20000000
70004e0c:	f000 8415 	beq.w	7000563a <HAL_RCCEx_GetPeriphCLKFreq+0x942>
70004e10:	2000      	movs	r0, #0
70004e12:	e796      	b.n	70004d42 <HAL_RCCEx_GetPeriphCLKFreq+0x4a>
70004e14:	4ba8      	ldr	r3, [pc, #672]	@ (700050b8 <HAL_RCCEx_GetPeriphCLKFreq+0x3c0>)
70004e16:	f8d3 2100 	ldr.w	r2, [r3, #256]	@ 0x100
70004e1a:	f402 42e0 	and.w	r2, r2, #28672	@ 0x7000
70004e1e:	f5b2 4fa0 	cmp.w	r2, #20480	@ 0x5000
70004e22:	d02e      	beq.n	70004e82 <HAL_RCCEx_GetPeriphCLKFreq+0x18a>
70004e24:	6cda      	ldr	r2, [r3, #76]	@ 0x4c
70004e26:	f002 0203 	and.w	r2, r2, #3
70004e2a:	2a02      	cmp	r2, #2
70004e2c:	d010      	beq.n	70004e50 <HAL_RCCEx_GetPeriphCLKFreq+0x158>
70004e2e:	2a03      	cmp	r2, #3
70004e30:	d017      	beq.n	70004e62 <HAL_RCCEx_GetPeriphCLKFreq+0x16a>
70004e32:	2a01      	cmp	r2, #1
70004e34:	d003      	beq.n	70004e3e <HAL_RCCEx_GetPeriphCLKFreq+0x146>
70004e36:	e8bd 4008 	ldmia.w	sp!, {r3, lr}
70004e3a:	f7ff b9e5 	b.w	70004208 <HAL_RCC_GetHCLKFreq>
70004e3e:	6ad8      	ldr	r0, [r3, #44]	@ 0x2c
70004e40:	f010 0040 	ands.w	r0, r0, #64	@ 0x40
70004e44:	f43f af7d 	beq.w	70004d42 <HAL_RCCEx_GetPeriphCLKFreq+0x4a>
70004e48:	e8bd 4008 	ldmia.w	sp!, {r3, lr}
70004e4c:	f7ff ba20 	b.w	70004290 <HAL_RCC_GetPLL1QFreq>
70004e50:	6ad8      	ldr	r0, [r3, #44]	@ 0x2c
70004e52:	f410 2080 	ands.w	r0, r0, #262144	@ 0x40000
70004e56:	f43f af74 	beq.w	70004d42 <HAL_RCCEx_GetPeriphCLKFreq+0x4a>
70004e5a:	e8bd 4008 	ldmia.w	sp!, {r3, lr}
70004e5e:	f7ff ba41 	b.w	700042e4 <HAL_RCC_GetPLL2RFreq>
70004e62:	6818      	ldr	r0, [r3, #0]
70004e64:	f010 0004 	ands.w	r0, r0, #4
70004e68:	f43f af6b 	beq.w	70004d42 <HAL_RCCEx_GetPeriphCLKFreq+0x4a>
70004e6c:	6818      	ldr	r0, [r3, #0]
70004e6e:	f010 0020 	ands.w	r0, r0, #32
70004e72:	f43f af66 	beq.w	70004d42 <HAL_RCCEx_GetPeriphCLKFreq+0x4a>
70004e76:	681b      	ldr	r3, [r3, #0]
70004e78:	4890      	ldr	r0, [pc, #576]	@ (700050bc <HAL_RCCEx_GetPeriphCLKFreq+0x3c4>)
70004e7a:	f3c3 03c1 	ubfx	r3, r3, #3, #2
70004e7e:	40d8      	lsrs	r0, r3
70004e80:	e75f      	b.n	70004d42 <HAL_RCCEx_GetPeriphCLKFreq+0x4a>
70004e82:	f7ff f9c1 	bl	70004208 <HAL_RCC_GetHCLKFreq>
70004e86:	0880      	lsrs	r0, r0, #2
70004e88:	e75b      	b.n	70004d42 <HAL_RCCEx_GetPeriphCLKFreq+0x4a>
70004e8a:	4a8b      	ldr	r2, [pc, #556]	@ (700050b8 <HAL_RCCEx_GetPeriphCLKFreq+0x3c0>)
70004e8c:	f8d2 3100 	ldr.w	r3, [r2, #256]	@ 0x100
70004e90:	f003 0370 	and.w	r3, r3, #112	@ 0x70
70004e94:	2b40      	cmp	r3, #64	@ 0x40
70004e96:	d0f4      	beq.n	70004e82 <HAL_RCCEx_GetPeriphCLKFreq+0x18a>
70004e98:	6cd3      	ldr	r3, [r2, #76]	@ 0x4c
70004e9a:	f003 0330 	and.w	r3, r3, #48	@ 0x30
70004e9e:	2b10      	cmp	r3, #16
70004ea0:	d005      	beq.n	70004eae <HAL_RCCEx_GetPeriphCLKFreq+0x1b6>
70004ea2:	2b20      	cmp	r3, #32
70004ea4:	d00c      	beq.n	70004ec0 <HAL_RCCEx_GetPeriphCLKFreq+0x1c8>
70004ea6:	2b00      	cmp	r3, #0
70004ea8:	d0c5      	beq.n	70004e36 <HAL_RCCEx_GetPeriphCLKFreq+0x13e>
70004eaa:	2000      	movs	r0, #0
70004eac:	e749      	b.n	70004d42 <HAL_RCCEx_GetPeriphCLKFreq+0x4a>
70004eae:	6ad0      	ldr	r0, [r2, #44]	@ 0x2c
70004eb0:	f410 2000 	ands.w	r0, r0, #524288	@ 0x80000
70004eb4:	f43f af45 	beq.w	70004d42 <HAL_RCCEx_GetPeriphCLKFreq+0x4a>
70004eb8:	e8bd 4008 	ldmia.w	sp!, {r3, lr}
70004ebc:	f7ff ba20 	b.w	70004300 <HAL_RCC_GetPLL2SFreq>
70004ec0:	6ad0      	ldr	r0, [r2, #44]	@ 0x2c
70004ec2:	f410 1080 	ands.w	r0, r0, #1048576	@ 0x100000
70004ec6:	f43f af3c 	beq.w	70004d42 <HAL_RCCEx_GetPeriphCLKFreq+0x4a>
70004eca:	e8bd 4008 	ldmia.w	sp!, {r3, lr}
70004ece:	f7ff ba25 	b.w	7000431c <HAL_RCC_GetPLL2TFreq>
70004ed2:	4a79      	ldr	r2, [pc, #484]	@ (700050b8 <HAL_RCCEx_GetPeriphCLKFreq+0x3c0>)
70004ed4:	f8d2 3100 	ldr.w	r3, [r2, #256]	@ 0x100
70004ed8:	f403 63e0 	and.w	r3, r3, #1792	@ 0x700
70004edc:	f5b3 6f80 	cmp.w	r3, #1024	@ 0x400
70004ee0:	d0cf      	beq.n	70004e82 <HAL_RCCEx_GetPeriphCLKFreq+0x18a>
70004ee2:	6cd3      	ldr	r3, [r2, #76]	@ 0x4c
70004ee4:	f003 03c0 	and.w	r3, r3, #192	@ 0xc0
70004ee8:	2b40      	cmp	r3, #64	@ 0x40
70004eea:	d0e0      	beq.n	70004eae <HAL_RCCEx_GetPeriphCLKFreq+0x1b6>
70004eec:	2b80      	cmp	r3, #128	@ 0x80
70004eee:	d0e7      	beq.n	70004ec0 <HAL_RCCEx_GetPeriphCLKFreq+0x1c8>
70004ef0:	2b00      	cmp	r3, #0
70004ef2:	d0a0      	beq.n	70004e36 <HAL_RCCEx_GetPeriphCLKFreq+0x13e>
70004ef4:	2000      	movs	r0, #0
70004ef6:	e724      	b.n	70004d42 <HAL_RCCEx_GetPeriphCLKFreq+0x4a>
70004ef8:	4b6f      	ldr	r3, [pc, #444]	@ (700050b8 <HAL_RCCEx_GetPeriphCLKFreq+0x3c0>)
70004efa:	6cda      	ldr	r2, [r3, #76]	@ 0x4c
70004efc:	f002 5240 	and.w	r2, r2, #805306368	@ 0x30000000
70004f00:	f1b2 5f80 	cmp.w	r2, #268435456	@ 0x10000000
70004f04:	d015      	beq.n	70004f32 <HAL_RCCEx_GetPeriphCLKFreq+0x23a>
70004f06:	f1b2 5f00 	cmp.w	r2, #536870912	@ 0x20000000
70004f0a:	d019      	beq.n	70004f40 <HAL_RCCEx_GetPeriphCLKFreq+0x248>
70004f0c:	2a00      	cmp	r2, #0
70004f0e:	f040 8413 	bne.w	70005738 <HAL_RCCEx_GetPeriphCLKFreq+0xa40>
70004f12:	6818      	ldr	r0, [r3, #0]
70004f14:	f010 0004 	ands.w	r0, r0, #4
70004f18:	f43f af13 	beq.w	70004d42 <HAL_RCCEx_GetPeriphCLKFreq+0x4a>
70004f1c:	6818      	ldr	r0, [r3, #0]
70004f1e:	f010 0020 	ands.w	r0, r0, #32
70004f22:	f43f af0e 	beq.w	70004d42 <HAL_RCCEx_GetPeriphCLKFreq+0x4a>
70004f26:	681b      	ldr	r3, [r3, #0]
70004f28:	4864      	ldr	r0, [pc, #400]	@ (700050bc <HAL_RCCEx_GetPeriphCLKFreq+0x3c4>)
70004f2a:	f3c3 03c1 	ubfx	r3, r3, #3, #2
70004f2e:	40d8      	lsrs	r0, r3
70004f30:	e707      	b.n	70004d42 <HAL_RCCEx_GetPeriphCLKFreq+0x4a>
70004f32:	681b      	ldr	r3, [r3, #0]
70004f34:	4862      	ldr	r0, [pc, #392]	@ (700050c0 <HAL_RCCEx_GetPeriphCLKFreq+0x3c8>)
70004f36:	f413 7f80 	tst.w	r3, #256	@ 0x100
70004f3a:	bf08      	it	eq
70004f3c:	2000      	moveq	r0, #0
70004f3e:	e700      	b.n	70004d42 <HAL_RCCEx_GetPeriphCLKFreq+0x4a>
70004f40:	681b      	ldr	r3, [r3, #0]
70004f42:	4860      	ldr	r0, [pc, #384]	@ (700050c4 <HAL_RCCEx_GetPeriphCLKFreq+0x3cc>)
70004f44:	f413 3f00 	tst.w	r3, #131072	@ 0x20000
70004f48:	bf08      	it	eq
70004f4a:	2000      	moveq	r0, #0
70004f4c:	e6f9      	b.n	70004d42 <HAL_RCCEx_GetPeriphCLKFreq+0x4a>
70004f4e:	4b5a      	ldr	r3, [pc, #360]	@ (700050b8 <HAL_RCCEx_GetPeriphCLKFreq+0x3c0>)
70004f50:	6cd8      	ldr	r0, [r3, #76]	@ 0x4c
70004f52:	f000 7040 	and.w	r0, r0, #50331648	@ 0x3000000
70004f56:	f1b0 7f80 	cmp.w	r0, #16777216	@ 0x1000000
70004f5a:	d00e      	beq.n	70004f7a <HAL_RCCEx_GetPeriphCLKFreq+0x282>
70004f5c:	f1b0 7f00 	cmp.w	r0, #33554432	@ 0x2000000
70004f60:	d013      	beq.n	70004f8a <HAL_RCCEx_GetPeriphCLKFreq+0x292>
70004f62:	2800      	cmp	r0, #0
70004f64:	f040 83eb 	bne.w	7000573e <HAL_RCCEx_GetPeriphCLKFreq+0xa46>
70004f68:	6adb      	ldr	r3, [r3, #44]	@ 0x2c
70004f6a:	f413 3f80 	tst.w	r3, #65536	@ 0x10000
70004f6e:	f43f aee8 	beq.w	70004d42 <HAL_RCCEx_GetPeriphCLKFreq+0x4a>
70004f72:	e8bd 4008 	ldmia.w	sp!, {r3, lr}
70004f76:	f7ff b999 	b.w	700042ac <HAL_RCC_GetPLL2PFreq>
70004f7a:	6adb      	ldr	r3, [r3, #44]	@ 0x2c
70004f7c:	0098      	lsls	r0, r3, #2
70004f7e:	f140 83e1 	bpl.w	70005744 <HAL_RCCEx_GetPeriphCLKFreq+0xa4c>
70004f82:	e8bd 4008 	ldmia.w	sp!, {r3, lr}
70004f86:	f7ff b9f3 	b.w	70004370 <HAL_RCC_GetPLL3RFreq>
70004f8a:	e8bd 4008 	ldmia.w	sp!, {r3, lr}
70004f8e:	f7ff ba0b 	b.w	700043a8 <RCC_GetCLKPFreq>
70004f92:	4a49      	ldr	r2, [pc, #292]	@ (700050b8 <HAL_RCCEx_GetPeriphCLKFreq+0x3c0>)
70004f94:	6cd3      	ldr	r3, [r2, #76]	@ 0x4c
70004f96:	f403 03e0 	and.w	r3, r3, #7340032	@ 0x700000
70004f9a:	f5b3 1f40 	cmp.w	r3, #3145728	@ 0x300000
70004f9e:	f000 83d4 	beq.w	7000574a <HAL_RCCEx_GetPeriphCLKFreq+0xa52>
70004fa2:	d80a      	bhi.n	70004fba <HAL_RCCEx_GetPeriphCLKFreq+0x2c2>
70004fa4:	f5b3 1f80 	cmp.w	r3, #1048576	@ 0x100000
70004fa8:	d00f      	beq.n	70004fca <HAL_RCCEx_GetPeriphCLKFreq+0x2d2>
70004faa:	f5b3 1f00 	cmp.w	r3, #2097152	@ 0x200000
70004fae:	d011      	beq.n	70004fd4 <HAL_RCCEx_GetPeriphCLKFreq+0x2dc>
70004fb0:	2b00      	cmp	r3, #0
70004fb2:	f43f af40 	beq.w	70004e36 <HAL_RCCEx_GetPeriphCLKFreq+0x13e>
70004fb6:	2000      	movs	r0, #0
70004fb8:	e6c3      	b.n	70004d42 <HAL_RCCEx_GetPeriphCLKFreq+0x4a>
70004fba:	f5b3 0f80 	cmp.w	r3, #4194304	@ 0x400000
70004fbe:	d012      	beq.n	70004fe6 <HAL_RCCEx_GetPeriphCLKFreq+0x2ee>
70004fc0:	f5b3 0fa0 	cmp.w	r3, #5242880	@ 0x500000
70004fc4:	d016      	beq.n	70004ff4 <HAL_RCCEx_GetPeriphCLKFreq+0x2fc>
70004fc6:	2000      	movs	r0, #0
70004fc8:	e6bb      	b.n	70004d42 <HAL_RCCEx_GetPeriphCLKFreq+0x4a>
70004fca:	6ad3      	ldr	r3, [r2, #44]	@ 0x2c
70004fcc:	03d9      	lsls	r1, r3, #15
70004fce:	d4d0      	bmi.n	70004f72 <HAL_RCCEx_GetPeriphCLKFreq+0x27a>
70004fd0:	2000      	movs	r0, #0
70004fd2:	e6b6      	b.n	70004d42 <HAL_RCCEx_GetPeriphCLKFreq+0x4a>
70004fd4:	6ad0      	ldr	r0, [r2, #44]	@ 0x2c
70004fd6:	f010 6000 	ands.w	r0, r0, #134217728	@ 0x8000000
70004fda:	f43f aeb2 	beq.w	70004d42 <HAL_RCCEx_GetPeriphCLKFreq+0x4a>
70004fde:	e8bd 4008 	ldmia.w	sp!, {r3, lr}
70004fe2:	f7ff b9a9 	b.w	70004338 <HAL_RCC_GetPLL3PFreq>
70004fe6:	6813      	ldr	r3, [r2, #0]
70004fe8:	4835      	ldr	r0, [pc, #212]	@ (700050c0 <HAL_RCCEx_GetPeriphCLKFreq+0x3c8>)
70004fea:	f413 7f80 	tst.w	r3, #256	@ 0x100
70004fee:	bf08      	it	eq
70004ff0:	2000      	moveq	r0, #0
70004ff2:	e6a6      	b.n	70004d42 <HAL_RCCEx_GetPeriphCLKFreq+0x4a>
70004ff4:	6810      	ldr	r0, [r2, #0]
70004ff6:	f010 0004 	ands.w	r0, r0, #4
70004ffa:	f43f aea2 	beq.w	70004d42 <HAL_RCCEx_GetPeriphCLKFreq+0x4a>
70004ffe:	6810      	ldr	r0, [r2, #0]
70005000:	f010 0020 	ands.w	r0, r0, #32
70005004:	f43f ae9d 	beq.w	70004d42 <HAL_RCCEx_GetPeriphCLKFreq+0x4a>
70005008:	6813      	ldr	r3, [r2, #0]
7000500a:	482c      	ldr	r0, [pc, #176]	@ (700050bc <HAL_RCCEx_GetPeriphCLKFreq+0x3c4>)
7000500c:	f3c3 03c1 	ubfx	r3, r3, #3, #2
70005010:	40d8      	lsrs	r0, r3
70005012:	e696      	b.n	70004d42 <HAL_RCCEx_GetPeriphCLKFreq+0x4a>
70005014:	4a28      	ldr	r2, [pc, #160]	@ (700050b8 <HAL_RCCEx_GetPeriphCLKFreq+0x3c0>)
70005016:	6d13      	ldr	r3, [r2, #80]	@ 0x50
70005018:	f003 5340 	and.w	r3, r3, #805306368	@ 0x30000000
7000501c:	f1b3 5f80 	cmp.w	r3, #268435456	@ 0x10000000
70005020:	d00a      	beq.n	70005038 <HAL_RCCEx_GetPeriphCLKFreq+0x340>
70005022:	f1b3 5f00 	cmp.w	r3, #536870912	@ 0x20000000
70005026:	d00f      	beq.n	70005048 <HAL_RCCEx_GetPeriphCLKFreq+0x350>
70005028:	2b00      	cmp	r3, #0
7000502a:	f040 8392 	bne.w	70005752 <HAL_RCCEx_GetPeriphCLKFreq+0xa5a>
7000502e:	6f10      	ldr	r0, [r2, #112]	@ 0x70
70005030:	f3c0 0040 	ubfx	r0, r0, #1, #1
70005034:	03c0      	lsls	r0, r0, #15
70005036:	e684      	b.n	70004d42 <HAL_RCCEx_GetPeriphCLKFreq+0x4a>
70005038:	6f53      	ldr	r3, [r2, #116]	@ 0x74
7000503a:	f013 0f02 	tst.w	r3, #2
7000503e:	bf14      	ite	ne
70005040:	f44f 40fa 	movne.w	r0, #32000	@ 0x7d00
70005044:	2000      	moveq	r0, #0
70005046:	e67c      	b.n	70004d42 <HAL_RCCEx_GetPeriphCLKFreq+0x4a>
70005048:	6813      	ldr	r3, [r2, #0]
7000504a:	481d      	ldr	r0, [pc, #116]	@ (700050c0 <HAL_RCCEx_GetPeriphCLKFreq+0x3c8>)
7000504c:	f413 7f80 	tst.w	r3, #256	@ 0x100
70005050:	bf08      	it	eq
70005052:	2000      	moveq	r0, #0
70005054:	e675      	b.n	70004d42 <HAL_RCCEx_GetPeriphCLKFreq+0x4a>
70005056:	4b18      	ldr	r3, [pc, #96]	@ (700050b8 <HAL_RCCEx_GetPeriphCLKFreq+0x3c0>)
70005058:	6cda      	ldr	r2, [r3, #76]	@ 0x4c
7000505a:	f402 3240 	and.w	r2, r2, #196608	@ 0x30000
7000505e:	f5b2 3f80 	cmp.w	r2, #65536	@ 0x10000
70005062:	d004      	beq.n	7000506e <HAL_RCCEx_GetPeriphCLKFreq+0x376>
70005064:	f5b2 3f00 	cmp.w	r2, #131072	@ 0x20000
70005068:	d008      	beq.n	7000507c <HAL_RCCEx_GetPeriphCLKFreq+0x384>
7000506a:	2000      	movs	r0, #0
7000506c:	e669      	b.n	70004d42 <HAL_RCCEx_GetPeriphCLKFreq+0x4a>
7000506e:	681b      	ldr	r3, [r3, #0]
70005070:	4814      	ldr	r0, [pc, #80]	@ (700050c4 <HAL_RCCEx_GetPeriphCLKFreq+0x3cc>)
70005072:	f413 3f00 	tst.w	r3, #131072	@ 0x20000
70005076:	bf08      	it	eq
70005078:	2000      	moveq	r0, #0
7000507a:	e662      	b.n	70004d42 <HAL_RCCEx_GetPeriphCLKFreq+0x4a>
7000507c:	6cda      	ldr	r2, [r3, #76]	@ 0x4c
7000507e:	0352      	lsls	r2, r2, #13
70005080:	d406      	bmi.n	70005090 <HAL_RCCEx_GetPeriphCLKFreq+0x398>
70005082:	681b      	ldr	r3, [r3, #0]
70005084:	480f      	ldr	r0, [pc, #60]	@ (700050c4 <HAL_RCCEx_GetPeriphCLKFreq+0x3cc>)
70005086:	f413 3f00 	tst.w	r3, #131072	@ 0x20000
7000508a:	bf08      	it	eq
7000508c:	2000      	moveq	r0, #0
7000508e:	e658      	b.n	70004d42 <HAL_RCCEx_GetPeriphCLKFreq+0x4a>
70005090:	6ad8      	ldr	r0, [r3, #44]	@ 0x2c
70005092:	f010 4080 	ands.w	r0, r0, #1073741824	@ 0x40000000
70005096:	f43f ae54 	beq.w	70004d42 <HAL_RCCEx_GetPeriphCLKFreq+0x4a>
7000509a:	e8bd 4008 	ldmia.w	sp!, {r3, lr}
7000509e:	f7ff b975 	b.w	7000438c <HAL_RCC_GetPLL3SFreq>
700050a2:	4b05      	ldr	r3, [pc, #20]	@ (700050b8 <HAL_RCCEx_GetPeriphCLKFreq+0x3c0>)
700050a4:	6cda      	ldr	r2, [r3, #76]	@ 0x4c
700050a6:	0350      	lsls	r0, r2, #13
700050a8:	d4f2      	bmi.n	70005090 <HAL_RCCEx_GetPeriphCLKFreq+0x398>
700050aa:	681b      	ldr	r3, [r3, #0]
700050ac:	4805      	ldr	r0, [pc, #20]	@ (700050c4 <HAL_RCCEx_GetPeriphCLKFreq+0x3cc>)
700050ae:	f413 3f00 	tst.w	r3, #131072	@ 0x20000
700050b2:	bf08      	it	eq
700050b4:	2000      	moveq	r0, #0
700050b6:	e644      	b.n	70004d42 <HAL_RCCEx_GetPeriphCLKFreq+0x4a>
700050b8:	58024400 	.word	0x58024400
700050bc:	03d09000 	.word	0x03d09000
700050c0:	003d0900 	.word	0x003d0900
700050c4:	016e3600 	.word	0x016e3600
700050c8:	4a9f      	ldr	r2, [pc, #636]	@ (70005348 <HAL_RCCEx_GetPeriphCLKFreq+0x650>)
700050ca:	6d13      	ldr	r3, [r2, #80]	@ 0x50
700050cc:	f403 0340 	and.w	r3, r3, #12582912	@ 0xc00000
700050d0:	f5b3 0f80 	cmp.w	r3, #4194304	@ 0x400000
700050d4:	f000 8185 	beq.w	700053e2 <HAL_RCCEx_GetPeriphCLKFreq+0x6ea>
700050d8:	f5b3 0f00 	cmp.w	r3, #8388608	@ 0x800000
700050dc:	d009      	beq.n	700050f2 <HAL_RCCEx_GetPeriphCLKFreq+0x3fa>
700050de:	2b00      	cmp	r3, #0
700050e0:	f040 833a 	bne.w	70005758 <HAL_RCCEx_GetPeriphCLKFreq+0xa60>
700050e4:	6813      	ldr	r3, [r2, #0]
700050e6:	4899      	ldr	r0, [pc, #612]	@ (7000534c <HAL_RCCEx_GetPeriphCLKFreq+0x654>)
700050e8:	f413 3f00 	tst.w	r3, #131072	@ 0x20000
700050ec:	bf08      	it	eq
700050ee:	2000      	moveq	r0, #0
700050f0:	e627      	b.n	70004d42 <HAL_RCCEx_GetPeriphCLKFreq+0x4a>
700050f2:	6ad3      	ldr	r3, [r2, #44]	@ 0x2c
700050f4:	03d9      	lsls	r1, r3, #15
700050f6:	f53f af3c 	bmi.w	70004f72 <HAL_RCCEx_GetPeriphCLKFreq+0x27a>
700050fa:	2000      	movs	r0, #0
700050fc:	e621      	b.n	70004d42 <HAL_RCCEx_GetPeriphCLKFreq+0x4a>
700050fe:	4b92      	ldr	r3, [pc, #584]	@ (70005348 <HAL_RCCEx_GetPeriphCLKFreq+0x650>)
70005100:	6d1a      	ldr	r2, [r3, #80]	@ 0x50
70005102:	f402 7240 	and.w	r2, r2, #768	@ 0x300
70005106:	f5b2 7f00 	cmp.w	r2, #512	@ 0x200
7000510a:	d00c      	beq.n	70005126 <HAL_RCCEx_GetPeriphCLKFreq+0x42e>
7000510c:	d806      	bhi.n	7000511c <HAL_RCCEx_GetPeriphCLKFreq+0x424>
7000510e:	2a00      	cmp	r2, #0
70005110:	f040 8118 	bne.w	70005344 <HAL_RCCEx_GetPeriphCLKFreq+0x64c>
70005114:	e8bd 4008 	ldmia.w	sp!, {r3, lr}
70005118:	f7ff b890 	b.w	7000423c <HAL_RCC_GetPCLK1Freq>
7000511c:	f5b2 7f40 	cmp.w	r2, #768	@ 0x300
70005120:	d010      	beq.n	70005144 <HAL_RCCEx_GetPeriphCLKFreq+0x44c>
70005122:	2000      	movs	r0, #0
70005124:	e60d      	b.n	70004d42 <HAL_RCCEx_GetPeriphCLKFreq+0x4a>
70005126:	681a      	ldr	r2, [r3, #0]
70005128:	0752      	lsls	r2, r2, #29
7000512a:	f140 8318 	bpl.w	7000575e <HAL_RCCEx_GetPeriphCLKFreq+0xa66>
7000512e:	6818      	ldr	r0, [r3, #0]
70005130:	f010 0020 	ands.w	r0, r0, #32
70005134:	f43f ae05 	beq.w	70004d42 <HAL_RCCEx_GetPeriphCLKFreq+0x4a>
70005138:	681b      	ldr	r3, [r3, #0]
7000513a:	4885      	ldr	r0, [pc, #532]	@ (70005350 <HAL_RCCEx_GetPeriphCLKFreq+0x658>)
7000513c:	f3c3 03c1 	ubfx	r3, r3, #3, #2
70005140:	40d8      	lsrs	r0, r3
70005142:	e5fe      	b.n	70004d42 <HAL_RCCEx_GetPeriphCLKFreq+0x4a>
70005144:	681b      	ldr	r3, [r3, #0]
70005146:	4883      	ldr	r0, [pc, #524]	@ (70005354 <HAL_RCCEx_GetPeriphCLKFreq+0x65c>)
70005148:	f413 7f80 	tst.w	r3, #256	@ 0x100
7000514c:	bf08      	it	eq
7000514e:	2000      	moveq	r0, #0
70005150:	e5f7      	b.n	70004d42 <HAL_RCCEx_GetPeriphCLKFreq+0x4a>
70005152:	4b7d      	ldr	r3, [pc, #500]	@ (70005348 <HAL_RCCEx_GetPeriphCLKFreq+0x650>)
70005154:	6d1a      	ldr	r2, [r3, #80]	@ 0x50
70005156:	f402 5240 	and.w	r2, r2, #12288	@ 0x3000
7000515a:	f5b2 5f00 	cmp.w	r2, #8192	@ 0x2000
7000515e:	d005      	beq.n	7000516c <HAL_RCCEx_GetPeriphCLKFreq+0x474>
70005160:	d9d5      	bls.n	7000510e <HAL_RCCEx_GetPeriphCLKFreq+0x416>
70005162:	f5b2 5f40 	cmp.w	r2, #12288	@ 0x3000
70005166:	d011      	beq.n	7000518c <HAL_RCCEx_GetPeriphCLKFreq+0x494>
70005168:	2000      	movs	r0, #0
7000516a:	e5ea      	b.n	70004d42 <HAL_RCCEx_GetPeriphCLKFreq+0x4a>
7000516c:	6818      	ldr	r0, [r3, #0]
7000516e:	f010 0004 	ands.w	r0, r0, #4
70005172:	f43f ade6 	beq.w	70004d42 <HAL_RCCEx_GetPeriphCLKFreq+0x4a>
70005176:	6818      	ldr	r0, [r3, #0]
70005178:	f010 0020 	ands.w	r0, r0, #32
7000517c:	f43f ade1 	beq.w	70004d42 <HAL_RCCEx_GetPeriphCLKFreq+0x4a>
70005180:	681b      	ldr	r3, [r3, #0]
70005182:	4873      	ldr	r0, [pc, #460]	@ (70005350 <HAL_RCCEx_GetPeriphCLKFreq+0x658>)
70005184:	f3c3 03c1 	ubfx	r3, r3, #3, #2
70005188:	40d8      	lsrs	r0, r3
7000518a:	e5da      	b.n	70004d42 <HAL_RCCEx_GetPeriphCLKFreq+0x4a>
7000518c:	681b      	ldr	r3, [r3, #0]
7000518e:	4871      	ldr	r0, [pc, #452]	@ (70005354 <HAL_RCCEx_GetPeriphCLKFreq+0x65c>)
70005190:	f413 7f80 	tst.w	r3, #256	@ 0x100
70005194:	bf08      	it	eq
70005196:	2000      	moveq	r0, #0
70005198:	e5d3      	b.n	70004d42 <HAL_RCCEx_GetPeriphCLKFreq+0x4a>
7000519a:	4a6b      	ldr	r2, [pc, #428]	@ (70005348 <HAL_RCCEx_GetPeriphCLKFreq+0x650>)
7000519c:	6d13      	ldr	r3, [r2, #80]	@ 0x50
7000519e:	f403 23e0 	and.w	r3, r3, #458752	@ 0x70000
700051a2:	f5b3 3f40 	cmp.w	r3, #196608	@ 0x30000
700051a6:	d01a      	beq.n	700051de <HAL_RCCEx_GetPeriphCLKFreq+0x4e6>
700051a8:	d80a      	bhi.n	700051c0 <HAL_RCCEx_GetPeriphCLKFreq+0x4c8>
700051aa:	f5b3 3f80 	cmp.w	r3, #65536	@ 0x10000
700051ae:	f000 817d 	beq.w	700054ac <HAL_RCCEx_GetPeriphCLKFreq+0x7b4>
700051b2:	f5b3 3f00 	cmp.w	r3, #131072	@ 0x20000
700051b6:	d00c      	beq.n	700051d2 <HAL_RCCEx_GetPeriphCLKFreq+0x4da>
700051b8:	2b00      	cmp	r3, #0
700051ba:	d0ab      	beq.n	70005114 <HAL_RCCEx_GetPeriphCLKFreq+0x41c>
700051bc:	2000      	movs	r0, #0
700051be:	e5c0      	b.n	70004d42 <HAL_RCCEx_GetPeriphCLKFreq+0x4a>
700051c0:	f5b3 2f80 	cmp.w	r3, #262144	@ 0x40000
700051c4:	d010      	beq.n	700051e8 <HAL_RCCEx_GetPeriphCLKFreq+0x4f0>
700051c6:	f5b3 2fa0 	cmp.w	r3, #327680	@ 0x50000
700051ca:	f43f aede 	beq.w	70004f8a <HAL_RCCEx_GetPeriphCLKFreq+0x292>
700051ce:	2000      	movs	r0, #0
700051d0:	e5b7      	b.n	70004d42 <HAL_RCCEx_GetPeriphCLKFreq+0x4a>
700051d2:	6ad0      	ldr	r0, [r2, #44]	@ 0x2c
700051d4:	f010 5000 	ands.w	r0, r0, #536870912	@ 0x20000000
700051d8:	f43f adb3 	beq.w	70004d42 <HAL_RCCEx_GetPeriphCLKFreq+0x4a>
700051dc:	e6d1      	b.n	70004f82 <HAL_RCCEx_GetPeriphCLKFreq+0x28a>
700051de:	6f10      	ldr	r0, [r2, #112]	@ 0x70
700051e0:	f3c0 0040 	ubfx	r0, r0, #1, #1
700051e4:	03c0      	lsls	r0, r0, #15
700051e6:	e5ac      	b.n	70004d42 <HAL_RCCEx_GetPeriphCLKFreq+0x4a>
700051e8:	6f53      	ldr	r3, [r2, #116]	@ 0x74
700051ea:	f013 0f02 	tst.w	r3, #2
700051ee:	bf14      	ite	ne
700051f0:	f44f 40fa 	movne.w	r0, #32000	@ 0x7d00
700051f4:	2000      	moveq	r0, #0
700051f6:	e5a4      	b.n	70004d42 <HAL_RCCEx_GetPeriphCLKFreq+0x4a>
700051f8:	4a53      	ldr	r2, [pc, #332]	@ (70005348 <HAL_RCCEx_GetPeriphCLKFreq+0x650>)
700051fa:	6d93      	ldr	r3, [r2, #88]	@ 0x58
700051fc:	f403 63e0 	and.w	r3, r3, #1792	@ 0x700
70005200:	f5b3 7f40 	cmp.w	r3, #768	@ 0x300
70005204:	d017      	beq.n	70005236 <HAL_RCCEx_GetPeriphCLKFreq+0x53e>
70005206:	d809      	bhi.n	7000521c <HAL_RCCEx_GetPeriphCLKFreq+0x524>
70005208:	f5b3 7f80 	cmp.w	r3, #256	@ 0x100
7000520c:	f000 814e 	beq.w	700054ac <HAL_RCCEx_GetPeriphCLKFreq+0x7b4>
70005210:	f5b3 7f00 	cmp.w	r3, #512	@ 0x200
70005214:	d0dd      	beq.n	700051d2 <HAL_RCCEx_GetPeriphCLKFreq+0x4da>
70005216:	b153      	cbz	r3, 7000522e <HAL_RCCEx_GetPeriphCLKFreq+0x536>
70005218:	2000      	movs	r0, #0
7000521a:	e592      	b.n	70004d42 <HAL_RCCEx_GetPeriphCLKFreq+0x4a>
7000521c:	f5b3 6f80 	cmp.w	r3, #1024	@ 0x400
70005220:	d00e      	beq.n	70005240 <HAL_RCCEx_GetPeriphCLKFreq+0x548>
70005222:	f5b3 6fa0 	cmp.w	r3, #1280	@ 0x500
70005226:	f43f aeb0 	beq.w	70004f8a <HAL_RCCEx_GetPeriphCLKFreq+0x292>
7000522a:	2000      	movs	r0, #0
7000522c:	e589      	b.n	70004d42 <HAL_RCCEx_GetPeriphCLKFreq+0x4a>
7000522e:	e8bd 4008 	ldmia.w	sp!, {r3, lr}
70005232:	f7ff b81f 	b.w	70004274 <HAL_RCC_GetPCLK4Freq>
70005236:	6f10      	ldr	r0, [r2, #112]	@ 0x70
70005238:	f3c0 0040 	ubfx	r0, r0, #1, #1
7000523c:	03c0      	lsls	r0, r0, #15
7000523e:	e580      	b.n	70004d42 <HAL_RCCEx_GetPeriphCLKFreq+0x4a>
70005240:	6f53      	ldr	r3, [r2, #116]	@ 0x74
70005242:	f013 0f02 	tst.w	r3, #2
70005246:	bf14      	ite	ne
70005248:	f44f 40fa 	movne.w	r0, #32000	@ 0x7d00
7000524c:	2000      	moveq	r0, #0
7000524e:	e578      	b.n	70004d42 <HAL_RCCEx_GetPeriphCLKFreq+0x4a>
70005250:	4a3d      	ldr	r2, [pc, #244]	@ (70005348 <HAL_RCCEx_GetPeriphCLKFreq+0x650>)
70005252:	6d93      	ldr	r3, [r2, #88]	@ 0x58
70005254:	f403 43e0 	and.w	r3, r3, #28672	@ 0x7000
70005258:	f5b3 5f40 	cmp.w	r3, #12288	@ 0x3000
7000525c:	d014      	beq.n	70005288 <HAL_RCCEx_GetPeriphCLKFreq+0x590>
7000525e:	d80a      	bhi.n	70005276 <HAL_RCCEx_GetPeriphCLKFreq+0x57e>
70005260:	f5b3 5f80 	cmp.w	r3, #4096	@ 0x1000
70005264:	f000 8122 	beq.w	700054ac <HAL_RCCEx_GetPeriphCLKFreq+0x7b4>
70005268:	f5b3 5f00 	cmp.w	r3, #8192	@ 0x2000
7000526c:	d0b1      	beq.n	700051d2 <HAL_RCCEx_GetPeriphCLKFreq+0x4da>
7000526e:	2b00      	cmp	r3, #0
70005270:	d0dd      	beq.n	7000522e <HAL_RCCEx_GetPeriphCLKFreq+0x536>
70005272:	2000      	movs	r0, #0
70005274:	e565      	b.n	70004d42 <HAL_RCCEx_GetPeriphCLKFreq+0x4a>
70005276:	f5b3 4f80 	cmp.w	r3, #16384	@ 0x4000
7000527a:	d00a      	beq.n	70005292 <HAL_RCCEx_GetPeriphCLKFreq+0x59a>
7000527c:	f5b3 4fa0 	cmp.w	r3, #20480	@ 0x5000
70005280:	f43f ae83 	beq.w	70004f8a <HAL_RCCEx_GetPeriphCLKFreq+0x292>
70005284:	2000      	movs	r0, #0
70005286:	e55c      	b.n	70004d42 <HAL_RCCEx_GetPeriphCLKFreq+0x4a>
70005288:	6f10      	ldr	r0, [r2, #112]	@ 0x70
7000528a:	f3c0 0040 	ubfx	r0, r0, #1, #1
7000528e:	03c0      	lsls	r0, r0, #15
70005290:	e557      	b.n	70004d42 <HAL_RCCEx_GetPeriphCLKFreq+0x4a>
70005292:	6f53      	ldr	r3, [r2, #116]	@ 0x74
70005294:	f013 0f02 	tst.w	r3, #2
70005298:	bf14      	ite	ne
7000529a:	f44f 40fa 	movne.w	r0, #32000	@ 0x7d00
7000529e:	2000      	moveq	r0, #0
700052a0:	e54f      	b.n	70004d42 <HAL_RCCEx_GetPeriphCLKFreq+0x4a>
700052a2:	4b29      	ldr	r3, [pc, #164]	@ (70005348 <HAL_RCCEx_GetPeriphCLKFreq+0x650>)
700052a4:	6d9a      	ldr	r2, [r3, #88]	@ 0x58
700052a6:	f002 0207 	and.w	r2, r2, #7
700052aa:	2a05      	cmp	r2, #5
700052ac:	f200 825a 	bhi.w	70005764 <HAL_RCCEx_GetPeriphCLKFreq+0xa6c>
700052b0:	a101      	add	r1, pc, #4	@ (adr r1, 700052b8 <HAL_RCCEx_GetPeriphCLKFreq+0x5c0>)
700052b2:	f851 f022 	ldr.w	pc, [r1, r2, lsl #2]
700052b6:	bf00      	nop
700052b8:	7000522f 	.word	0x7000522f
700052bc:	700052d1 	.word	0x700052d1
700052c0:	700052e3 	.word	0x700052e3
700052c4:	700052f5 	.word	0x700052f5
700052c8:	70005315 	.word	0x70005315
700052cc:	70005323 	.word	0x70005323
700052d0:	6ad8      	ldr	r0, [r3, #44]	@ 0x2c
700052d2:	f410 3000 	ands.w	r0, r0, #131072	@ 0x20000
700052d6:	f43f ad34 	beq.w	70004d42 <HAL_RCCEx_GetPeriphCLKFreq+0x4a>
700052da:	e8bd 4008 	ldmia.w	sp!, {r3, lr}
700052de:	f7fe bff3 	b.w	700042c8 <HAL_RCC_GetPLL2QFreq>
700052e2:	6ad8      	ldr	r0, [r3, #44]	@ 0x2c
700052e4:	f010 5080 	ands.w	r0, r0, #268435456	@ 0x10000000
700052e8:	f43f ad2b 	beq.w	70004d42 <HAL_RCCEx_GetPeriphCLKFreq+0x4a>
700052ec:	e8bd 4008 	ldmia.w	sp!, {r3, lr}
700052f0:	f7ff b830 	b.w	70004354 <HAL_RCC_GetPLL3QFreq>
700052f4:	6818      	ldr	r0, [r3, #0]
700052f6:	f010 0004 	ands.w	r0, r0, #4
700052fa:	f43f ad22 	beq.w	70004d42 <HAL_RCCEx_GetPeriphCLKFreq+0x4a>
700052fe:	6818      	ldr	r0, [r3, #0]
70005300:	f010 0020 	ands.w	r0, r0, #32
70005304:	f43f ad1d 	beq.w	70004d42 <HAL_RCCEx_GetPeriphCLKFreq+0x4a>
70005308:	681b      	ldr	r3, [r3, #0]
7000530a:	4811      	ldr	r0, [pc, #68]	@ (70005350 <HAL_RCCEx_GetPeriphCLKFreq+0x658>)
7000530c:	f3c3 03c1 	ubfx	r3, r3, #3, #2
70005310:	40d8      	lsrs	r0, r3
70005312:	e516      	b.n	70004d42 <HAL_RCCEx_GetPeriphCLKFreq+0x4a>
70005314:	681b      	ldr	r3, [r3, #0]
70005316:	480f      	ldr	r0, [pc, #60]	@ (70005354 <HAL_RCCEx_GetPeriphCLKFreq+0x65c>)
70005318:	f413 7f80 	tst.w	r3, #256	@ 0x100
7000531c:	bf08      	it	eq
7000531e:	2000      	moveq	r0, #0
70005320:	e50f      	b.n	70004d42 <HAL_RCCEx_GetPeriphCLKFreq+0x4a>
70005322:	6f18      	ldr	r0, [r3, #112]	@ 0x70
70005324:	f3c0 0040 	ubfx	r0, r0, #1, #1
70005328:	03c0      	lsls	r0, r0, #15
7000532a:	e50a      	b.n	70004d42 <HAL_RCCEx_GetPeriphCLKFreq+0x4a>
7000532c:	4b06      	ldr	r3, [pc, #24]	@ (70005348 <HAL_RCCEx_GetPeriphCLKFreq+0x650>)
7000532e:	6adb      	ldr	r3, [r3, #44]	@ 0x2c
70005330:	0098      	lsls	r0, r3, #2
70005332:	f53f ae26 	bmi.w	70004f82 <HAL_RCCEx_GetPeriphCLKFreq+0x28a>
70005336:	2000      	movs	r0, #0
70005338:	e503      	b.n	70004d42 <HAL_RCCEx_GetPeriphCLKFreq+0x4a>
7000533a:	4b03      	ldr	r3, [pc, #12]	@ (70005348 <HAL_RCCEx_GetPeriphCLKFreq+0x650>)
7000533c:	6cda      	ldr	r2, [r3, #76]	@ 0x4c
7000533e:	0111      	lsls	r1, r2, #4
70005340:	f53f ae23 	bmi.w	70004f8a <HAL_RCCEx_GetPeriphCLKFreq+0x292>
70005344:	6ad8      	ldr	r0, [r3, #44]	@ 0x2c
70005346:	e745      	b.n	700051d4 <HAL_RCCEx_GetPeriphCLKFreq+0x4dc>
70005348:	58024400 	.word	0x58024400
7000534c:	016e3600 	.word	0x016e3600
70005350:	03d09000 	.word	0x03d09000
70005354:	003d0900 	.word	0x003d0900
70005358:	4ba4      	ldr	r3, [pc, #656]	@ (700055ec <HAL_RCCEx_GetPeriphCLKFreq+0x8f4>)
7000535a:	6f1a      	ldr	r2, [r3, #112]	@ 0x70
7000535c:	f402 7240 	and.w	r2, r2, #768	@ 0x300
70005360:	f5b2 7f40 	cmp.w	r2, #768	@ 0x300
70005364:	d118      	bne.n	70005398 <HAL_RCCEx_GetPeriphCLKFreq+0x6a0>
70005366:	691b      	ldr	r3, [r3, #16]
70005368:	4ba0      	ldr	r3, [pc, #640]	@ (700055ec <HAL_RCCEx_GetPeriphCLKFreq+0x8f4>)
7000536a:	6f1a      	ldr	r2, [r3, #112]	@ 0x70
7000536c:	f402 7240 	and.w	r2, r2, #768	@ 0x300
70005370:	f5b2 7f40 	cmp.w	r2, #768	@ 0x300
70005374:	f040 81f9 	bne.w	7000576a <HAL_RCCEx_GetPeriphCLKFreq+0xa72>
70005378:	6818      	ldr	r0, [r3, #0]
7000537a:	f410 3000 	ands.w	r0, r0, #131072	@ 0x20000
7000537e:	f43f ace0 	beq.w	70004d42 <HAL_RCCEx_GetPeriphCLKFreq+0x4a>
70005382:	691b      	ldr	r3, [r3, #16]
70005384:	f413 5078 	ands.w	r0, r3, #15872	@ 0x3e00
70005388:	f43f acdb 	beq.w	70004d42 <HAL_RCCEx_GetPeriphCLKFreq+0x4a>
7000538c:	f3c3 2305 	ubfx	r3, r3, #8, #6
70005390:	4897      	ldr	r0, [pc, #604]	@ (700055f0 <HAL_RCCEx_GetPeriphCLKFreq+0x8f8>)
70005392:	fbb0 f0f3 	udiv	r0, r0, r3
70005396:	e4d4      	b.n	70004d42 <HAL_RCCEx_GetPeriphCLKFreq+0x4a>
70005398:	6f18      	ldr	r0, [r3, #112]	@ 0x70
7000539a:	f400 7040 	and.w	r0, r0, #768	@ 0x300
7000539e:	f5b0 7f80 	cmp.w	r0, #256	@ 0x100
700053a2:	d006      	beq.n	700053b2 <HAL_RCCEx_GetPeriphCLKFreq+0x6ba>
700053a4:	f5b0 7f00 	cmp.w	r0, #512	@ 0x200
700053a8:	d008      	beq.n	700053bc <HAL_RCCEx_GetPeriphCLKFreq+0x6c4>
700053aa:	2800      	cmp	r0, #0
700053ac:	f43f acc9 	beq.w	70004d42 <HAL_RCCEx_GetPeriphCLKFreq+0x4a>
700053b0:	e7da      	b.n	70005368 <HAL_RCCEx_GetPeriphCLKFreq+0x670>
700053b2:	6f18      	ldr	r0, [r3, #112]	@ 0x70
700053b4:	f3c0 0040 	ubfx	r0, r0, #1, #1
700053b8:	03c0      	lsls	r0, r0, #15
700053ba:	e4c2      	b.n	70004d42 <HAL_RCCEx_GetPeriphCLKFreq+0x4a>
700053bc:	6f5b      	ldr	r3, [r3, #116]	@ 0x74
700053be:	f013 0f02 	tst.w	r3, #2
700053c2:	bf14      	ite	ne
700053c4:	f44f 40fa 	movne.w	r0, #32000	@ 0x7d00
700053c8:	2000      	moveq	r0, #0
700053ca:	e4ba      	b.n	70004d42 <HAL_RCCEx_GetPeriphCLKFreq+0x4a>
700053cc:	4a87      	ldr	r2, [pc, #540]	@ (700055ec <HAL_RCCEx_GetPeriphCLKFreq+0x8f4>)
700053ce:	6d53      	ldr	r3, [r2, #84]	@ 0x54
700053d0:	f403 23e0 	and.w	r3, r3, #458752	@ 0x70000
700053d4:	f5b3 3f00 	cmp.w	r3, #131072	@ 0x20000
700053d8:	f43f adfc 	beq.w	70004fd4 <HAL_RCCEx_GetPeriphCLKFreq+0x2dc>
700053dc:	d803      	bhi.n	700053e6 <HAL_RCCEx_GetPeriphCLKFreq+0x6ee>
700053de:	2b00      	cmp	r3, #0
700053e0:	d164      	bne.n	700054ac <HAL_RCCEx_GetPeriphCLKFreq+0x7b4>
700053e2:	6ad0      	ldr	r0, [r2, #44]	@ 0x2c
700053e4:	e52c      	b.n	70004e40 <HAL_RCCEx_GetPeriphCLKFreq+0x148>
700053e6:	f5b3 3f40 	cmp.w	r3, #196608	@ 0x30000
700053ea:	f000 81c1 	beq.w	70005770 <HAL_RCCEx_GetPeriphCLKFreq+0xa78>
700053ee:	f5b3 2f80 	cmp.w	r3, #262144	@ 0x40000
700053f2:	f43f adca 	beq.w	70004f8a <HAL_RCCEx_GetPeriphCLKFreq+0x292>
700053f6:	2000      	movs	r0, #0
700053f8:	e4a3      	b.n	70004d42 <HAL_RCCEx_GetPeriphCLKFreq+0x4a>
700053fa:	4b7c      	ldr	r3, [pc, #496]	@ (700055ec <HAL_RCCEx_GetPeriphCLKFreq+0x8f4>)
700053fc:	6d58      	ldr	r0, [r3, #84]	@ 0x54
700053fe:	f400 00e0 	and.w	r0, r0, #7340032	@ 0x700000
70005402:	f5b0 1f00 	cmp.w	r0, #2097152	@ 0x200000
70005406:	d064      	beq.n	700054d2 <HAL_RCCEx_GetPeriphCLKFreq+0x7da>
70005408:	d802      	bhi.n	70005410 <HAL_RCCEx_GetPeriphCLKFreq+0x718>
7000540a:	b1e8      	cbz	r0, 70005448 <HAL_RCCEx_GetPeriphCLKFreq+0x750>
7000540c:	6ad8      	ldr	r0, [r3, #44]	@ 0x2c
7000540e:	e04e      	b.n	700054ae <HAL_RCCEx_GetPeriphCLKFreq+0x7b6>
70005410:	f5b0 1f40 	cmp.w	r0, #3145728	@ 0x300000
70005414:	f000 81b0 	beq.w	70005778 <HAL_RCCEx_GetPeriphCLKFreq+0xa80>
70005418:	f5b0 0f80 	cmp.w	r0, #4194304	@ 0x400000
7000541c:	f43f adb5 	beq.w	70004f8a <HAL_RCCEx_GetPeriphCLKFreq+0x292>
70005420:	2000      	movs	r0, #0
70005422:	e48e      	b.n	70004d42 <HAL_RCCEx_GetPeriphCLKFreq+0x4a>
70005424:	4b71      	ldr	r3, [pc, #452]	@ (700055ec <HAL_RCCEx_GetPeriphCLKFreq+0x8f4>)
70005426:	6cda      	ldr	r2, [r3, #76]	@ 0x4c
70005428:	6ad8      	ldr	r0, [r3, #44]	@ 0x2c
7000542a:	0752      	lsls	r2, r2, #29
7000542c:	f53f ad49 	bmi.w	70004ec2 <HAL_RCCEx_GetPeriphCLKFreq+0x1ca>
70005430:	e53e      	b.n	70004eb0 <HAL_RCCEx_GetPeriphCLKFreq+0x1b8>
70005432:	4b6e      	ldr	r3, [pc, #440]	@ (700055ec <HAL_RCCEx_GetPeriphCLKFreq+0x8f4>)
70005434:	6d18      	ldr	r0, [r3, #80]	@ 0x50
70005436:	f000 7040 	and.w	r0, r0, #50331648	@ 0x3000000
7000543a:	f1b0 7f00 	cmp.w	r0, #33554432	@ 0x2000000
7000543e:	d00c      	beq.n	7000545a <HAL_RCCEx_GetPeriphCLKFreq+0x762>
70005440:	d806      	bhi.n	70005450 <HAL_RCCEx_GetPeriphCLKFreq+0x758>
70005442:	2800      	cmp	r0, #0
70005444:	f47f ad04 	bne.w	70004e50 <HAL_RCCEx_GetPeriphCLKFreq+0x158>
70005448:	6adb      	ldr	r3, [r3, #44]	@ 0x2c
7000544a:	f013 0f40 	tst.w	r3, #64	@ 0x40
7000544e:	e4f9      	b.n	70004e44 <HAL_RCCEx_GetPeriphCLKFreq+0x14c>
70005450:	f1b0 7f40 	cmp.w	r0, #50331648	@ 0x3000000
70005454:	d007      	beq.n	70005466 <HAL_RCCEx_GetPeriphCLKFreq+0x76e>
70005456:	2000      	movs	r0, #0
70005458:	e473      	b.n	70004d42 <HAL_RCCEx_GetPeriphCLKFreq+0x4a>
7000545a:	6adb      	ldr	r3, [r3, #44]	@ 0x2c
7000545c:	009b      	lsls	r3, r3, #2
7000545e:	f53f ad90 	bmi.w	70004f82 <HAL_RCCEx_GetPeriphCLKFreq+0x28a>
70005462:	2000      	movs	r0, #0
70005464:	e46d      	b.n	70004d42 <HAL_RCCEx_GetPeriphCLKFreq+0x4a>
70005466:	6818      	ldr	r0, [r3, #0]
70005468:	f010 0004 	ands.w	r0, r0, #4
7000546c:	f43f ac69 	beq.w	70004d42 <HAL_RCCEx_GetPeriphCLKFreq+0x4a>
70005470:	6818      	ldr	r0, [r3, #0]
70005472:	f010 0020 	ands.w	r0, r0, #32
70005476:	f43f ac64 	beq.w	70004d42 <HAL_RCCEx_GetPeriphCLKFreq+0x4a>
7000547a:	681b      	ldr	r3, [r3, #0]
7000547c:	485d      	ldr	r0, [pc, #372]	@ (700055f4 <HAL_RCCEx_GetPeriphCLKFreq+0x8fc>)
7000547e:	f3c3 03c1 	ubfx	r3, r3, #3, #2
70005482:	40d8      	lsrs	r0, r3
70005484:	e45d      	b.n	70004d42 <HAL_RCCEx_GetPeriphCLKFreq+0x4a>
70005486:	4a59      	ldr	r2, [pc, #356]	@ (700055ec <HAL_RCCEx_GetPeriphCLKFreq+0x8f4>)
70005488:	6d53      	ldr	r3, [r2, #84]	@ 0x54
7000548a:	f403 63e0 	and.w	r3, r3, #1792	@ 0x700
7000548e:	f5b3 7f00 	cmp.w	r3, #512	@ 0x200
70005492:	f43f ad9f 	beq.w	70004fd4 <HAL_RCCEx_GetPeriphCLKFreq+0x2dc>
70005496:	d9a2      	bls.n	700053de <HAL_RCCEx_GetPeriphCLKFreq+0x6e6>
70005498:	f5b3 7f40 	cmp.w	r3, #768	@ 0x300
7000549c:	f000 8170 	beq.w	70005780 <HAL_RCCEx_GetPeriphCLKFreq+0xa88>
700054a0:	f5b3 6f80 	cmp.w	r3, #1024	@ 0x400
700054a4:	f43f ad71 	beq.w	70004f8a <HAL_RCCEx_GetPeriphCLKFreq+0x292>
700054a8:	2000      	movs	r0, #0
700054aa:	e44a      	b.n	70004d42 <HAL_RCCEx_GetPeriphCLKFreq+0x4a>
700054ac:	6ad0      	ldr	r0, [r2, #44]	@ 0x2c
700054ae:	f410 3080 	ands.w	r0, r0, #65536	@ 0x10000
700054b2:	e55c      	b.n	70004f6e <HAL_RCCEx_GetPeriphCLKFreq+0x276>
700054b4:	4b4d      	ldr	r3, [pc, #308]	@ (700055ec <HAL_RCCEx_GetPeriphCLKFreq+0x8f4>)
700054b6:	6d18      	ldr	r0, [r3, #80]	@ 0x50
700054b8:	f000 0070 	and.w	r0, r0, #112	@ 0x70
700054bc:	2820      	cmp	r0, #32
700054be:	d008      	beq.n	700054d2 <HAL_RCCEx_GetPeriphCLKFreq+0x7da>
700054c0:	d9a3      	bls.n	7000540a <HAL_RCCEx_GetPeriphCLKFreq+0x712>
700054c2:	2830      	cmp	r0, #48	@ 0x30
700054c4:	f000 8160 	beq.w	70005788 <HAL_RCCEx_GetPeriphCLKFreq+0xa90>
700054c8:	2840      	cmp	r0, #64	@ 0x40
700054ca:	f43f ad5e 	beq.w	70004f8a <HAL_RCCEx_GetPeriphCLKFreq+0x292>
700054ce:	2000      	movs	r0, #0
700054d0:	e437      	b.n	70004d42 <HAL_RCCEx_GetPeriphCLKFreq+0x4a>
700054d2:	6ad8      	ldr	r0, [r3, #44]	@ 0x2c
700054d4:	e57f      	b.n	70004fd6 <HAL_RCCEx_GetPeriphCLKFreq+0x2de>
700054d6:	4a45      	ldr	r2, [pc, #276]	@ (700055ec <HAL_RCCEx_GetPeriphCLKFreq+0x8f4>)
700054d8:	6d53      	ldr	r3, [r2, #84]	@ 0x54
700054da:	f003 0370 	and.w	r3, r3, #112	@ 0x70
700054de:	2b30      	cmp	r3, #48	@ 0x30
700054e0:	d015      	beq.n	7000550e <HAL_RCCEx_GetPeriphCLKFreq+0x816>
700054e2:	d806      	bhi.n	700054f2 <HAL_RCCEx_GetPeriphCLKFreq+0x7fa>
700054e4:	2b10      	cmp	r3, #16
700054e6:	d00e      	beq.n	70005506 <HAL_RCCEx_GetPeriphCLKFreq+0x80e>
700054e8:	2b20      	cmp	r3, #32
700054ea:	d00e      	beq.n	7000550a <HAL_RCCEx_GetPeriphCLKFreq+0x812>
700054ec:	b13b      	cbz	r3, 700054fe <HAL_RCCEx_GetPeriphCLKFreq+0x806>
700054ee:	2000      	movs	r0, #0
700054f0:	e427      	b.n	70004d42 <HAL_RCCEx_GetPeriphCLKFreq+0x4a>
700054f2:	2b40      	cmp	r3, #64	@ 0x40
700054f4:	d01b      	beq.n	7000552e <HAL_RCCEx_GetPeriphCLKFreq+0x836>
700054f6:	2b50      	cmp	r3, #80	@ 0x50
700054f8:	d020      	beq.n	7000553c <HAL_RCCEx_GetPeriphCLKFreq+0x844>
700054fa:	2000      	movs	r0, #0
700054fc:	e421      	b.n	70004d42 <HAL_RCCEx_GetPeriphCLKFreq+0x4a>
700054fe:	e8bd 4008 	ldmia.w	sp!, {r3, lr}
70005502:	f7fe bea9 	b.w	70004258 <HAL_RCC_GetPCLK2Freq>
70005506:	6ad0      	ldr	r0, [r2, #44]	@ 0x2c
70005508:	e6e3      	b.n	700052d2 <HAL_RCCEx_GetPeriphCLKFreq+0x5da>
7000550a:	6ad0      	ldr	r0, [r2, #44]	@ 0x2c
7000550c:	e6ea      	b.n	700052e4 <HAL_RCCEx_GetPeriphCLKFreq+0x5ec>
7000550e:	6810      	ldr	r0, [r2, #0]
70005510:	f010 0004 	ands.w	r0, r0, #4
70005514:	f43f ac15 	beq.w	70004d42 <HAL_RCCEx_GetPeriphCLKFreq+0x4a>
70005518:	6813      	ldr	r3, [r2, #0]
7000551a:	0698      	lsls	r0, r3, #26
7000551c:	f140 8138 	bpl.w	70005790 <HAL_RCCEx_GetPeriphCLKFreq+0xa98>
70005520:	4b32      	ldr	r3, [pc, #200]	@ (700055ec <HAL_RCCEx_GetPeriphCLKFreq+0x8f4>)
70005522:	4834      	ldr	r0, [pc, #208]	@ (700055f4 <HAL_RCCEx_GetPeriphCLKFreq+0x8fc>)
70005524:	681b      	ldr	r3, [r3, #0]
70005526:	f3c3 03c1 	ubfx	r3, r3, #3, #2
7000552a:	40d8      	lsrs	r0, r3
7000552c:	e409      	b.n	70004d42 <HAL_RCCEx_GetPeriphCLKFreq+0x4a>
7000552e:	6813      	ldr	r3, [r2, #0]
70005530:	4831      	ldr	r0, [pc, #196]	@ (700055f8 <HAL_RCCEx_GetPeriphCLKFreq+0x900>)
70005532:	f413 7f80 	tst.w	r3, #256	@ 0x100
70005536:	bf08      	it	eq
70005538:	2000      	moveq	r0, #0
7000553a:	e402      	b.n	70004d42 <HAL_RCCEx_GetPeriphCLKFreq+0x4a>
7000553c:	6813      	ldr	r3, [r2, #0]
7000553e:	482c      	ldr	r0, [pc, #176]	@ (700055f0 <HAL_RCCEx_GetPeriphCLKFreq+0x8f8>)
70005540:	f413 3f00 	tst.w	r3, #131072	@ 0x20000
70005544:	bf08      	it	eq
70005546:	2000      	moveq	r0, #0
70005548:	f7ff bbfb 	b.w	70004d42 <HAL_RCCEx_GetPeriphCLKFreq+0x4a>
7000554c:	4b27      	ldr	r3, [pc, #156]	@ (700055ec <HAL_RCCEx_GetPeriphCLKFreq+0x8f4>)
7000554e:	6d9a      	ldr	r2, [r3, #88]	@ 0x58
70005550:	f002 0270 	and.w	r2, r2, #112	@ 0x70
70005554:	2a30      	cmp	r2, #48	@ 0x30
70005556:	d013      	beq.n	70005580 <HAL_RCCEx_GetPeriphCLKFreq+0x888>
70005558:	d80b      	bhi.n	70005572 <HAL_RCCEx_GetPeriphCLKFreq+0x87a>
7000555a:	2a10      	cmp	r2, #16
7000555c:	f43f aeb8 	beq.w	700052d0 <HAL_RCCEx_GetPeriphCLKFreq+0x5d8>
70005560:	2a20      	cmp	r2, #32
70005562:	f43f aebe 	beq.w	700052e2 <HAL_RCCEx_GetPeriphCLKFreq+0x5ea>
70005566:	2a00      	cmp	r2, #0
70005568:	f43f ae61 	beq.w	7000522e <HAL_RCCEx_GetPeriphCLKFreq+0x536>
7000556c:	2000      	movs	r0, #0
7000556e:	f7ff bbe8 	b.w	70004d42 <HAL_RCCEx_GetPeriphCLKFreq+0x4a>
70005572:	2a40      	cmp	r2, #64	@ 0x40
70005574:	d014      	beq.n	700055a0 <HAL_RCCEx_GetPeriphCLKFreq+0x8a8>
70005576:	2a50      	cmp	r2, #80	@ 0x50
70005578:	d01a      	beq.n	700055b0 <HAL_RCCEx_GetPeriphCLKFreq+0x8b8>
7000557a:	2000      	movs	r0, #0
7000557c:	f7ff bbe1 	b.w	70004d42 <HAL_RCCEx_GetPeriphCLKFreq+0x4a>
70005580:	681a      	ldr	r2, [r3, #0]
70005582:	0751      	lsls	r1, r2, #29
70005584:	f140 8107 	bpl.w	70005796 <HAL_RCCEx_GetPeriphCLKFreq+0xa9e>
70005588:	6818      	ldr	r0, [r3, #0]
7000558a:	f010 0020 	ands.w	r0, r0, #32
7000558e:	f43f abd8 	beq.w	70004d42 <HAL_RCCEx_GetPeriphCLKFreq+0x4a>
70005592:	681b      	ldr	r3, [r3, #0]
70005594:	4817      	ldr	r0, [pc, #92]	@ (700055f4 <HAL_RCCEx_GetPeriphCLKFreq+0x8fc>)
70005596:	f3c3 03c1 	ubfx	r3, r3, #3, #2
7000559a:	40d8      	lsrs	r0, r3
7000559c:	f7ff bbd1 	b.w	70004d42 <HAL_RCCEx_GetPeriphCLKFreq+0x4a>
700055a0:	681b      	ldr	r3, [r3, #0]
700055a2:	4815      	ldr	r0, [pc, #84]	@ (700055f8 <HAL_RCCEx_GetPeriphCLKFreq+0x900>)
700055a4:	f413 7f80 	tst.w	r3, #256	@ 0x100
700055a8:	bf08      	it	eq
700055aa:	2000      	moveq	r0, #0
700055ac:	f7ff bbc9 	b.w	70004d42 <HAL_RCCEx_GetPeriphCLKFreq+0x4a>
700055b0:	681b      	ldr	r3, [r3, #0]
700055b2:	480f      	ldr	r0, [pc, #60]	@ (700055f0 <HAL_RCCEx_GetPeriphCLKFreq+0x8f8>)
700055b4:	f413 3f00 	tst.w	r3, #131072	@ 0x20000
700055b8:	bf08      	it	eq
700055ba:	2000      	moveq	r0, #0
700055bc:	f7ff bbc1 	b.w	70004d42 <HAL_RCCEx_GetPeriphCLKFreq+0x4a>
700055c0:	4b0a      	ldr	r3, [pc, #40]	@ (700055ec <HAL_RCCEx_GetPeriphCLKFreq+0x8f4>)
700055c2:	6d5a      	ldr	r2, [r3, #84]	@ 0x54
700055c4:	f002 0207 	and.w	r2, r2, #7
700055c8:	2a05      	cmp	r2, #5
700055ca:	f200 80e7 	bhi.w	7000579c <HAL_RCCEx_GetPeriphCLKFreq+0xaa4>
700055ce:	a101      	add	r1, pc, #4	@ (adr r1, 700055d4 <HAL_RCCEx_GetPeriphCLKFreq+0x8dc>)
700055d0:	f851 f022 	ldr.w	pc, [r1, r2, lsl #2]
700055d4:	700054ff 	.word	0x700054ff
700055d8:	700052d1 	.word	0x700052d1
700055dc:	700052e3 	.word	0x700052e3
700055e0:	700055fd 	.word	0x700055fd
700055e4:	7000561f 	.word	0x7000561f
700055e8:	7000562f 	.word	0x7000562f
700055ec:	58024400 	.word	0x58024400
700055f0:	016e3600 	.word	0x016e3600
700055f4:	03d09000 	.word	0x03d09000
700055f8:	003d0900 	.word	0x003d0900
700055fc:	6818      	ldr	r0, [r3, #0]
700055fe:	f010 0004 	ands.w	r0, r0, #4
70005602:	f43f ab9e 	beq.w	70004d42 <HAL_RCCEx_GetPeriphCLKFreq+0x4a>
70005606:	6818      	ldr	r0, [r3, #0]
70005608:	f010 0020 	ands.w	r0, r0, #32
7000560c:	f43f ab99 	beq.w	70004d42 <HAL_RCCEx_GetPeriphCLKFreq+0x4a>
70005610:	681b      	ldr	r3, [r3, #0]
70005612:	4868      	ldr	r0, [pc, #416]	@ (700057b4 <HAL_RCCEx_GetPeriphCLKFreq+0xabc>)
70005614:	f3c3 03c1 	ubfx	r3, r3, #3, #2
70005618:	40d8      	lsrs	r0, r3
7000561a:	f7ff bb92 	b.w	70004d42 <HAL_RCCEx_GetPeriphCLKFreq+0x4a>
7000561e:	681b      	ldr	r3, [r3, #0]
70005620:	4865      	ldr	r0, [pc, #404]	@ (700057b8 <HAL_RCCEx_GetPeriphCLKFreq+0xac0>)
70005622:	f413 7f80 	tst.w	r3, #256	@ 0x100
70005626:	bf08      	it	eq
70005628:	2000      	moveq	r0, #0
7000562a:	f7ff bb8a 	b.w	70004d42 <HAL_RCCEx_GetPeriphCLKFreq+0x4a>
7000562e:	6f18      	ldr	r0, [r3, #112]	@ 0x70
70005630:	f3c0 0040 	ubfx	r0, r0, #1, #1
70005634:	03c0      	lsls	r0, r0, #15
70005636:	f7ff bb84 	b.w	70004d42 <HAL_RCCEx_GetPeriphCLKFreq+0x4a>
7000563a:	4b60      	ldr	r3, [pc, #384]	@ (700057bc <HAL_RCCEx_GetPeriphCLKFreq+0xac4>)
7000563c:	6d1a      	ldr	r2, [r3, #80]	@ 0x50
7000563e:	f002 0207 	and.w	r2, r2, #7
70005642:	2a05      	cmp	r2, #5
70005644:	f200 80ad 	bhi.w	700057a2 <HAL_RCCEx_GetPeriphCLKFreq+0xaaa>
70005648:	a101      	add	r1, pc, #4	@ (adr r1, 70005650 <HAL_RCCEx_GetPeriphCLKFreq+0x958>)
7000564a:	f851 f022 	ldr.w	pc, [r1, r2, lsl #2]
7000564e:	bf00      	nop
70005650:	70005115 	.word	0x70005115
70005654:	700052d1 	.word	0x700052d1
70005658:	700052e3 	.word	0x700052e3
7000565c:	70005669 	.word	0x70005669
70005660:	7000568b 	.word	0x7000568b
70005664:	7000569b 	.word	0x7000569b
70005668:	6818      	ldr	r0, [r3, #0]
7000566a:	f010 0004 	ands.w	r0, r0, #4
7000566e:	f43f ab68 	beq.w	70004d42 <HAL_RCCEx_GetPeriphCLKFreq+0x4a>
70005672:	6818      	ldr	r0, [r3, #0]
70005674:	f010 0020 	ands.w	r0, r0, #32
70005678:	f43f ab63 	beq.w	70004d42 <HAL_RCCEx_GetPeriphCLKFreq+0x4a>
7000567c:	681b      	ldr	r3, [r3, #0]
7000567e:	484d      	ldr	r0, [pc, #308]	@ (700057b4 <HAL_RCCEx_GetPeriphCLKFreq+0xabc>)
70005680:	f3c3 03c1 	ubfx	r3, r3, #3, #2
70005684:	40d8      	lsrs	r0, r3
70005686:	f7ff bb5c 	b.w	70004d42 <HAL_RCCEx_GetPeriphCLKFreq+0x4a>
7000568a:	681b      	ldr	r3, [r3, #0]
7000568c:	484a      	ldr	r0, [pc, #296]	@ (700057b8 <HAL_RCCEx_GetPeriphCLKFreq+0xac0>)
7000568e:	f413 7f80 	tst.w	r3, #256	@ 0x100
70005692:	bf08      	it	eq
70005694:	2000      	moveq	r0, #0
70005696:	f7ff bb54 	b.w	70004d42 <HAL_RCCEx_GetPeriphCLKFreq+0x4a>
7000569a:	6f18      	ldr	r0, [r3, #112]	@ 0x70
7000569c:	f3c0 0040 	ubfx	r0, r0, #1, #1
700056a0:	03c0      	lsls	r0, r0, #15
700056a2:	f7ff bb4e 	b.w	70004d42 <HAL_RCCEx_GetPeriphCLKFreq+0x4a>
700056a6:	4a45      	ldr	r2, [pc, #276]	@ (700057bc <HAL_RCCEx_GetPeriphCLKFreq+0xac4>)
700056a8:	6cd3      	ldr	r3, [r2, #76]	@ 0x4c
700056aa:	f403 5340 	and.w	r3, r3, #12288	@ 0x3000
700056ae:	f5b3 5f80 	cmp.w	r3, #4096	@ 0x1000
700056b2:	d00c      	beq.n	700056ce <HAL_RCCEx_GetPeriphCLKFreq+0x9d6>
700056b4:	f5b3 5f00 	cmp.w	r3, #8192	@ 0x2000
700056b8:	d011      	beq.n	700056de <HAL_RCCEx_GetPeriphCLKFreq+0x9e6>
700056ba:	2b00      	cmp	r3, #0
700056bc:	d174      	bne.n	700057a8 <HAL_RCCEx_GetPeriphCLKFreq+0xab0>
700056be:	6813      	ldr	r3, [r2, #0]
700056c0:	483f      	ldr	r0, [pc, #252]	@ (700057c0 <HAL_RCCEx_GetPeriphCLKFreq+0xac8>)
700056c2:	f413 3f00 	tst.w	r3, #131072	@ 0x20000
700056c6:	bf08      	it	eq
700056c8:	2000      	moveq	r0, #0
700056ca:	f7ff bb3a 	b.w	70004d42 <HAL_RCCEx_GetPeriphCLKFreq+0x4a>
700056ce:	6813      	ldr	r3, [r2, #0]
700056d0:	483c      	ldr	r0, [pc, #240]	@ (700057c4 <HAL_RCCEx_GetPeriphCLKFreq+0xacc>)
700056d2:	f413 3f00 	tst.w	r3, #131072	@ 0x20000
700056d6:	bf08      	it	eq
700056d8:	2000      	moveq	r0, #0
700056da:	f7ff bb32 	b.w	70004d42 <HAL_RCCEx_GetPeriphCLKFreq+0x4a>
700056de:	6ad3      	ldr	r3, [r2, #44]	@ 0x2c
700056e0:	00da      	lsls	r2, r3, #3
700056e2:	f53f ae03 	bmi.w	700052ec <HAL_RCCEx_GetPeriphCLKFreq+0x5f4>
700056e6:	2000      	movs	r0, #0
700056e8:	f7ff bb2b 	b.w	70004d42 <HAL_RCCEx_GetPeriphCLKFreq+0x4a>
700056ec:	4a33      	ldr	r2, [pc, #204]	@ (700057bc <HAL_RCCEx_GetPeriphCLKFreq+0xac4>)
700056ee:	6cd3      	ldr	r3, [r2, #76]	@ 0x4c
700056f0:	f403 4340 	and.w	r3, r3, #49152	@ 0xc000
700056f4:	f5b3 4f80 	cmp.w	r3, #16384	@ 0x4000
700056f8:	d00c      	beq.n	70005714 <HAL_RCCEx_GetPeriphCLKFreq+0xa1c>
700056fa:	f5b3 4f00 	cmp.w	r3, #32768	@ 0x8000
700056fe:	d010      	beq.n	70005722 <HAL_RCCEx_GetPeriphCLKFreq+0xa2a>
70005700:	2b00      	cmp	r3, #0
70005702:	d154      	bne.n	700057ae <HAL_RCCEx_GetPeriphCLKFreq+0xab6>
70005704:	6813      	ldr	r3, [r2, #0]
70005706:	4830      	ldr	r0, [pc, #192]	@ (700057c8 <HAL_RCCEx_GetPeriphCLKFreq+0xad0>)
70005708:	f413 5f00 	tst.w	r3, #8192	@ 0x2000
7000570c:	bf08      	it	eq
7000570e:	2000      	moveq	r0, #0
70005710:	f7ff bb17 	b.w	70004d42 <HAL_RCCEx_GetPeriphCLKFreq+0x4a>
70005714:	6ad3      	ldr	r3, [r2, #44]	@ 0x2c
70005716:	00db      	lsls	r3, r3, #3
70005718:	f53f ade8 	bmi.w	700052ec <HAL_RCCEx_GetPeriphCLKFreq+0x5f4>
7000571c:	2000      	movs	r0, #0
7000571e:	f7ff bb10 	b.w	70004d42 <HAL_RCCEx_GetPeriphCLKFreq+0x4a>
70005722:	6813      	ldr	r3, [r2, #0]
70005724:	4826      	ldr	r0, [pc, #152]	@ (700057c0 <HAL_RCCEx_GetPeriphCLKFreq+0xac8>)
70005726:	f413 3f00 	tst.w	r3, #131072	@ 0x20000
7000572a:	bf08      	it	eq
7000572c:	2000      	moveq	r0, #0
7000572e:	f7ff bb08 	b.w	70004d42 <HAL_RCCEx_GetPeriphCLKFreq+0x4a>
70005732:	2000      	movs	r0, #0
70005734:	f7ff bb05 	b.w	70004d42 <HAL_RCCEx_GetPeriphCLKFreq+0x4a>
70005738:	2000      	movs	r0, #0
7000573a:	f7ff bb02 	b.w	70004d42 <HAL_RCCEx_GetPeriphCLKFreq+0x4a>
7000573e:	2000      	movs	r0, #0
70005740:	f7ff baff 	b.w	70004d42 <HAL_RCCEx_GetPeriphCLKFreq+0x4a>
70005744:	2000      	movs	r0, #0
70005746:	f7ff bafc 	b.w	70004d42 <HAL_RCCEx_GetPeriphCLKFreq+0x4a>
7000574a:	f64b 3080 	movw	r0, #48000	@ 0xbb80
7000574e:	f7ff baf8 	b.w	70004d42 <HAL_RCCEx_GetPeriphCLKFreq+0x4a>
70005752:	2000      	movs	r0, #0
70005754:	f7ff baf5 	b.w	70004d42 <HAL_RCCEx_GetPeriphCLKFreq+0x4a>
70005758:	2000      	movs	r0, #0
7000575a:	f7ff baf2 	b.w	70004d42 <HAL_RCCEx_GetPeriphCLKFreq+0x4a>
7000575e:	2000      	movs	r0, #0
70005760:	f7ff baef 	b.w	70004d42 <HAL_RCCEx_GetPeriphCLKFreq+0x4a>
70005764:	2000      	movs	r0, #0
70005766:	f7ff baec 	b.w	70004d42 <HAL_RCCEx_GetPeriphCLKFreq+0x4a>
7000576a:	2000      	movs	r0, #0
7000576c:	f7ff bae9 	b.w	70004d42 <HAL_RCCEx_GetPeriphCLKFreq+0x4a>
70005770:	f64b 3080 	movw	r0, #48000	@ 0xbb80
70005774:	f7ff bae5 	b.w	70004d42 <HAL_RCCEx_GetPeriphCLKFreq+0x4a>
70005778:	f64b 3080 	movw	r0, #48000	@ 0xbb80
7000577c:	f7ff bae1 	b.w	70004d42 <HAL_RCCEx_GetPeriphCLKFreq+0x4a>
70005780:	f64b 3080 	movw	r0, #48000	@ 0xbb80
70005784:	f7ff badd 	b.w	70004d42 <HAL_RCCEx_GetPeriphCLKFreq+0x4a>
70005788:	f64b 3080 	movw	r0, #48000	@ 0xbb80
7000578c:	f7ff bad9 	b.w	70004d42 <HAL_RCCEx_GetPeriphCLKFreq+0x4a>
70005790:	2000      	movs	r0, #0
70005792:	f7ff bad6 	b.w	70004d42 <HAL_RCCEx_GetPeriphCLKFreq+0x4a>
70005796:	2000      	movs	r0, #0
70005798:	f7ff bad3 	b.w	70004d42 <HAL_RCCEx_GetPeriphCLKFreq+0x4a>
7000579c:	2000      	movs	r0, #0
7000579e:	f7ff bad0 	b.w	70004d42 <HAL_RCCEx_GetPeriphCLKFreq+0x4a>
700057a2:	2000      	movs	r0, #0
700057a4:	f7ff bacd 	b.w	70004d42 <HAL_RCCEx_GetPeriphCLKFreq+0x4a>
700057a8:	2000      	movs	r0, #0
700057aa:	f7ff baca 	b.w	70004d42 <HAL_RCCEx_GetPeriphCLKFreq+0x4a>
700057ae:	2000      	movs	r0, #0
700057b0:	f7ff bac7 	b.w	70004d42 <HAL_RCCEx_GetPeriphCLKFreq+0x4a>
700057b4:	03d09000 	.word	0x03d09000
700057b8:	003d0900 	.word	0x003d0900
700057bc:	58024400 	.word	0x58024400
700057c0:	016e3600 	.word	0x016e3600
700057c4:	00b71b00 	.word	0x00b71b00
700057c8:	02dc6c00 	.word	0x02dc6c00

700057cc <SD_SwitchSpeed>:
700057cc:	e92d 47f0 	stmdb	sp!, {r4, r5, r6, r7, r8, r9, sl, lr}
700057d0:	b096      	sub	sp, #88	@ 0x58
700057d2:	f04f 0840 	mov.w	r8, #64	@ 0x40
700057d6:	4606      	mov	r6, r0
700057d8:	460d      	mov	r5, r1
700057da:	f10d 0918 	add.w	r9, sp, #24
700057de:	4642      	mov	r2, r8
700057e0:	2100      	movs	r1, #0
700057e2:	4648      	mov	r0, r9
700057e4:	f004 f924 	bl	70009a30 <memset>
700057e8:	f7fc fc30 	bl	7000204c <HAL_GetTick>
700057ec:	6db3      	ldr	r3, [r6, #88]	@ 0x58
700057ee:	4607      	mov	r7, r0
700057f0:	2b00      	cmp	r3, #0
700057f2:	d061      	beq.n	700058b8 <SD_SwitchSpeed+0xec>
700057f4:	2bff      	cmp	r3, #255	@ 0xff
700057f6:	d804      	bhi.n	70005802 <SD_SwitchSpeed+0x36>
700057f8:	2400      	movs	r4, #0
700057fa:	4620      	mov	r0, r4
700057fc:	b016      	add	sp, #88	@ 0x58
700057fe:	e8bd 87f0 	ldmia.w	sp!, {r4, r5, r6, r7, r8, r9, sl, pc}
70005802:	6830      	ldr	r0, [r6, #0]
70005804:	2300      	movs	r3, #0
70005806:	4641      	mov	r1, r8
70005808:	62c3      	str	r3, [r0, #44]	@ 0x2c
7000580a:	f001 f94d 	bl	70006aa8 <SDMMC_CmdBlockLength>
7000580e:	4604      	mov	r4, r0
70005810:	2800      	cmp	r0, #0
70005812:	d1f2      	bne.n	700057fa <SD_SwitchSpeed+0x2e>
70005814:	f04f 33ff 	mov.w	r3, #4294967295	@ 0xffffffff
70005818:	2260      	movs	r2, #96	@ 0x60
7000581a:	4669      	mov	r1, sp
7000581c:	9004      	str	r0, [sp, #16]
7000581e:	6830      	ldr	r0, [r6, #0]
70005820:	e9cd 3800 	strd	r3, r8, [sp]
70005824:	2302      	movs	r3, #2
70005826:	e9cd 2302 	strd	r2, r3, [sp, #8]
7000582a:	2301      	movs	r3, #1
7000582c:	9305      	str	r3, [sp, #20]
7000582e:	f001 f86e 	bl	7000690e <SDMMC_ConfigData>
70005832:	4629      	mov	r1, r5
70005834:	6830      	ldr	r0, [r6, #0]
70005836:	f001 fa31 	bl	70006c9c <SDMMC_CmdSwitch>
7000583a:	4604      	mov	r4, r0
7000583c:	2800      	cmp	r0, #0
7000583e:	d1dc      	bne.n	700057fa <SD_SwitchSpeed+0x2e>
70005840:	f240 582a 	movw	r8, #1322	@ 0x52a
70005844:	6833      	ldr	r3, [r6, #0]
70005846:	6b5d      	ldr	r5, [r3, #52]	@ 0x34
70005848:	ea15 0508 	ands.w	r5, r5, r8
7000584c:	d005      	beq.n	7000585a <SD_SwitchSpeed+0x8e>
7000584e:	6b5a      	ldr	r2, [r3, #52]	@ 0x34
70005850:	0710      	lsls	r0, r2, #28
70005852:	d51c      	bpl.n	7000588e <SD_SwitchSpeed+0xc2>
70005854:	2208      	movs	r2, #8
70005856:	639a      	str	r2, [r3, #56]	@ 0x38
70005858:	e7ce      	b.n	700057f8 <SD_SwitchSpeed+0x2c>
7000585a:	6b5b      	ldr	r3, [r3, #52]	@ 0x34
7000585c:	041b      	lsls	r3, r3, #16
7000585e:	d50a      	bpl.n	70005876 <SD_SwitchSpeed+0xaa>
70005860:	eb09 1a44 	add.w	sl, r9, r4, lsl #5
70005864:	3501      	adds	r5, #1
70005866:	6830      	ldr	r0, [r6, #0]
70005868:	f001 f828 	bl	700068bc <SDMMC_ReadFIFO>
7000586c:	f84a 0b04 	str.w	r0, [sl], #4
70005870:	2d08      	cmp	r5, #8
70005872:	d1f7      	bne.n	70005864 <SD_SwitchSpeed+0x98>
70005874:	3401      	adds	r4, #1
70005876:	f7fc fbe9 	bl	7000204c <HAL_GetTick>
7000587a:	1bc0      	subs	r0, r0, r7
7000587c:	3001      	adds	r0, #1
7000587e:	d1e1      	bne.n	70005844 <SD_SwitchSpeed+0x78>
70005880:	f04f 4400 	mov.w	r4, #2147483648	@ 0x80000000
70005884:	2301      	movs	r3, #1
70005886:	6374      	str	r4, [r6, #52]	@ 0x34
70005888:	f886 3030 	strb.w	r3, [r6, #48]	@ 0x30
7000588c:	e7b5      	b.n	700057fa <SD_SwitchSpeed+0x2e>
7000588e:	6b5a      	ldr	r2, [r3, #52]	@ 0x34
70005890:	0791      	lsls	r1, r2, #30
70005892:	d502      	bpl.n	7000589a <SD_SwitchSpeed+0xce>
70005894:	2402      	movs	r4, #2
70005896:	639c      	str	r4, [r3, #56]	@ 0x38
70005898:	e7af      	b.n	700057fa <SD_SwitchSpeed+0x2e>
7000589a:	6b5a      	ldr	r2, [r3, #52]	@ 0x34
7000589c:	0692      	lsls	r2, r2, #26
7000589e:	d501      	bpl.n	700058a4 <SD_SwitchSpeed+0xd8>
700058a0:	2420      	movs	r4, #32
700058a2:	e7f8      	b.n	70005896 <SD_SwitchSpeed+0xca>
700058a4:	f89d 4025 	ldrb.w	r4, [sp, #37]	@ 0x25
700058a8:	4a05      	ldr	r2, [pc, #20]	@ (700058c0 <SD_SwitchSpeed+0xf4>)
700058aa:	f3c4 0440 	ubfx	r4, r4, #1, #1
700058ae:	639a      	str	r2, [r3, #56]	@ 0x38
700058b0:	f084 0401 	eor.w	r4, r4, #1
700058b4:	0724      	lsls	r4, r4, #28
700058b6:	e7a0      	b.n	700057fa <SD_SwitchSpeed+0x2e>
700058b8:	f04f 6480 	mov.w	r4, #67108864	@ 0x4000000
700058bc:	e79d      	b.n	700057fa <SD_SwitchSpeed+0x2e>
700058be:	bf00      	nop
700058c0:	18000f3a 	.word	0x18000f3a

700058c4 <SD_FindSCR.constprop.0>:
700058c4:	e92d 47f0 	stmdb	sp!, {r4, r5, r6, r7, r8, r9, sl, lr}
700058c8:	4605      	mov	r5, r0
700058ca:	b086      	sub	sp, #24
700058cc:	4688      	mov	r8, r1
700058ce:	f7fc fbbd 	bl	7000204c <HAL_GetTick>
700058d2:	2108      	movs	r1, #8
700058d4:	4681      	mov	r9, r0
700058d6:	6828      	ldr	r0, [r5, #0]
700058d8:	f001 f8e6 	bl	70006aa8 <SDMMC_CmdBlockLength>
700058dc:	4604      	mov	r4, r0
700058de:	bb48      	cbnz	r0, 70005934 <SD_FindSCR.constprop.0+0x70>
700058e0:	6c69      	ldr	r1, [r5, #68]	@ 0x44
700058e2:	6828      	ldr	r0, [r5, #0]
700058e4:	0409      	lsls	r1, r1, #16
700058e6:	f001 f9a5 	bl	70006c34 <SDMMC_CmdAppCommand>
700058ea:	4604      	mov	r4, r0
700058ec:	bb10      	cbnz	r0, 70005934 <SD_FindSCR.constprop.0+0x70>
700058ee:	f04f 30ff 	mov.w	r0, #4294967295	@ 0xffffffff
700058f2:	2308      	movs	r3, #8
700058f4:	2630      	movs	r6, #48	@ 0x30
700058f6:	4669      	mov	r1, sp
700058f8:	9404      	str	r4, [sp, #16]
700058fa:	e9cd 0300 	strd	r0, r3, [sp]
700058fe:	2302      	movs	r3, #2
70005900:	6828      	ldr	r0, [r5, #0]
70005902:	e9cd 6302 	strd	r6, r3, [sp, #8]
70005906:	2301      	movs	r3, #1
70005908:	9305      	str	r3, [sp, #20]
7000590a:	f001 f800 	bl	7000690e <SDMMC_ConfigData>
7000590e:	6828      	ldr	r0, [r5, #0]
70005910:	f001 f9c6 	bl	70006ca0 <SDMMC_CmdSendSCR>
70005914:	4604      	mov	r4, r0
70005916:	b968      	cbnz	r0, 70005934 <SD_FindSCR.constprop.0+0x70>
70005918:	4607      	mov	r7, r0
7000591a:	4606      	mov	r6, r0
7000591c:	f240 5a2a 	movw	sl, #1322	@ 0x52a
70005920:	6828      	ldr	r0, [r5, #0]
70005922:	6b43      	ldr	r3, [r0, #52]	@ 0x34
70005924:	ea13 0f0a 	tst.w	r3, sl
70005928:	6b43      	ldr	r3, [r0, #52]	@ 0x34
7000592a:	d007      	beq.n	7000593c <SD_FindSCR.constprop.0+0x78>
7000592c:	071a      	lsls	r2, r3, #28
7000592e:	d519      	bpl.n	70005964 <SD_FindSCR.constprop.0+0xa0>
70005930:	2408      	movs	r4, #8
70005932:	6384      	str	r4, [r0, #56]	@ 0x38
70005934:	4620      	mov	r0, r4
70005936:	b006      	add	sp, #24
70005938:	e8bd 87f0 	ldmia.w	sp!, {r4, r5, r6, r7, r8, r9, sl, pc}
7000593c:	0319      	lsls	r1, r3, #12
7000593e:	d408      	bmi.n	70005952 <SD_FindSCR.constprop.0+0x8e>
70005940:	b93c      	cbnz	r4, 70005952 <SD_FindSCR.constprop.0+0x8e>
70005942:	f000 ffbb 	bl	700068bc <SDMMC_ReadFIFO>
70005946:	4606      	mov	r6, r0
70005948:	6828      	ldr	r0, [r5, #0]
7000594a:	2401      	movs	r4, #1
7000594c:	f000 ffb6 	bl	700068bc <SDMMC_ReadFIFO>
70005950:	4607      	mov	r7, r0
70005952:	f7fc fb7b 	bl	7000204c <HAL_GetTick>
70005956:	eba0 0009 	sub.w	r0, r0, r9
7000595a:	3001      	adds	r0, #1
7000595c:	d1e0      	bne.n	70005920 <SD_FindSCR.constprop.0+0x5c>
7000595e:	f04f 4400 	mov.w	r4, #2147483648	@ 0x80000000
70005962:	e7e7      	b.n	70005934 <SD_FindSCR.constprop.0+0x70>
70005964:	6b43      	ldr	r3, [r0, #52]	@ 0x34
70005966:	079b      	lsls	r3, r3, #30
70005968:	d501      	bpl.n	7000596e <SD_FindSCR.constprop.0+0xaa>
7000596a:	2402      	movs	r4, #2
7000596c:	e7e1      	b.n	70005932 <SD_FindSCR.constprop.0+0x6e>
7000596e:	6b44      	ldr	r4, [r0, #52]	@ 0x34
70005970:	f014 0420 	ands.w	r4, r4, #32
70005974:	d001      	beq.n	7000597a <SD_FindSCR.constprop.0+0xb6>
70005976:	2420      	movs	r4, #32
70005978:	e7db      	b.n	70005932 <SD_FindSCR.constprop.0+0x6e>
7000597a:	4b04      	ldr	r3, [pc, #16]	@ (7000598c <SD_FindSCR.constprop.0+0xc8>)
7000597c:	ba3f      	rev	r7, r7
7000597e:	ba36      	rev	r6, r6
70005980:	6383      	str	r3, [r0, #56]	@ 0x38
70005982:	f8c8 7000 	str.w	r7, [r8]
70005986:	f8c8 6004 	str.w	r6, [r8, #4]
7000598a:	e7d3      	b.n	70005934 <SD_FindSCR.constprop.0+0x70>
7000598c:	18000f3a 	.word	0x18000f3a

70005990 <HAL_SD_MspInit>:
70005990:	4770      	bx	lr
	...

70005994 <HAL_SD_ReadBlocks_DMA>:
70005994:	b5f0      	push	{r4, r5, r6, r7, lr}
70005996:	4604      	mov	r4, r0
70005998:	b087      	sub	sp, #28
7000599a:	4615      	mov	r5, r2
7000599c:	461e      	mov	r6, r3
7000599e:	460f      	mov	r7, r1
700059a0:	b931      	cbnz	r1, 700059b0 <HAL_SD_ReadBlocks_DMA+0x1c>
700059a2:	6b43      	ldr	r3, [r0, #52]	@ 0x34
700059a4:	f043 6300 	orr.w	r3, r3, #134217728	@ 0x8000000
700059a8:	6363      	str	r3, [r4, #52]	@ 0x34
700059aa:	2001      	movs	r0, #1
700059ac:	b007      	add	sp, #28
700059ae:	bdf0      	pop	{r4, r5, r6, r7, pc}
700059b0:	f890 3030 	ldrb.w	r3, [r0, #48]	@ 0x30
700059b4:	2b01      	cmp	r3, #1
700059b6:	d14a      	bne.n	70005a4e <HAL_SD_ReadBlocks_DMA+0xba>
700059b8:	19ab      	adds	r3, r5, r6
700059ba:	6d01      	ldr	r1, [r0, #80]	@ 0x50
700059bc:	2200      	movs	r2, #0
700059be:	428b      	cmp	r3, r1
700059c0:	6342      	str	r2, [r0, #52]	@ 0x34
700059c2:	d903      	bls.n	700059cc <HAL_SD_ReadBlocks_DMA+0x38>
700059c4:	6b43      	ldr	r3, [r0, #52]	@ 0x34
700059c6:	f043 7300 	orr.w	r3, r3, #33554432	@ 0x2000000
700059ca:	e7ed      	b.n	700059a8 <HAL_SD_ReadBlocks_DMA+0x14>
700059cc:	2303      	movs	r3, #3
700059ce:	4669      	mov	r1, sp
700059d0:	f880 3030 	strb.w	r3, [r0, #48]	@ 0x30
700059d4:	0273      	lsls	r3, r6, #9
700059d6:	6800      	ldr	r0, [r0, #0]
700059d8:	62c2      	str	r2, [r0, #44]	@ 0x2c
700059da:	6ba2      	ldr	r2, [r4, #56]	@ 0x38
700059dc:	62a3      	str	r3, [r4, #40]	@ 0x28
700059de:	2a01      	cmp	r2, #1
700059e0:	f04f 32ff 	mov.w	r2, #4294967295	@ 0xffffffff
700059e4:	6267      	str	r7, [r4, #36]	@ 0x24
700059e6:	bf18      	it	ne
700059e8:	026d      	lslne	r5, r5, #9
700059ea:	e9cd 2300 	strd	r2, r3, [sp]
700059ee:	2290      	movs	r2, #144	@ 0x90
700059f0:	2302      	movs	r3, #2
700059f2:	e9cd 2302 	strd	r2, r3, [sp, #8]
700059f6:	2300      	movs	r3, #0
700059f8:	e9cd 3304 	strd	r3, r3, [sp, #16]
700059fc:	f000 ff87 	bl	7000690e <SDMMC_ConfigData>
70005a00:	6820      	ldr	r0, [r4, #0]
70005a02:	68c3      	ldr	r3, [r0, #12]
70005a04:	f043 0340 	orr.w	r3, r3, #64	@ 0x40
70005a08:	60c3      	str	r3, [r0, #12]
70005a0a:	2301      	movs	r3, #1
70005a0c:	6587      	str	r7, [r0, #88]	@ 0x58
70005a0e:	429e      	cmp	r6, r3
70005a10:	6503      	str	r3, [r0, #80]	@ 0x50
70005a12:	d911      	bls.n	70005a38 <HAL_SD_ReadBlocks_DMA+0xa4>
70005a14:	2382      	movs	r3, #130	@ 0x82
70005a16:	4629      	mov	r1, r5
70005a18:	62e3      	str	r3, [r4, #44]	@ 0x2c
70005a1a:	f001 f879 	bl	70006b10 <SDMMC_CmdReadMultiBlock>
70005a1e:	6823      	ldr	r3, [r4, #0]
70005a20:	b180      	cbz	r0, 70005a44 <HAL_SD_ReadBlocks_DMA+0xb0>
70005a22:	4a0c      	ldr	r2, [pc, #48]	@ (70005a54 <HAL_SD_ReadBlocks_DMA+0xc0>)
70005a24:	639a      	str	r2, [r3, #56]	@ 0x38
70005a26:	6b63      	ldr	r3, [r4, #52]	@ 0x34
70005a28:	4303      	orrs	r3, r0
70005a2a:	6363      	str	r3, [r4, #52]	@ 0x34
70005a2c:	2301      	movs	r3, #1
70005a2e:	f884 3030 	strb.w	r3, [r4, #48]	@ 0x30
70005a32:	2300      	movs	r3, #0
70005a34:	62e3      	str	r3, [r4, #44]	@ 0x2c
70005a36:	e7b8      	b.n	700059aa <HAL_SD_ReadBlocks_DMA+0x16>
70005a38:	2381      	movs	r3, #129	@ 0x81
70005a3a:	4629      	mov	r1, r5
70005a3c:	62e3      	str	r3, [r4, #44]	@ 0x2c
70005a3e:	f001 f84d 	bl	70006adc <SDMMC_CmdReadSingleBlock>
70005a42:	e7ec      	b.n	70005a1e <HAL_SD_ReadBlocks_DMA+0x8a>
70005a44:	6bda      	ldr	r2, [r3, #60]	@ 0x3c
70005a46:	f442 7295 	orr.w	r2, r2, #298	@ 0x12a
70005a4a:	63da      	str	r2, [r3, #60]	@ 0x3c
70005a4c:	e7ae      	b.n	700059ac <HAL_SD_ReadBlocks_DMA+0x18>
70005a4e:	2002      	movs	r0, #2
70005a50:	e7ac      	b.n	700059ac <HAL_SD_ReadBlocks_DMA+0x18>
70005a52:	bf00      	nop
70005a54:	1fe00fff 	.word	0x1fe00fff

70005a58 <HAL_SD_WriteBlocks_DMA>:
70005a58:	e92d 41f0 	stmdb	sp!, {r4, r5, r6, r7, r8, lr}
70005a5c:	4604      	mov	r4, r0
70005a5e:	b086      	sub	sp, #24
70005a60:	4615      	mov	r5, r2
70005a62:	461e      	mov	r6, r3
70005a64:	460f      	mov	r7, r1
70005a66:	b939      	cbnz	r1, 70005a78 <HAL_SD_WriteBlocks_DMA+0x20>
70005a68:	6b43      	ldr	r3, [r0, #52]	@ 0x34
70005a6a:	f043 6300 	orr.w	r3, r3, #134217728	@ 0x8000000
70005a6e:	6363      	str	r3, [r4, #52]	@ 0x34
70005a70:	2001      	movs	r0, #1
70005a72:	b006      	add	sp, #24
70005a74:	e8bd 81f0 	ldmia.w	sp!, {r4, r5, r6, r7, r8, pc}
70005a78:	f890 3030 	ldrb.w	r3, [r0, #48]	@ 0x30
70005a7c:	2b01      	cmp	r3, #1
70005a7e:	d14a      	bne.n	70005b16 <HAL_SD_WriteBlocks_DMA+0xbe>
70005a80:	19ab      	adds	r3, r5, r6
70005a82:	6d01      	ldr	r1, [r0, #80]	@ 0x50
70005a84:	2200      	movs	r2, #0
70005a86:	428b      	cmp	r3, r1
70005a88:	6342      	str	r2, [r0, #52]	@ 0x34
70005a8a:	d903      	bls.n	70005a94 <HAL_SD_WriteBlocks_DMA+0x3c>
70005a8c:	6b43      	ldr	r3, [r0, #52]	@ 0x34
70005a8e:	f043 7300 	orr.w	r3, r3, #33554432	@ 0x2000000
70005a92:	e7ec      	b.n	70005a6e <HAL_SD_WriteBlocks_DMA+0x16>
70005a94:	2303      	movs	r3, #3
70005a96:	f04f 0890 	mov.w	r8, #144	@ 0x90
70005a9a:	4669      	mov	r1, sp
70005a9c:	f880 3030 	strb.w	r3, [r0, #48]	@ 0x30
70005aa0:	0273      	lsls	r3, r6, #9
70005aa2:	6800      	ldr	r0, [r0, #0]
70005aa4:	62c2      	str	r2, [r0, #44]	@ 0x2c
70005aa6:	6ba2      	ldr	r2, [r4, #56]	@ 0x38
70005aa8:	6223      	str	r3, [r4, #32]
70005aaa:	2a01      	cmp	r2, #1
70005aac:	f04f 32ff 	mov.w	r2, #4294967295	@ 0xffffffff
70005ab0:	61e7      	str	r7, [r4, #28]
70005ab2:	bf18      	it	ne
70005ab4:	026d      	lslne	r5, r5, #9
70005ab6:	e9cd 2300 	strd	r2, r3, [sp]
70005aba:	2300      	movs	r3, #0
70005abc:	e9cd 8302 	strd	r8, r3, [sp, #8]
70005ac0:	e9cd 3304 	strd	r3, r3, [sp, #16]
70005ac4:	f000 ff23 	bl	7000690e <SDMMC_ConfigData>
70005ac8:	6820      	ldr	r0, [r4, #0]
70005aca:	68c3      	ldr	r3, [r0, #12]
70005acc:	f043 0340 	orr.w	r3, r3, #64	@ 0x40
70005ad0:	60c3      	str	r3, [r0, #12]
70005ad2:	2301      	movs	r3, #1
70005ad4:	6587      	str	r7, [r0, #88]	@ 0x58
70005ad6:	429e      	cmp	r6, r3
70005ad8:	6503      	str	r3, [r0, #80]	@ 0x50
70005ada:	d911      	bls.n	70005b00 <HAL_SD_WriteBlocks_DMA+0xa8>
70005adc:	23a0      	movs	r3, #160	@ 0xa0
70005ade:	4629      	mov	r1, r5
70005ae0:	62e3      	str	r3, [r4, #44]	@ 0x2c
70005ae2:	f001 f849 	bl	70006b78 <SDMMC_CmdWriteMultiBlock>
70005ae6:	6823      	ldr	r3, [r4, #0]
70005ae8:	b180      	cbz	r0, 70005b0c <HAL_SD_WriteBlocks_DMA+0xb4>
70005aea:	4a0c      	ldr	r2, [pc, #48]	@ (70005b1c <HAL_SD_WriteBlocks_DMA+0xc4>)
70005aec:	639a      	str	r2, [r3, #56]	@ 0x38
70005aee:	6b63      	ldr	r3, [r4, #52]	@ 0x34
70005af0:	4303      	orrs	r3, r0
70005af2:	6363      	str	r3, [r4, #52]	@ 0x34
70005af4:	2301      	movs	r3, #1
70005af6:	f884 3030 	strb.w	r3, [r4, #48]	@ 0x30
70005afa:	2300      	movs	r3, #0
70005afc:	62e3      	str	r3, [r4, #44]	@ 0x2c
70005afe:	e7b7      	b.n	70005a70 <HAL_SD_WriteBlocks_DMA+0x18>
70005b00:	4629      	mov	r1, r5
70005b02:	f8c4 802c 	str.w	r8, [r4, #44]	@ 0x2c
70005b06:	f001 f81d 	bl	70006b44 <SDMMC_CmdWriteSingleBlock>
70005b0a:	e7ec      	b.n	70005ae6 <HAL_SD_WriteBlocks_DMA+0x8e>
70005b0c:	6bda      	ldr	r2, [r3, #60]	@ 0x3c
70005b0e:	f442 728d 	orr.w	r2, r2, #282	@ 0x11a
70005b12:	63da      	str	r2, [r3, #60]	@ 0x3c
70005b14:	e7ad      	b.n	70005a72 <HAL_SD_WriteBlocks_DMA+0x1a>
70005b16:	2002      	movs	r0, #2
70005b18:	e7ab      	b.n	70005a72 <HAL_SD_WriteBlocks_DMA+0x1a>
70005b1a:	bf00      	nop
70005b1c:	1fe00fff 	.word	0x1fe00fff

70005b20 <HAL_SD_ErrorCallback>:
70005b20:	4770      	bx	lr
	...

70005b24 <HAL_SD_GetCardCSD>:
70005b24:	6dc2      	ldr	r2, [r0, #92]	@ 0x5c
70005b26:	4603      	mov	r3, r0
70005b28:	0f90      	lsrs	r0, r2, #30
70005b2a:	b530      	push	{r4, r5, lr}
70005b2c:	7008      	strb	r0, [r1, #0]
70005b2e:	f3c2 6083 	ubfx	r0, r2, #26, #4
70005b32:	7048      	strb	r0, [r1, #1]
70005b34:	f3c2 6001 	ubfx	r0, r2, #24, #2
70005b38:	7088      	strb	r0, [r1, #2]
70005b3a:	f3c2 4007 	ubfx	r0, r2, #16, #8
70005b3e:	70c8      	strb	r0, [r1, #3]
70005b40:	f3c2 2007 	ubfx	r0, r2, #8, #8
70005b44:	b2d2      	uxtb	r2, r2
70005b46:	7108      	strb	r0, [r1, #4]
70005b48:	714a      	strb	r2, [r1, #5]
70005b4a:	6e1a      	ldr	r2, [r3, #96]	@ 0x60
70005b4c:	0d10      	lsrs	r0, r2, #20
70005b4e:	80c8      	strh	r0, [r1, #6]
70005b50:	f3c2 4003 	ubfx	r0, r2, #16, #4
70005b54:	7208      	strb	r0, [r1, #8]
70005b56:	f3c2 30c0 	ubfx	r0, r2, #15, #1
70005b5a:	7248      	strb	r0, [r1, #9]
70005b5c:	f3c2 3080 	ubfx	r0, r2, #14, #1
70005b60:	7288      	strb	r0, [r1, #10]
70005b62:	f3c2 3040 	ubfx	r0, r2, #13, #1
70005b66:	72c8      	strb	r0, [r1, #11]
70005b68:	f3c2 3000 	ubfx	r0, r2, #12, #1
70005b6c:	7308      	strb	r0, [r1, #12]
70005b6e:	2000      	movs	r0, #0
70005b70:	7348      	strb	r0, [r1, #13]
70005b72:	6b98      	ldr	r0, [r3, #56]	@ 0x38
70005b74:	2800      	cmp	r0, #0
70005b76:	d16a      	bne.n	70005c4e <HAL_SD_GetCardCSD+0x12a>
70005b78:	f640 74fc 	movw	r4, #4092	@ 0xffc
70005b7c:	6e58      	ldr	r0, [r3, #100]	@ 0x64
70005b7e:	ea04 0282 	and.w	r2, r4, r2, lsl #2
70005b82:	ea42 7290 	orr.w	r2, r2, r0, lsr #30
70005b86:	610a      	str	r2, [r1, #16]
70005b88:	f3c0 62c2 	ubfx	r2, r0, #27, #3
70005b8c:	750a      	strb	r2, [r1, #20]
70005b8e:	f3c0 6202 	ubfx	r2, r0, #24, #3
70005b92:	754a      	strb	r2, [r1, #21]
70005b94:	f3c0 5242 	ubfx	r2, r0, #21, #3
70005b98:	758a      	strb	r2, [r1, #22]
70005b9a:	f3c0 4282 	ubfx	r2, r0, #18, #3
70005b9e:	75ca      	strb	r2, [r1, #23]
70005ba0:	f3c0 32c2 	ubfx	r2, r0, #15, #3
70005ba4:	760a      	strb	r2, [r1, #24]
70005ba6:	690c      	ldr	r4, [r1, #16]
70005ba8:	7e0a      	ldrb	r2, [r1, #24]
70005baa:	3401      	adds	r4, #1
70005bac:	f002 0207 	and.w	r2, r2, #7
70005bb0:	3202      	adds	r2, #2
70005bb2:	4094      	lsls	r4, r2
70005bb4:	2201      	movs	r2, #1
70005bb6:	649c      	str	r4, [r3, #72]	@ 0x48
70005bb8:	7a0d      	ldrb	r5, [r1, #8]
70005bba:	f005 050f 	and.w	r5, r5, #15
70005bbe:	40aa      	lsls	r2, r5
70005bc0:	64da      	str	r2, [r3, #76]	@ 0x4c
70005bc2:	0a52      	lsrs	r2, r2, #9
70005bc4:	4362      	muls	r2, r4
70005bc6:	651a      	str	r2, [r3, #80]	@ 0x50
70005bc8:	f44f 7200 	mov.w	r2, #512	@ 0x200
70005bcc:	655a      	str	r2, [r3, #84]	@ 0x54
70005bce:	f3c0 3280 	ubfx	r2, r0, #14, #1
70005bd2:	764a      	strb	r2, [r1, #25]
70005bd4:	f3c0 12c6 	ubfx	r2, r0, #7, #7
70005bd8:	f000 007f 	and.w	r0, r0, #127	@ 0x7f
70005bdc:	768a      	strb	r2, [r1, #26]
70005bde:	76c8      	strb	r0, [r1, #27]
70005be0:	2000      	movs	r0, #0
70005be2:	6e9b      	ldr	r3, [r3, #104]	@ 0x68
70005be4:	0fda      	lsrs	r2, r3, #31
70005be6:	770a      	strb	r2, [r1, #28]
70005be8:	f3c3 7241 	ubfx	r2, r3, #29, #2
70005bec:	774a      	strb	r2, [r1, #29]
70005bee:	f3c3 6282 	ubfx	r2, r3, #26, #3
70005bf2:	778a      	strb	r2, [r1, #30]
70005bf4:	f3c3 5283 	ubfx	r2, r3, #22, #4
70005bf8:	77ca      	strb	r2, [r1, #31]
70005bfa:	f3c3 5240 	ubfx	r2, r3, #21, #1
70005bfe:	f881 2020 	strb.w	r2, [r1, #32]
70005c02:	f3c3 4200 	ubfx	r2, r3, #16, #1
70005c06:	f881 0021 	strb.w	r0, [r1, #33]	@ 0x21
70005c0a:	f881 2022 	strb.w	r2, [r1, #34]	@ 0x22
70005c0e:	f3c3 32c0 	ubfx	r2, r3, #15, #1
70005c12:	f881 2023 	strb.w	r2, [r1, #35]	@ 0x23
70005c16:	f3c3 3280 	ubfx	r2, r3, #14, #1
70005c1a:	f881 2024 	strb.w	r2, [r1, #36]	@ 0x24
70005c1e:	f3c3 3240 	ubfx	r2, r3, #13, #1
70005c22:	f881 2025 	strb.w	r2, [r1, #37]	@ 0x25
70005c26:	f3c3 3200 	ubfx	r2, r3, #12, #1
70005c2a:	f881 2026 	strb.w	r2, [r1, #38]	@ 0x26
70005c2e:	f3c3 2281 	ubfx	r2, r3, #10, #2
70005c32:	f881 2027 	strb.w	r2, [r1, #39]	@ 0x27
70005c36:	f3c3 2201 	ubfx	r2, r3, #8, #2
70005c3a:	f3c3 0346 	ubfx	r3, r3, #1, #7
70005c3e:	f881 2028 	strb.w	r2, [r1, #40]	@ 0x28
70005c42:	f881 3029 	strb.w	r3, [r1, #41]	@ 0x29
70005c46:	2301      	movs	r3, #1
70005c48:	f881 302a 	strb.w	r3, [r1, #42]	@ 0x2a
70005c4c:	e01b      	b.n	70005c86 <HAL_SD_GetCardCSD+0x162>
70005c4e:	2801      	cmp	r0, #1
70005c50:	d10f      	bne.n	70005c72 <HAL_SD_GetCardCSD+0x14e>
70005c52:	0412      	lsls	r2, r2, #16
70005c54:	6e58      	ldr	r0, [r3, #100]	@ 0x64
70005c56:	f402 127c 	and.w	r2, r2, #4128768	@ 0x3f0000
70005c5a:	ea42 4210 	orr.w	r2, r2, r0, lsr #16
70005c5e:	610a      	str	r2, [r1, #16]
70005c60:	690a      	ldr	r2, [r1, #16]
70005c62:	3201      	adds	r2, #1
70005c64:	0292      	lsls	r2, r2, #10
70005c66:	649a      	str	r2, [r3, #72]	@ 0x48
70005c68:	651a      	str	r2, [r3, #80]	@ 0x50
70005c6a:	f44f 7200 	mov.w	r2, #512	@ 0x200
70005c6e:	64da      	str	r2, [r3, #76]	@ 0x4c
70005c70:	e7aa      	b.n	70005bc8 <HAL_SD_GetCardCSD+0xa4>
70005c72:	681a      	ldr	r2, [r3, #0]
70005c74:	2001      	movs	r0, #1
70005c76:	4904      	ldr	r1, [pc, #16]	@ (70005c88 <HAL_SD_GetCardCSD+0x164>)
70005c78:	6391      	str	r1, [r2, #56]	@ 0x38
70005c7a:	6b5a      	ldr	r2, [r3, #52]	@ 0x34
70005c7c:	f042 5280 	orr.w	r2, r2, #268435456	@ 0x10000000
70005c80:	635a      	str	r2, [r3, #52]	@ 0x34
70005c82:	f883 0030 	strb.w	r0, [r3, #48]	@ 0x30
70005c86:	bd30      	pop	{r4, r5, pc}
70005c88:	1fe00fff 	.word	0x1fe00fff

70005c8c <HAL_SD_InitCard>:
70005c8c:	b5f0      	push	{r4, r5, r6, r7, lr}
70005c8e:	b095      	sub	sp, #84	@ 0x54
70005c90:	2214      	movs	r2, #20
70005c92:	2100      	movs	r1, #0
70005c94:	4604      	mov	r4, r0
70005c96:	af04      	add	r7, sp, #16
70005c98:	4638      	mov	r0, r7
70005c9a:	f003 fec9 	bl	70009a30 <memset>
70005c9e:	f44f 1000 	mov.w	r0, #2097152	@ 0x200000
70005ca2:	f7ff f829 	bl	70004cf8 <HAL_RCCEx_GetPeriphCLKFreq>
70005ca6:	4605      	mov	r5, r0
70005ca8:	b948      	cbnz	r0, 70005cbe <HAL_SD_InitCard+0x32>
70005caa:	2301      	movs	r3, #1
70005cac:	f884 3030 	strb.w	r3, [r4, #48]	@ 0x30
70005cb0:	f04f 6300 	mov.w	r3, #134217728	@ 0x8000000
70005cb4:	6363      	str	r3, [r4, #52]	@ 0x34
70005cb6:	2501      	movs	r5, #1
70005cb8:	4628      	mov	r0, r5
70005cba:	b015      	add	sp, #84	@ 0x54
70005cbc:	bdf0      	pop	{r4, r5, r6, r7, pc}
70005cbe:	4e7a      	ldr	r6, [pc, #488]	@ (70005ea8 <HAL_SD_InitCard+0x21c>)
70005cc0:	fbb0 f6f6 	udiv	r6, r0, r6
70005cc4:	9807      	ldr	r0, [sp, #28]
70005cc6:	4631      	mov	r1, r6
70005cc8:	9608      	str	r6, [sp, #32]
70005cca:	e88d 0003 	stmia.w	sp, {r0, r1}
70005cce:	e897 000e 	ldmia.w	r7, {r1, r2, r3}
70005cd2:	6820      	ldr	r0, [r4, #0]
70005cd4:	f000 fdd8 	bl	70006888 <SDMMC_Init>
70005cd8:	6820      	ldr	r0, [r4, #0]
70005cda:	f000 fdf7 	bl	700068cc <SDMMC_PowerState_ON>
70005cde:	4b73      	ldr	r3, [pc, #460]	@ (70005eac <HAL_SD_InitCard+0x220>)
70005ce0:	4873      	ldr	r0, [pc, #460]	@ (70005eb0 <HAL_SD_InitCard+0x224>)
70005ce2:	429d      	cmp	r5, r3
70005ce4:	bf84      	itt	hi
70005ce6:	0076      	lslhi	r6, r6, #1
70005ce8:	fbb5 f5f6 	udivhi	r5, r5, r6
70005cec:	fbb0 f0f5 	udiv	r0, r0, r5
70005cf0:	3001      	adds	r0, #1
70005cf2:	f7fc f9b1 	bl	70002058 <HAL_Delay>
70005cf6:	2300      	movs	r3, #0
70005cf8:	6820      	ldr	r0, [r4, #0]
70005cfa:	9303      	str	r3, [sp, #12]
70005cfc:	f000 fe1a 	bl	70006934 <SDMMC_CmdGoIdleState>
70005d00:	4605      	mov	r5, r0
70005d02:	b9a0      	cbnz	r0, 70005d2e <HAL_SD_InitCard+0xa2>
70005d04:	6820      	ldr	r0, [r4, #0]
70005d06:	f001 f931 	bl	70006f6c <SDMMC_CmdOperCond>
70005d0a:	2804      	cmp	r0, #4
70005d0c:	d106      	bne.n	70005d1c <HAL_SD_InitCard+0x90>
70005d0e:	6820      	ldr	r0, [r4, #0]
70005d10:	63e5      	str	r5, [r4, #60]	@ 0x3c
70005d12:	f000 fe0f 	bl	70006934 <SDMMC_CmdGoIdleState>
70005d16:	b180      	cbz	r0, 70005d3a <HAL_SD_InitCard+0xae>
70005d18:	4605      	mov	r5, r0
70005d1a:	e008      	b.n	70005d2e <HAL_SD_InitCard+0xa2>
70005d1c:	2301      	movs	r3, #1
70005d1e:	63e3      	str	r3, [r4, #60]	@ 0x3c
70005d20:	2100      	movs	r1, #0
70005d22:	6820      	ldr	r0, [r4, #0]
70005d24:	f000 ff86 	bl	70006c34 <SDMMC_CmdAppCommand>
70005d28:	b150      	cbz	r0, 70005d40 <HAL_SD_InitCard+0xb4>
70005d2a:	f04f 5580 	mov.w	r5, #268435456	@ 0x10000000
70005d2e:	2301      	movs	r3, #1
70005d30:	f884 3030 	strb.w	r3, [r4, #48]	@ 0x30
70005d34:	6b63      	ldr	r3, [r4, #52]	@ 0x34
70005d36:	432b      	orrs	r3, r5
70005d38:	e7bc      	b.n	70005cb4 <HAL_SD_InitCard+0x28>
70005d3a:	6be3      	ldr	r3, [r4, #60]	@ 0x3c
70005d3c:	2b01      	cmp	r3, #1
70005d3e:	d0ef      	beq.n	70005d20 <HAL_SD_InitCard+0x94>
70005d40:	2100      	movs	r1, #0
70005d42:	f64f 76fe 	movw	r6, #65534	@ 0xfffe
70005d46:	e014      	b.n	70005d72 <HAL_SD_InitCard+0xe6>
70005d48:	6820      	ldr	r0, [r4, #0]
70005d4a:	f000 ff73 	bl	70006c34 <SDMMC_CmdAppCommand>
70005d4e:	4605      	mov	r5, r0
70005d50:	2800      	cmp	r0, #0
70005d52:	d1ec      	bne.n	70005d2e <HAL_SD_InitCard+0xa2>
70005d54:	4957      	ldr	r1, [pc, #348]	@ (70005eb4 <HAL_SD_InitCard+0x228>)
70005d56:	6820      	ldr	r0, [r4, #0]
70005d58:	f001 f86a 	bl	70006e30 <SDMMC_CmdAppOperCommand>
70005d5c:	2800      	cmp	r0, #0
70005d5e:	d1e4      	bne.n	70005d2a <HAL_SD_InitCard+0x9e>
70005d60:	4629      	mov	r1, r5
70005d62:	6820      	ldr	r0, [r4, #0]
70005d64:	f000 fdd0 	bl	70006908 <SDMMC_GetResponse>
70005d68:	9b03      	ldr	r3, [sp, #12]
70005d6a:	4605      	mov	r5, r0
70005d6c:	0fc1      	lsrs	r1, r0, #31
70005d6e:	3301      	adds	r3, #1
70005d70:	9303      	str	r3, [sp, #12]
70005d72:	9b03      	ldr	r3, [sp, #12]
70005d74:	42b3      	cmp	r3, r6
70005d76:	d801      	bhi.n	70005d7c <HAL_SD_InitCard+0xf0>
70005d78:	2900      	cmp	r1, #0
70005d7a:	d0e5      	beq.n	70005d48 <HAL_SD_InitCard+0xbc>
70005d7c:	9b03      	ldr	r3, [sp, #12]
70005d7e:	42b3      	cmp	r3, r6
70005d80:	d814      	bhi.n	70005dac <HAL_SD_InitCard+0x120>
70005d82:	f3c5 7580 	ubfx	r5, r5, #30, #1
70005d86:	2300      	movs	r3, #0
70005d88:	63a5      	str	r5, [r4, #56]	@ 0x38
70005d8a:	f8ad 300a 	strh.w	r3, [sp, #10]
70005d8e:	f7fc f95d 	bl	7000204c <HAL_GetTick>
70005d92:	4605      	mov	r5, r0
70005d94:	6820      	ldr	r0, [r4, #0]
70005d96:	f000 fd9f 	bl	700068d8 <SDMMC_GetPowerState>
70005d9a:	b950      	cbnz	r0, 70005db2 <HAL_SD_InitCard+0x126>
70005d9c:	f04f 6180 	mov.w	r1, #67108864	@ 0x4000000
70005da0:	2301      	movs	r3, #1
70005da2:	f884 3030 	strb.w	r3, [r4, #48]	@ 0x30
70005da6:	6b63      	ldr	r3, [r4, #52]	@ 0x34
70005da8:	430b      	orrs	r3, r1
70005daa:	e783      	b.n	70005cb4 <HAL_SD_InitCard+0x28>
70005dac:	f04f 7580 	mov.w	r5, #16777216	@ 0x1000000
70005db0:	e7bd      	b.n	70005d2e <HAL_SD_InitCard+0xa2>
70005db2:	6ba3      	ldr	r3, [r4, #56]	@ 0x38
70005db4:	2b03      	cmp	r3, #3
70005db6:	d03e      	beq.n	70005e36 <HAL_SD_InitCard+0x1aa>
70005db8:	6820      	ldr	r0, [r4, #0]
70005dba:	f000 ffe7 	bl	70006d8c <SDMMC_CmdSendCID>
70005dbe:	4601      	mov	r1, r0
70005dc0:	2800      	cmp	r0, #0
70005dc2:	d1ed      	bne.n	70005da0 <HAL_SD_InitCard+0x114>
70005dc4:	6820      	ldr	r0, [r4, #0]
70005dc6:	f000 fd9f 	bl	70006908 <SDMMC_GetResponse>
70005dca:	2104      	movs	r1, #4
70005dcc:	66e0      	str	r0, [r4, #108]	@ 0x6c
70005dce:	6820      	ldr	r0, [r4, #0]
70005dd0:	f000 fd9a 	bl	70006908 <SDMMC_GetResponse>
70005dd4:	2108      	movs	r1, #8
70005dd6:	6720      	str	r0, [r4, #112]	@ 0x70
70005dd8:	6820      	ldr	r0, [r4, #0]
70005dda:	f000 fd95 	bl	70006908 <SDMMC_GetResponse>
70005dde:	210c      	movs	r1, #12
70005de0:	6760      	str	r0, [r4, #116]	@ 0x74
70005de2:	6820      	ldr	r0, [r4, #0]
70005de4:	f000 fd90 	bl	70006908 <SDMMC_GetResponse>
70005de8:	6ba3      	ldr	r3, [r4, #56]	@ 0x38
70005dea:	67a0      	str	r0, [r4, #120]	@ 0x78
70005dec:	2b03      	cmp	r3, #3
70005dee:	d022      	beq.n	70005e36 <HAL_SD_InitCard+0x1aa>
70005df0:	f241 3687 	movw	r6, #4999	@ 0x1387
70005df4:	f8bd 100a 	ldrh.w	r1, [sp, #10]
70005df8:	6820      	ldr	r0, [r4, #0]
70005dfa:	b359      	cbz	r1, 70005e54 <HAL_SD_InitCard+0x1c8>
70005dfc:	6ba3      	ldr	r3, [r4, #56]	@ 0x38
70005dfe:	2b03      	cmp	r3, #3
70005e00:	d019      	beq.n	70005e36 <HAL_SD_InitCard+0x1aa>
70005e02:	6461      	str	r1, [r4, #68]	@ 0x44
70005e04:	0409      	lsls	r1, r1, #16
70005e06:	f000 ffd8 	bl	70006dba <SDMMC_CmdSendCSD>
70005e0a:	4601      	mov	r1, r0
70005e0c:	2800      	cmp	r0, #0
70005e0e:	d1c7      	bne.n	70005da0 <HAL_SD_InitCard+0x114>
70005e10:	6820      	ldr	r0, [r4, #0]
70005e12:	f000 fd79 	bl	70006908 <SDMMC_GetResponse>
70005e16:	2104      	movs	r1, #4
70005e18:	65e0      	str	r0, [r4, #92]	@ 0x5c
70005e1a:	6820      	ldr	r0, [r4, #0]
70005e1c:	f000 fd74 	bl	70006908 <SDMMC_GetResponse>
70005e20:	2108      	movs	r1, #8
70005e22:	6620      	str	r0, [r4, #96]	@ 0x60
70005e24:	6820      	ldr	r0, [r4, #0]
70005e26:	f000 fd6f 	bl	70006908 <SDMMC_GetResponse>
70005e2a:	210c      	movs	r1, #12
70005e2c:	6660      	str	r0, [r4, #100]	@ 0x64
70005e2e:	6820      	ldr	r0, [r4, #0]
70005e30:	f000 fd6a 	bl	70006908 <SDMMC_GetResponse>
70005e34:	66a0      	str	r0, [r4, #104]	@ 0x68
70005e36:	2104      	movs	r1, #4
70005e38:	6820      	ldr	r0, [r4, #0]
70005e3a:	f000 fd65 	bl	70006908 <SDMMC_GetResponse>
70005e3e:	a909      	add	r1, sp, #36	@ 0x24
70005e40:	0d00      	lsrs	r0, r0, #20
70005e42:	6420      	str	r0, [r4, #64]	@ 0x40
70005e44:	4620      	mov	r0, r4
70005e46:	f7ff fe6d 	bl	70005b24 <HAL_SD_GetCardCSD>
70005e4a:	4605      	mov	r5, r0
70005e4c:	b188      	cbz	r0, 70005e72 <HAL_SD_InitCard+0x1e6>
70005e4e:	f04f 5180 	mov.w	r1, #268435456	@ 0x10000000
70005e52:	e7a5      	b.n	70005da0 <HAL_SD_InitCard+0x114>
70005e54:	f10d 010a 	add.w	r1, sp, #10
70005e58:	f001 f844 	bl	70006ee4 <SDMMC_CmdSetRelAdd>
70005e5c:	4601      	mov	r1, r0
70005e5e:	2800      	cmp	r0, #0
70005e60:	d19e      	bne.n	70005da0 <HAL_SD_InitCard+0x114>
70005e62:	f7fc f8f3 	bl	7000204c <HAL_GetTick>
70005e66:	1b40      	subs	r0, r0, r5
70005e68:	42b0      	cmp	r0, r6
70005e6a:	d9c3      	bls.n	70005df4 <HAL_SD_InitCard+0x168>
70005e6c:	f04f 4100 	mov.w	r1, #2147483648	@ 0x80000000
70005e70:	e796      	b.n	70005da0 <HAL_SD_InitCard+0x114>
70005e72:	6c61      	ldr	r1, [r4, #68]	@ 0x44
70005e74:	6820      	ldr	r0, [r4, #0]
70005e76:	0409      	lsls	r1, r1, #16
70005e78:	f000 fec2 	bl	70006c00 <SDMMC_CmdSelDesel>
70005e7c:	4601      	mov	r1, r0
70005e7e:	2800      	cmp	r0, #0
70005e80:	d18e      	bne.n	70005da0 <HAL_SD_InitCard+0x114>
70005e82:	f44f 7100 	mov.w	r1, #512	@ 0x200
70005e86:	6820      	ldr	r0, [r4, #0]
70005e88:	f000 fe0e 	bl	70006aa8 <SDMMC_CmdBlockLength>
70005e8c:	2800      	cmp	r0, #0
70005e8e:	f43f af13 	beq.w	70005cb8 <HAL_SD_InitCard+0x2c>
70005e92:	6823      	ldr	r3, [r4, #0]
70005e94:	4a08      	ldr	r2, [pc, #32]	@ (70005eb8 <HAL_SD_InitCard+0x22c>)
70005e96:	639a      	str	r2, [r3, #56]	@ 0x38
70005e98:	6b63      	ldr	r3, [r4, #52]	@ 0x34
70005e9a:	4303      	orrs	r3, r0
70005e9c:	6363      	str	r3, [r4, #52]	@ 0x34
70005e9e:	2301      	movs	r3, #1
70005ea0:	f884 3030 	strb.w	r3, [r4, #48]	@ 0x30
70005ea4:	e707      	b.n	70005cb6 <HAL_SD_InitCard+0x2a>
70005ea6:	bf00      	nop
70005ea8:	000c3500 	.word	0x000c3500
70005eac:	000c34ff 	.word	0x000c34ff
70005eb0:	00012110 	.word	0x00012110
70005eb4:	c1100000 	.word	0xc1100000
70005eb8:	1fe00fff 	.word	0x1fe00fff

70005ebc <HAL_SD_GetCardStatus>:
70005ebc:	e92d 41f0 	stmdb	sp!, {r4, r5, r6, r7, r8, lr}
70005ec0:	f890 3030 	ldrb.w	r3, [r0, #48]	@ 0x30
70005ec4:	b096      	sub	sp, #88	@ 0x58
70005ec6:	4604      	mov	r4, r0
70005ec8:	460d      	mov	r5, r1
70005eca:	2b03      	cmp	r3, #3
70005ecc:	f000 80ad 	beq.w	7000602a <HAL_SD_GetCardStatus+0x16e>
70005ed0:	f7fc f8bc 	bl	7000204c <HAL_GetTick>
70005ed4:	2100      	movs	r1, #0
70005ed6:	4606      	mov	r6, r0
70005ed8:	6820      	ldr	r0, [r4, #0]
70005eda:	f000 fd15 	bl	70006908 <SDMMC_GetResponse>
70005ede:	0183      	lsls	r3, r0, #6
70005ee0:	f100 80a8 	bmi.w	70006034 <HAL_SD_GetCardStatus+0x178>
70005ee4:	2140      	movs	r1, #64	@ 0x40
70005ee6:	6820      	ldr	r0, [r4, #0]
70005ee8:	f000 fdde 	bl	70006aa8 <SDMMC_CmdBlockLength>
70005eec:	4603      	mov	r3, r0
70005eee:	b158      	cbz	r0, 70005f08 <HAL_SD_GetCardStatus+0x4c>
70005ef0:	6b62      	ldr	r2, [r4, #52]	@ 0x34
70005ef2:	6362      	str	r2, [r4, #52]	@ 0x34
70005ef4:	4a53      	ldr	r2, [pc, #332]	@ (70006044 <HAL_SD_GetCardStatus+0x188>)
70005ef6:	2501      	movs	r5, #1
70005ef8:	6820      	ldr	r0, [r4, #0]
70005efa:	6382      	str	r2, [r0, #56]	@ 0x38
70005efc:	6b62      	ldr	r2, [r4, #52]	@ 0x34
70005efe:	4313      	orrs	r3, r2
70005f00:	6363      	str	r3, [r4, #52]	@ 0x34
70005f02:	f884 5030 	strb.w	r5, [r4, #48]	@ 0x30
70005f06:	e084      	b.n	70006012 <HAL_SD_GetCardStatus+0x156>
70005f08:	6c61      	ldr	r1, [r4, #68]	@ 0x44
70005f0a:	6820      	ldr	r0, [r4, #0]
70005f0c:	0409      	lsls	r1, r1, #16
70005f0e:	f000 fe91 	bl	70006c34 <SDMMC_CmdAppCommand>
70005f12:	4603      	mov	r3, r0
70005f14:	2800      	cmp	r0, #0
70005f16:	d1eb      	bne.n	70005ef0 <HAL_SD_GetCardStatus+0x34>
70005f18:	2240      	movs	r2, #64	@ 0x40
70005f1a:	f04f 37ff 	mov.w	r7, #4294967295	@ 0xffffffff
70005f1e:	2301      	movs	r3, #1
70005f20:	f04f 0c60 	mov.w	ip, #96	@ 0x60
70005f24:	4669      	mov	r1, sp
70005f26:	9004      	str	r0, [sp, #16]
70005f28:	6820      	ldr	r0, [r4, #0]
70005f2a:	9305      	str	r3, [sp, #20]
70005f2c:	e9cd 7200 	strd	r7, r2, [sp]
70005f30:	2202      	movs	r2, #2
70005f32:	e9cd c202 	strd	ip, r2, [sp, #8]
70005f36:	f000 fcea 	bl	7000690e <SDMMC_ConfigData>
70005f3a:	6820      	ldr	r0, [r4, #0]
70005f3c:	f000 fee4 	bl	70006d08 <SDMMC_CmdStatusRegister>
70005f40:	4603      	mov	r3, r0
70005f42:	2800      	cmp	r0, #0
70005f44:	d1d4      	bne.n	70005ef0 <HAL_SD_GetCardStatus+0x34>
70005f46:	af06      	add	r7, sp, #24
70005f48:	6823      	ldr	r3, [r4, #0]
70005f4a:	6b5a      	ldr	r2, [r3, #52]	@ 0x34
70005f4c:	f412 7f95 	tst.w	r2, #298	@ 0x12a
70005f50:	d00a      	beq.n	70005f68 <HAL_SD_GetCardStatus+0xac>
70005f52:	6b5a      	ldr	r2, [r3, #52]	@ 0x34
70005f54:	0711      	lsls	r1, r2, #28
70005f56:	d470      	bmi.n	7000603a <HAL_SD_GetCardStatus+0x17e>
70005f58:	6b5a      	ldr	r2, [r3, #52]	@ 0x34
70005f5a:	0792      	lsls	r2, r2, #30
70005f5c:	d46f      	bmi.n	7000603e <HAL_SD_GetCardStatus+0x182>
70005f5e:	6b5b      	ldr	r3, [r3, #52]	@ 0x34
70005f60:	069b      	lsls	r3, r3, #26
70005f62:	d51e      	bpl.n	70005fa2 <HAL_SD_GetCardStatus+0xe6>
70005f64:	2320      	movs	r3, #32
70005f66:	e7c5      	b.n	70005ef4 <HAL_SD_GetCardStatus+0x38>
70005f68:	6b5b      	ldr	r3, [r3, #52]	@ 0x34
70005f6a:	0418      	lsls	r0, r3, #16
70005f6c:	d508      	bpl.n	70005f80 <HAL_SD_GetCardStatus+0xc4>
70005f6e:	f107 0820 	add.w	r8, r7, #32
70005f72:	6820      	ldr	r0, [r4, #0]
70005f74:	f000 fca2 	bl	700068bc <SDMMC_ReadFIFO>
70005f78:	f847 0b04 	str.w	r0, [r7], #4
70005f7c:	4547      	cmp	r7, r8
70005f7e:	d1f8      	bne.n	70005f72 <HAL_SD_GetCardStatus+0xb6>
70005f80:	f7fc f864 	bl	7000204c <HAL_GetTick>
70005f84:	1b80      	subs	r0, r0, r6
70005f86:	3001      	adds	r0, #1
70005f88:	d1de      	bne.n	70005f48 <HAL_SD_GetCardStatus+0x8c>
70005f8a:	f04f 4300 	mov.w	r3, #2147483648	@ 0x80000000
70005f8e:	e7b1      	b.n	70005ef4 <HAL_SD_GetCardStatus+0x38>
70005f90:	f000 fc94 	bl	700068bc <SDMMC_ReadFIFO>
70005f94:	f847 0b04 	str.w	r0, [r7], #4
70005f98:	f7fc f858 	bl	7000204c <HAL_GetTick>
70005f9c:	1b80      	subs	r0, r0, r6
70005f9e:	3001      	adds	r0, #1
70005fa0:	d0f3      	beq.n	70005f8a <HAL_SD_GetCardStatus+0xce>
70005fa2:	6820      	ldr	r0, [r4, #0]
70005fa4:	6b42      	ldr	r2, [r0, #52]	@ 0x34
70005fa6:	f412 5280 	ands.w	r2, r2, #4096	@ 0x1000
70005faa:	d1f1      	bne.n	70005f90 <HAL_SD_GetCardStatus+0xd4>
70005fac:	9906      	ldr	r1, [sp, #24]
70005fae:	4b26      	ldr	r3, [pc, #152]	@ (70006048 <HAL_SD_GetCardStatus+0x18c>)
70005fb0:	6383      	str	r3, [r0, #56]	@ 0x38
70005fb2:	f3c1 1381 	ubfx	r3, r1, #6, #2
70005fb6:	702b      	strb	r3, [r5, #0]
70005fb8:	f3c1 1340 	ubfx	r3, r1, #5, #1
70005fbc:	706b      	strb	r3, [r5, #1]
70005fbe:	0a0b      	lsrs	r3, r1, #8
70005fc0:	f023 03ff 	bic.w	r3, r3, #255	@ 0xff
70005fc4:	ea43 6311 	orr.w	r3, r3, r1, lsr #24
70005fc8:	b29b      	uxth	r3, r3
70005fca:	806b      	strh	r3, [r5, #2]
70005fcc:	9b07      	ldr	r3, [sp, #28]
70005fce:	ba1b      	rev	r3, r3
70005fd0:	606b      	str	r3, [r5, #4]
70005fd2:	9b08      	ldr	r3, [sp, #32]
70005fd4:	b2d9      	uxtb	r1, r3
70005fd6:	7229      	strb	r1, [r5, #8]
70005fd8:	f3c3 2107 	ubfx	r1, r3, #8, #8
70005fdc:	7269      	strb	r1, [r5, #9]
70005fde:	f3c3 5103 	ubfx	r1, r3, #20, #4
70005fe2:	0c1b      	lsrs	r3, r3, #16
70005fe4:	72a9      	strb	r1, [r5, #10]
70005fe6:	9909      	ldr	r1, [sp, #36]	@ 0x24
70005fe8:	f023 03ff 	bic.w	r3, r3, #255	@ 0xff
70005fec:	b2ce      	uxtb	r6, r1
70005fee:	4333      	orrs	r3, r6
70005ff0:	81ab      	strh	r3, [r5, #12]
70005ff2:	f3c1 2385 	ubfx	r3, r1, #10, #6
70005ff6:	73ab      	strb	r3, [r5, #14]
70005ff8:	f3c1 2301 	ubfx	r3, r1, #8, #2
70005ffc:	73eb      	strb	r3, [r5, #15]
70005ffe:	f3c1 1303 	ubfx	r3, r1, #4, #4
70006002:	f001 010f 	and.w	r1, r1, #15
70006006:	742b      	strb	r3, [r5, #16]
70006008:	f89d 302b 	ldrb.w	r3, [sp, #43]	@ 0x2b
7000600c:	7469      	strb	r1, [r5, #17]
7000600e:	74ab      	strb	r3, [r5, #18]
70006010:	4615      	mov	r5, r2
70006012:	f44f 7100 	mov.w	r1, #512	@ 0x200
70006016:	f000 fd47 	bl	70006aa8 <SDMMC_CmdBlockLength>
7000601a:	b138      	cbz	r0, 7000602c <HAL_SD_GetCardStatus+0x170>
7000601c:	6823      	ldr	r3, [r4, #0]
7000601e:	4a09      	ldr	r2, [pc, #36]	@ (70006044 <HAL_SD_GetCardStatus+0x188>)
70006020:	639a      	str	r2, [r3, #56]	@ 0x38
70006022:	2301      	movs	r3, #1
70006024:	6360      	str	r0, [r4, #52]	@ 0x34
70006026:	f884 3030 	strb.w	r3, [r4, #48]	@ 0x30
7000602a:	2501      	movs	r5, #1
7000602c:	4628      	mov	r0, r5
7000602e:	b016      	add	sp, #88	@ 0x58
70006030:	e8bd 81f0 	ldmia.w	sp!, {r4, r5, r6, r7, r8, pc}
70006034:	f44f 6300 	mov.w	r3, #2048	@ 0x800
70006038:	e75c      	b.n	70005ef4 <HAL_SD_GetCardStatus+0x38>
7000603a:	2308      	movs	r3, #8
7000603c:	e75a      	b.n	70005ef4 <HAL_SD_GetCardStatus+0x38>
7000603e:	2302      	movs	r3, #2
70006040:	e758      	b.n	70005ef4 <HAL_SD_GetCardStatus+0x38>
70006042:	bf00      	nop
70006044:	1fe00fff 	.word	0x1fe00fff
70006048:	18000f3a 	.word	0x18000f3a

7000604c <HAL_SD_GetCardInfo>:
7000604c:	6b83      	ldr	r3, [r0, #56]	@ 0x38
7000604e:	600b      	str	r3, [r1, #0]
70006050:	6bc3      	ldr	r3, [r0, #60]	@ 0x3c
70006052:	604b      	str	r3, [r1, #4]
70006054:	6c03      	ldr	r3, [r0, #64]	@ 0x40
70006056:	608b      	str	r3, [r1, #8]
70006058:	6c43      	ldr	r3, [r0, #68]	@ 0x44
7000605a:	60cb      	str	r3, [r1, #12]
7000605c:	6c83      	ldr	r3, [r0, #72]	@ 0x48
7000605e:	610b      	str	r3, [r1, #16]
70006060:	6cc3      	ldr	r3, [r0, #76]	@ 0x4c
70006062:	614b      	str	r3, [r1, #20]
70006064:	6d03      	ldr	r3, [r0, #80]	@ 0x50
70006066:	618b      	str	r3, [r1, #24]
70006068:	6d43      	ldr	r3, [r0, #84]	@ 0x54
7000606a:	2000      	movs	r0, #0
7000606c:	61cb      	str	r3, [r1, #28]
7000606e:	4770      	bx	lr

70006070 <HAL_SD_ConfigWideBusOperation>:
70006070:	2303      	movs	r3, #3
70006072:	b530      	push	{r4, r5, lr}
70006074:	b089      	sub	sp, #36	@ 0x24
70006076:	f880 3030 	strb.w	r3, [r0, #48]	@ 0x30
7000607a:	6b83      	ldr	r3, [r0, #56]	@ 0x38
7000607c:	4604      	mov	r4, r0
7000607e:	460d      	mov	r5, r1
70006080:	2b03      	cmp	r3, #3
70006082:	d002      	beq.n	7000608a <HAL_SD_ConfigWideBusOperation+0x1a>
70006084:	f5b1 4f00 	cmp.w	r1, #32768	@ 0x8000
70006088:	d103      	bne.n	70006092 <HAL_SD_ConfigWideBusOperation+0x22>
7000608a:	6b63      	ldr	r3, [r4, #52]	@ 0x34
7000608c:	f043 5380 	orr.w	r3, r3, #268435456	@ 0x10000000
70006090:	e01f      	b.n	700060d2 <HAL_SD_ConfigWideBusOperation+0x62>
70006092:	f5b1 4f80 	cmp.w	r1, #16384	@ 0x4000
70006096:	d124      	bne.n	700060e2 <HAL_SD_ConfigWideBusOperation+0x72>
70006098:	2100      	movs	r1, #0
7000609a:	6800      	ldr	r0, [r0, #0]
7000609c:	9103      	str	r1, [sp, #12]
7000609e:	f000 fc33 	bl	70006908 <SDMMC_GetResponse>
700060a2:	f010 7000 	ands.w	r0, r0, #33554432	@ 0x2000000
700060a6:	d136      	bne.n	70006116 <HAL_SD_ConfigWideBusOperation+0xa6>
700060a8:	9004      	str	r0, [sp, #16]
700060aa:	a903      	add	r1, sp, #12
700060ac:	4620      	mov	r0, r4
700060ae:	f7ff fc09 	bl	700058c4 <SD_FindSCR.constprop.0>
700060b2:	b960      	cbnz	r0, 700060ce <HAL_SD_ConfigWideBusOperation+0x5e>
700060b4:	9b04      	ldr	r3, [sp, #16]
700060b6:	0359      	lsls	r1, r3, #13
700060b8:	d530      	bpl.n	7000611c <HAL_SD_ConfigWideBusOperation+0xac>
700060ba:	6c61      	ldr	r1, [r4, #68]	@ 0x44
700060bc:	6820      	ldr	r0, [r4, #0]
700060be:	0409      	lsls	r1, r1, #16
700060c0:	f000 fdb8 	bl	70006c34 <SDMMC_CmdAppCommand>
700060c4:	b918      	cbnz	r0, 700060ce <HAL_SD_ConfigWideBusOperation+0x5e>
700060c6:	2102      	movs	r1, #2
700060c8:	6820      	ldr	r0, [r4, #0]
700060ca:	f000 fdcd 	bl	70006c68 <SDMMC_CmdBusWidth>
700060ce:	6b63      	ldr	r3, [r4, #52]	@ 0x34
700060d0:	4303      	orrs	r3, r0
700060d2:	6363      	str	r3, [r4, #52]	@ 0x34
700060d4:	6b63      	ldr	r3, [r4, #52]	@ 0x34
700060d6:	b343      	cbz	r3, 7000612a <HAL_SD_ConfigWideBusOperation+0xba>
700060d8:	6823      	ldr	r3, [r4, #0]
700060da:	4a3d      	ldr	r2, [pc, #244]	@ (700061d0 <HAL_SD_ConfigWideBusOperation+0x160>)
700060dc:	639a      	str	r2, [r3, #56]	@ 0x38
700060de:	2501      	movs	r5, #1
700060e0:	e04f      	b.n	70006182 <HAL_SD_ConfigWideBusOperation+0x112>
700060e2:	b9f1      	cbnz	r1, 70006122 <HAL_SD_ConfigWideBusOperation+0xb2>
700060e4:	6800      	ldr	r0, [r0, #0]
700060e6:	9103      	str	r1, [sp, #12]
700060e8:	f000 fc0e 	bl	70006908 <SDMMC_GetResponse>
700060ec:	0182      	lsls	r2, r0, #6
700060ee:	d412      	bmi.n	70006116 <HAL_SD_ConfigWideBusOperation+0xa6>
700060f0:	a903      	add	r1, sp, #12
700060f2:	4620      	mov	r0, r4
700060f4:	9504      	str	r5, [sp, #16]
700060f6:	f7ff fbe5 	bl	700058c4 <SD_FindSCR.constprop.0>
700060fa:	2800      	cmp	r0, #0
700060fc:	d1e7      	bne.n	700060ce <HAL_SD_ConfigWideBusOperation+0x5e>
700060fe:	9b04      	ldr	r3, [sp, #16]
70006100:	03db      	lsls	r3, r3, #15
70006102:	d50b      	bpl.n	7000611c <HAL_SD_ConfigWideBusOperation+0xac>
70006104:	6c61      	ldr	r1, [r4, #68]	@ 0x44
70006106:	6820      	ldr	r0, [r4, #0]
70006108:	0409      	lsls	r1, r1, #16
7000610a:	f000 fd93 	bl	70006c34 <SDMMC_CmdAppCommand>
7000610e:	2800      	cmp	r0, #0
70006110:	d1dd      	bne.n	700060ce <HAL_SD_ConfigWideBusOperation+0x5e>
70006112:	4601      	mov	r1, r0
70006114:	e7d8      	b.n	700060c8 <HAL_SD_ConfigWideBusOperation+0x58>
70006116:	f44f 6000 	mov.w	r0, #2048	@ 0x800
7000611a:	e7d8      	b.n	700060ce <HAL_SD_ConfigWideBusOperation+0x5e>
7000611c:	f04f 6080 	mov.w	r0, #67108864	@ 0x4000000
70006120:	e7d5      	b.n	700060ce <HAL_SD_ConfigWideBusOperation+0x5e>
70006122:	6b43      	ldr	r3, [r0, #52]	@ 0x34
70006124:	f043 6300 	orr.w	r3, r3, #134217728	@ 0x8000000
70006128:	e7d3      	b.n	700060d2 <HAL_SD_ConfigWideBusOperation+0x62>
7000612a:	f44f 1000 	mov.w	r0, #2097152	@ 0x200000
7000612e:	f7fe fde3 	bl	70004cf8 <HAL_RCCEx_GetPeriphCLKFreq>
70006132:	2800      	cmp	r0, #0
70006134:	d047      	beq.n	700061c6 <HAL_SD_ConfigWideBusOperation+0x156>
70006136:	6863      	ldr	r3, [r4, #4]
70006138:	4926      	ldr	r1, [pc, #152]	@ (700061d4 <HAL_SD_ConfigWideBusOperation+0x164>)
7000613a:	9303      	str	r3, [sp, #12]
7000613c:	68a3      	ldr	r3, [r4, #8]
7000613e:	fbb0 f2f1 	udiv	r2, r0, r1
70006142:	e9cd 3504 	strd	r3, r5, [sp, #16]
70006146:	6923      	ldr	r3, [r4, #16]
70006148:	9306      	str	r3, [sp, #24]
7000614a:	6963      	ldr	r3, [r4, #20]
7000614c:	4293      	cmp	r3, r2
7000614e:	d20c      	bcs.n	7000616a <HAL_SD_ConfigWideBusOperation+0xfa>
70006150:	6da5      	ldr	r5, [r4, #88]	@ 0x58
70006152:	f5b5 7f00 	cmp.w	r5, #512	@ 0x200
70006156:	d008      	beq.n	7000616a <HAL_SD_ConfigWideBusOperation+0xfa>
70006158:	f5b5 7f80 	cmp.w	r5, #256	@ 0x100
7000615c:	d129      	bne.n	700061b2 <HAL_SD_ConfigWideBusOperation+0x142>
7000615e:	bb1b      	cbnz	r3, 700061a8 <HAL_SD_ConfigWideBusOperation+0x138>
70006160:	4288      	cmp	r0, r1
70006162:	d902      	bls.n	7000616a <HAL_SD_ConfigWideBusOperation+0xfa>
70006164:	4b1c      	ldr	r3, [pc, #112]	@ (700061d8 <HAL_SD_ConfigWideBusOperation+0x168>)
70006166:	fbb0 f3f3 	udiv	r3, r0, r3
7000616a:	9307      	str	r3, [sp, #28]
7000616c:	ab08      	add	r3, sp, #32
7000616e:	2500      	movs	r5, #0
70006170:	e913 0003 	ldmdb	r3, {r0, r1}
70006174:	ab03      	add	r3, sp, #12
70006176:	e88d 0003 	stmia.w	sp, {r0, r1}
7000617a:	cb0e      	ldmia	r3, {r1, r2, r3}
7000617c:	6820      	ldr	r0, [r4, #0]
7000617e:	f000 fb83 	bl	70006888 <SDMMC_Init>
70006182:	f44f 7100 	mov.w	r1, #512	@ 0x200
70006186:	6820      	ldr	r0, [r4, #0]
70006188:	f000 fc8e 	bl	70006aa8 <SDMMC_CmdBlockLength>
7000618c:	b130      	cbz	r0, 7000619c <HAL_SD_ConfigWideBusOperation+0x12c>
7000618e:	6823      	ldr	r3, [r4, #0]
70006190:	2501      	movs	r5, #1
70006192:	4a0f      	ldr	r2, [pc, #60]	@ (700061d0 <HAL_SD_ConfigWideBusOperation+0x160>)
70006194:	639a      	str	r2, [r3, #56]	@ 0x38
70006196:	6b63      	ldr	r3, [r4, #52]	@ 0x34
70006198:	4303      	orrs	r3, r0
7000619a:	6363      	str	r3, [r4, #52]	@ 0x34
7000619c:	2301      	movs	r3, #1
7000619e:	4628      	mov	r0, r5
700061a0:	f884 3030 	strb.w	r3, [r4, #48]	@ 0x30
700061a4:	b009      	add	sp, #36	@ 0x24
700061a6:	bd30      	pop	{r4, r5, pc}
700061a8:	005a      	lsls	r2, r3, #1
700061aa:	fbb0 f2f2 	udiv	r2, r0, r2
700061ae:	428a      	cmp	r2, r1
700061b0:	e7d7      	b.n	70006162 <HAL_SD_ConfigWideBusOperation+0xf2>
700061b2:	490a      	ldr	r1, [pc, #40]	@ (700061dc <HAL_SD_ConfigWideBusOperation+0x16c>)
700061b4:	b91b      	cbnz	r3, 700061be <HAL_SD_ConfigWideBusOperation+0x14e>
700061b6:	4288      	cmp	r0, r1
700061b8:	bf88      	it	hi
700061ba:	4613      	movhi	r3, r2
700061bc:	e7d5      	b.n	7000616a <HAL_SD_ConfigWideBusOperation+0xfa>
700061be:	005d      	lsls	r5, r3, #1
700061c0:	fbb0 f0f5 	udiv	r0, r0, r5
700061c4:	e7f7      	b.n	700061b6 <HAL_SD_ConfigWideBusOperation+0x146>
700061c6:	6b63      	ldr	r3, [r4, #52]	@ 0x34
700061c8:	f043 6300 	orr.w	r3, r3, #134217728	@ 0x8000000
700061cc:	6363      	str	r3, [r4, #52]	@ 0x34
700061ce:	e786      	b.n	700060de <HAL_SD_ConfigWideBusOperation+0x6e>
700061d0:	1fe00fff 	.word	0x1fe00fff
700061d4:	02faf080 	.word	0x02faf080
700061d8:	05f5e100 	.word	0x05f5e100
700061dc:	017d7840 	.word	0x017d7840

700061e0 <HAL_SD_GetCardState>:
700061e0:	6c41      	ldr	r1, [r0, #68]	@ 0x44
700061e2:	b510      	push	{r4, lr}
700061e4:	0409      	lsls	r1, r1, #16
700061e6:	4604      	mov	r4, r0
700061e8:	6800      	ldr	r0, [r0, #0]
700061ea:	f000 fd73 	bl	70006cd4 <SDMMC_CmdSendStatus>
700061ee:	4601      	mov	r1, r0
700061f0:	b928      	cbnz	r0, 700061fe <HAL_SD_GetCardState+0x1e>
700061f2:	6820      	ldr	r0, [r4, #0]
700061f4:	f000 fb88 	bl	70006908 <SDMMC_GetResponse>
700061f8:	f3c0 2043 	ubfx	r0, r0, #9, #4
700061fc:	bd10      	pop	{r4, pc}
700061fe:	6b63      	ldr	r3, [r4, #52]	@ 0x34
70006200:	4303      	orrs	r3, r0
70006202:	2000      	movs	r0, #0
70006204:	6363      	str	r3, [r4, #52]	@ 0x34
70006206:	e7f7      	b.n	700061f8 <HAL_SD_GetCardState+0x18>

70006208 <HAL_SD_Init>:
70006208:	b570      	push	{r4, r5, r6, lr}
7000620a:	4604      	mov	r4, r0
7000620c:	b086      	sub	sp, #24
7000620e:	b918      	cbnz	r0, 70006218 <HAL_SD_Init+0x10>
70006210:	2501      	movs	r5, #1
70006212:	4628      	mov	r0, r5
70006214:	b006      	add	sp, #24
70006216:	bd70      	pop	{r4, r5, r6, pc}
70006218:	f890 3030 	ldrb.w	r3, [r0, #48]	@ 0x30
7000621c:	f003 02ff 	and.w	r2, r3, #255	@ 0xff
70006220:	b913      	cbnz	r3, 70006228 <HAL_SD_Init+0x20>
70006222:	7602      	strb	r2, [r0, #24]
70006224:	f7ff fbb4 	bl	70005990 <HAL_SD_MspInit>
70006228:	2304      	movs	r3, #4
7000622a:	4620      	mov	r0, r4
7000622c:	f884 3030 	strb.w	r3, [r4, #48]	@ 0x30
70006230:	f7ff fd2c 	bl	70005c8c <HAL_SD_InitCard>
70006234:	2800      	cmp	r0, #0
70006236:	d1eb      	bne.n	70006210 <HAL_SD_Init+0x8>
70006238:	a901      	add	r1, sp, #4
7000623a:	4620      	mov	r0, r4
7000623c:	f7ff fe3e 	bl	70005ebc <HAL_SD_GetCardStatus>
70006240:	2800      	cmp	r0, #0
70006242:	d1e5      	bne.n	70006210 <HAL_SD_Init+0x8>
70006244:	6ba1      	ldr	r1, [r4, #56]	@ 0x38
70006246:	f89d 3014 	ldrb.w	r3, [sp, #20]
7000624a:	2901      	cmp	r1, #1
7000624c:	f89d 2015 	ldrb.w	r2, [sp, #21]
70006250:	b2db      	uxtb	r3, r3
70006252:	b2d2      	uxtb	r2, r2
70006254:	d105      	bne.n	70006262 <HAL_SD_Init+0x5a>
70006256:	4313      	orrs	r3, r2
70006258:	bf14      	ite	ne
7000625a:	f44f 7000 	movne.w	r0, #512	@ 0x200
7000625e:	f44f 7080 	moveq.w	r0, #256	@ 0x100
70006262:	65a0      	str	r0, [r4, #88]	@ 0x58
70006264:	4620      	mov	r0, r4
70006266:	68e1      	ldr	r1, [r4, #12]
70006268:	f7ff ff02 	bl	70006070 <HAL_SD_ConfigWideBusOperation>
7000626c:	4605      	mov	r5, r0
7000626e:	2800      	cmp	r0, #0
70006270:	d1ce      	bne.n	70006210 <HAL_SD_Init+0x8>
70006272:	f7fb feeb 	bl	7000204c <HAL_GetTick>
70006276:	4606      	mov	r6, r0
70006278:	4620      	mov	r0, r4
7000627a:	f7ff ffb1 	bl	700061e0 <HAL_SD_GetCardState>
7000627e:	2804      	cmp	r0, #4
70006280:	d106      	bne.n	70006290 <HAL_SD_Init+0x88>
70006282:	2300      	movs	r3, #0
70006284:	6363      	str	r3, [r4, #52]	@ 0x34
70006286:	62e3      	str	r3, [r4, #44]	@ 0x2c
70006288:	2301      	movs	r3, #1
7000628a:	f884 3030 	strb.w	r3, [r4, #48]	@ 0x30
7000628e:	e7c0      	b.n	70006212 <HAL_SD_Init+0xa>
70006290:	f7fb fedc 	bl	7000204c <HAL_GetTick>
70006294:	1b80      	subs	r0, r0, r6
70006296:	3001      	adds	r0, #1
70006298:	d1ee      	bne.n	70006278 <HAL_SD_Init+0x70>
7000629a:	f04f 4300 	mov.w	r3, #2147483648	@ 0x80000000
7000629e:	2503      	movs	r5, #3
700062a0:	6363      	str	r3, [r4, #52]	@ 0x34
700062a2:	2301      	movs	r3, #1
700062a4:	f884 3030 	strb.w	r3, [r4, #48]	@ 0x30
700062a8:	e7b3      	b.n	70006212 <HAL_SD_Init+0xa>
	...

700062ac <HAL_SD_ConfigSpeedBusOperation>:
700062ac:	2303      	movs	r3, #3
700062ae:	2901      	cmp	r1, #1
700062b0:	b570      	push	{r4, r5, r6, lr}
700062b2:	4604      	mov	r4, r0
700062b4:	f880 3030 	strb.w	r3, [r0, #48]	@ 0x30
700062b8:	d03d      	beq.n	70006336 <HAL_SD_ConfigSpeedBusOperation+0x8a>
700062ba:	2902      	cmp	r1, #2
700062bc:	d025      	beq.n	7000630a <HAL_SD_ConfigSpeedBusOperation+0x5e>
700062be:	2900      	cmp	r1, #0
700062c0:	d13b      	bne.n	7000633a <HAL_SD_ConfigSpeedBusOperation+0x8e>
700062c2:	6d83      	ldr	r3, [r0, #88]	@ 0x58
700062c4:	f5b3 7f00 	cmp.w	r3, #512	@ 0x200
700062c8:	d029      	beq.n	7000631e <HAL_SD_ConfigSpeedBusOperation+0x72>
700062ca:	f5b3 7f80 	cmp.w	r3, #256	@ 0x100
700062ce:	d026      	beq.n	7000631e <HAL_SD_ConfigSpeedBusOperation+0x72>
700062d0:	6b83      	ldr	r3, [r0, #56]	@ 0x38
700062d2:	2b01      	cmp	r3, #1
700062d4:	d023      	beq.n	7000631e <HAL_SD_ConfigSpeedBusOperation+0x72>
700062d6:	2500      	movs	r5, #0
700062d8:	f7fb feb8 	bl	7000204c <HAL_GetTick>
700062dc:	4606      	mov	r6, r0
700062de:	4620      	mov	r0, r4
700062e0:	f7ff ff7e 	bl	700061e0 <HAL_SD_GetCardState>
700062e4:	2804      	cmp	r0, #4
700062e6:	d12c      	bne.n	70006342 <HAL_SD_ConfigSpeedBusOperation+0x96>
700062e8:	f44f 7100 	mov.w	r1, #512	@ 0x200
700062ec:	6820      	ldr	r0, [r4, #0]
700062ee:	f000 fbdb 	bl	70006aa8 <SDMMC_CmdBlockLength>
700062f2:	b130      	cbz	r0, 70006302 <HAL_SD_ConfigSpeedBusOperation+0x56>
700062f4:	6823      	ldr	r3, [r4, #0]
700062f6:	2501      	movs	r5, #1
700062f8:	4a19      	ldr	r2, [pc, #100]	@ (70006360 <HAL_SD_ConfigSpeedBusOperation+0xb4>)
700062fa:	639a      	str	r2, [r3, #56]	@ 0x38
700062fc:	6b63      	ldr	r3, [r4, #52]	@ 0x34
700062fe:	4303      	orrs	r3, r0
70006300:	6363      	str	r3, [r4, #52]	@ 0x34
70006302:	2301      	movs	r3, #1
70006304:	f884 3030 	strb.w	r3, [r4, #48]	@ 0x30
70006308:	e027      	b.n	7000635a <HAL_SD_ConfigSpeedBusOperation+0xae>
7000630a:	6d83      	ldr	r3, [r0, #88]	@ 0x58
7000630c:	f5b3 7f00 	cmp.w	r3, #512	@ 0x200
70006310:	d005      	beq.n	7000631e <HAL_SD_ConfigSpeedBusOperation+0x72>
70006312:	f5b3 7f80 	cmp.w	r3, #256	@ 0x100
70006316:	d002      	beq.n	7000631e <HAL_SD_ConfigSpeedBusOperation+0x72>
70006318:	6b83      	ldr	r3, [r0, #56]	@ 0x38
7000631a:	2b01      	cmp	r3, #1
7000631c:	d105      	bne.n	7000632a <HAL_SD_ConfigSpeedBusOperation+0x7e>
7000631e:	4911      	ldr	r1, [pc, #68]	@ (70006364 <HAL_SD_ConfigSpeedBusOperation+0xb8>)
70006320:	4620      	mov	r0, r4
70006322:	f7ff fa53 	bl	700057cc <SD_SwitchSpeed>
70006326:	2800      	cmp	r0, #0
70006328:	d0d5      	beq.n	700062d6 <HAL_SD_ConfigSpeedBusOperation+0x2a>
7000632a:	6b63      	ldr	r3, [r4, #52]	@ 0x34
7000632c:	f043 5380 	orr.w	r3, r3, #268435456	@ 0x10000000
70006330:	2501      	movs	r5, #1
70006332:	6363      	str	r3, [r4, #52]	@ 0x34
70006334:	e7d0      	b.n	700062d8 <HAL_SD_ConfigSpeedBusOperation+0x2c>
70006336:	490c      	ldr	r1, [pc, #48]	@ (70006368 <HAL_SD_ConfigSpeedBusOperation+0xbc>)
70006338:	e7f3      	b.n	70006322 <HAL_SD_ConfigSpeedBusOperation+0x76>
7000633a:	6b43      	ldr	r3, [r0, #52]	@ 0x34
7000633c:	f043 6300 	orr.w	r3, r3, #134217728	@ 0x8000000
70006340:	e7f6      	b.n	70006330 <HAL_SD_ConfigSpeedBusOperation+0x84>
70006342:	f7fb fe83 	bl	7000204c <HAL_GetTick>
70006346:	1b80      	subs	r0, r0, r6
70006348:	3001      	adds	r0, #1
7000634a:	d1c8      	bne.n	700062de <HAL_SD_ConfigSpeedBusOperation+0x32>
7000634c:	f04f 4300 	mov.w	r3, #2147483648	@ 0x80000000
70006350:	2503      	movs	r5, #3
70006352:	6363      	str	r3, [r4, #52]	@ 0x34
70006354:	2301      	movs	r3, #1
70006356:	f884 3030 	strb.w	r3, [r4, #48]	@ 0x30
7000635a:	4628      	mov	r0, r5
7000635c:	bd70      	pop	{r4, r5, r6, pc}
7000635e:	bf00      	nop
70006360:	1fe00fff 	.word	0x1fe00fff
70006364:	80ffff01 	.word	0x80ffff01
70006368:	80ffff00 	.word	0x80ffff00

7000636c <HAL_SDEx_Read_DMALnkLstBufCpltCallback>:
7000636c:	4770      	bx	lr

7000636e <HAL_SDEx_Write_DMALnkLstBufCpltCallback>:
7000636e:	4770      	bx	lr

70006370 <HAL_SD_IRQHandler>:
70006370:	b5f7      	push	{r0, r1, r2, r4, r5, r6, r7, lr}
70006372:	6ac5      	ldr	r5, [r0, #44]	@ 0x2c
70006374:	4604      	mov	r4, r0
70006376:	6800      	ldr	r0, [r0, #0]
70006378:	6b43      	ldr	r3, [r0, #52]	@ 0x34
7000637a:	041b      	lsls	r3, r3, #16
7000637c:	d520      	bpl.n	700063c0 <HAL_SD_IRQHandler+0x50>
7000637e:	072f      	lsls	r7, r5, #28
70006380:	d51e      	bpl.n	700063c0 <HAL_SD_IRQHandler+0x50>
70006382:	6aa3      	ldr	r3, [r4, #40]	@ 0x28
70006384:	2b1f      	cmp	r3, #31
70006386:	d919      	bls.n	700063bc <HAL_SD_IRQHandler+0x4c>
70006388:	6a66      	ldr	r6, [r4, #36]	@ 0x24
7000638a:	1d35      	adds	r5, r6, #4
7000638c:	f106 0724 	add.w	r7, r6, #36	@ 0x24
70006390:	6820      	ldr	r0, [r4, #0]
70006392:	3504      	adds	r5, #4
70006394:	f000 fa92 	bl	700068bc <SDMMC_ReadFIFO>
70006398:	f805 0c08 	strb.w	r0, [r5, #-8]
7000639c:	0a03      	lsrs	r3, r0, #8
7000639e:	f805 3c07 	strb.w	r3, [r5, #-7]
700063a2:	0c03      	lsrs	r3, r0, #16
700063a4:	0e00      	lsrs	r0, r0, #24
700063a6:	f805 3c06 	strb.w	r3, [r5, #-6]
700063aa:	f805 0c05 	strb.w	r0, [r5, #-5]
700063ae:	42bd      	cmp	r5, r7
700063b0:	d1ee      	bne.n	70006390 <HAL_SD_IRQHandler+0x20>
700063b2:	6aa3      	ldr	r3, [r4, #40]	@ 0x28
700063b4:	3620      	adds	r6, #32
700063b6:	3b20      	subs	r3, #32
700063b8:	6266      	str	r6, [r4, #36]	@ 0x24
700063ba:	62a3      	str	r3, [r4, #40]	@ 0x28
700063bc:	b003      	add	sp, #12
700063be:	bdf0      	pop	{r4, r5, r6, r7, pc}
700063c0:	6b43      	ldr	r3, [r0, #52]	@ 0x34
700063c2:	05de      	lsls	r6, r3, #23
700063c4:	d553      	bpl.n	7000646e <HAL_SD_IRQHandler+0xfe>
700063c6:	f44f 7380 	mov.w	r3, #256	@ 0x100
700063ca:	6383      	str	r3, [r0, #56]	@ 0x38
700063cc:	6bc3      	ldr	r3, [r0, #60]	@ 0x3c
700063ce:	f423 4341 	bic.w	r3, r3, #49408	@ 0xc100
700063d2:	f023 033a 	bic.w	r3, r3, #58	@ 0x3a
700063d6:	63c3      	str	r3, [r0, #60]	@ 0x3c
700063d8:	6bc3      	ldr	r3, [r0, #60]	@ 0x3c
700063da:	f023 5380 	bic.w	r3, r3, #268435456	@ 0x10000000
700063de:	63c3      	str	r3, [r0, #60]	@ 0x3c
700063e0:	68c3      	ldr	r3, [r0, #12]
700063e2:	f023 0340 	bic.w	r3, r3, #64	@ 0x40
700063e6:	60c3      	str	r3, [r0, #12]
700063e8:	f015 0308 	ands.w	r3, r5, #8
700063ec:	d01f      	beq.n	7000642e <HAL_SD_IRQHandler+0xbe>
700063ee:	f015 0f22 	tst.w	r5, #34	@ 0x22
700063f2:	d008      	beq.n	70006406 <HAL_SD_IRQHandler+0x96>
700063f4:	f000 fbda 	bl	70006bac <SDMMC_CmdStopTransfer>
700063f8:	b128      	cbz	r0, 70006406 <HAL_SD_IRQHandler+0x96>
700063fa:	6b63      	ldr	r3, [r4, #52]	@ 0x34
700063fc:	4303      	orrs	r3, r0
700063fe:	4620      	mov	r0, r4
70006400:	6363      	str	r3, [r4, #52]	@ 0x34
70006402:	f7ff fb8d 	bl	70005b20 <HAL_SD_ErrorCallback>
70006406:	6823      	ldr	r3, [r4, #0]
70006408:	07a9      	lsls	r1, r5, #30
7000640a:	4a64      	ldr	r2, [pc, #400]	@ (7000659c <HAL_SD_IRQHandler+0x22c>)
7000640c:	639a      	str	r2, [r3, #56]	@ 0x38
7000640e:	f04f 0301 	mov.w	r3, #1
70006412:	f884 3030 	strb.w	r3, [r4, #48]	@ 0x30
70006416:	f04f 0300 	mov.w	r3, #0
7000641a:	62e3      	str	r3, [r4, #44]	@ 0x2c
7000641c:	d003      	beq.n	70006426 <HAL_SD_IRQHandler+0xb6>
7000641e:	4620      	mov	r0, r4
70006420:	f7fb f9f0 	bl	70001804 <HAL_SD_RxCpltCallback>
70006424:	e7ca      	b.n	700063bc <HAL_SD_IRQHandler+0x4c>
70006426:	4620      	mov	r0, r4
70006428:	f7fb f9e2 	bl	700017f0 <HAL_SD_TxCpltCallback>
7000642c:	e7c6      	b.n	700063bc <HAL_SD_IRQHandler+0x4c>
7000642e:	062a      	lsls	r2, r5, #24
70006430:	d5c4      	bpl.n	700063bc <HAL_SD_IRQHandler+0x4c>
70006432:	f015 0f22 	tst.w	r5, #34	@ 0x22
70006436:	6283      	str	r3, [r0, #40]	@ 0x28
70006438:	62c3      	str	r3, [r0, #44]	@ 0x2c
7000643a:	6503      	str	r3, [r0, #80]	@ 0x50
7000643c:	d008      	beq.n	70006450 <HAL_SD_IRQHandler+0xe0>
7000643e:	f000 fbb5 	bl	70006bac <SDMMC_CmdStopTransfer>
70006442:	b128      	cbz	r0, 70006450 <HAL_SD_IRQHandler+0xe0>
70006444:	6b63      	ldr	r3, [r4, #52]	@ 0x34
70006446:	4303      	orrs	r3, r0
70006448:	4620      	mov	r0, r4
7000644a:	6363      	str	r3, [r4, #52]	@ 0x34
7000644c:	f7ff fb68 	bl	70005b20 <HAL_SD_ErrorCallback>
70006450:	2301      	movs	r3, #1
70006452:	f015 0f30 	tst.w	r5, #48	@ 0x30
70006456:	f884 3030 	strb.w	r3, [r4, #48]	@ 0x30
7000645a:	f04f 0300 	mov.w	r3, #0
7000645e:	62e3      	str	r3, [r4, #44]	@ 0x2c
70006460:	d002      	beq.n	70006468 <HAL_SD_IRQHandler+0xf8>
70006462:	4620      	mov	r0, r4
70006464:	f7fb f9c4 	bl	700017f0 <HAL_SD_TxCpltCallback>
70006468:	07af      	lsls	r7, r5, #30
7000646a:	d0a7      	beq.n	700063bc <HAL_SD_IRQHandler+0x4c>
7000646c:	e7d7      	b.n	7000641e <HAL_SD_IRQHandler+0xae>
7000646e:	6b43      	ldr	r3, [r0, #52]	@ 0x34
70006470:	045e      	lsls	r6, r3, #17
70006472:	d527      	bpl.n	700064c4 <HAL_SD_IRQHandler+0x154>
70006474:	0729      	lsls	r1, r5, #28
70006476:	d525      	bpl.n	700064c4 <HAL_SD_IRQHandler+0x154>
70006478:	6a23      	ldr	r3, [r4, #32]
7000647a:	2b1f      	cmp	r3, #31
7000647c:	d99e      	bls.n	700063bc <HAL_SD_IRQHandler+0x4c>
7000647e:	69e6      	ldr	r6, [r4, #28]
70006480:	1d35      	adds	r5, r6, #4
70006482:	f106 0724 	add.w	r7, r6, #36	@ 0x24
70006486:	f815 3c04 	ldrb.w	r3, [r5, #-4]
7000648a:	3504      	adds	r5, #4
7000648c:	a901      	add	r1, sp, #4
7000648e:	6820      	ldr	r0, [r4, #0]
70006490:	9301      	str	r3, [sp, #4]
70006492:	f815 2c07 	ldrb.w	r2, [r5, #-7]
70006496:	ea43 2302 	orr.w	r3, r3, r2, lsl #8
7000649a:	9301      	str	r3, [sp, #4]
7000649c:	f815 2c06 	ldrb.w	r2, [r5, #-6]
700064a0:	ea43 4302 	orr.w	r3, r3, r2, lsl #16
700064a4:	9301      	str	r3, [sp, #4]
700064a6:	f815 2c05 	ldrb.w	r2, [r5, #-5]
700064aa:	ea43 6302 	orr.w	r3, r3, r2, lsl #24
700064ae:	9301      	str	r3, [sp, #4]
700064b0:	f000 fa07 	bl	700068c2 <SDMMC_WriteFIFO>
700064b4:	42bd      	cmp	r5, r7
700064b6:	d1e6      	bne.n	70006486 <HAL_SD_IRQHandler+0x116>
700064b8:	6a23      	ldr	r3, [r4, #32]
700064ba:	3620      	adds	r6, #32
700064bc:	3b20      	subs	r3, #32
700064be:	61e6      	str	r6, [r4, #28]
700064c0:	6223      	str	r3, [r4, #32]
700064c2:	e77b      	b.n	700063bc <HAL_SD_IRQHandler+0x4c>
700064c4:	6b43      	ldr	r3, [r0, #52]	@ 0x34
700064c6:	f013 0f3a 	tst.w	r3, #58	@ 0x3a
700064ca:	6b43      	ldr	r3, [r0, #52]	@ 0x34
700064cc:	d056      	beq.n	7000657c <HAL_SD_IRQHandler+0x20c>
700064ce:	079a      	lsls	r2, r3, #30
700064d0:	d503      	bpl.n	700064da <HAL_SD_IRQHandler+0x16a>
700064d2:	6b63      	ldr	r3, [r4, #52]	@ 0x34
700064d4:	f043 0302 	orr.w	r3, r3, #2
700064d8:	6363      	str	r3, [r4, #52]	@ 0x34
700064da:	6b43      	ldr	r3, [r0, #52]	@ 0x34
700064dc:	071b      	lsls	r3, r3, #28
700064de:	d503      	bpl.n	700064e8 <HAL_SD_IRQHandler+0x178>
700064e0:	6b63      	ldr	r3, [r4, #52]	@ 0x34
700064e2:	f043 0308 	orr.w	r3, r3, #8
700064e6:	6363      	str	r3, [r4, #52]	@ 0x34
700064e8:	6b43      	ldr	r3, [r0, #52]	@ 0x34
700064ea:	069f      	lsls	r7, r3, #26
700064ec:	d503      	bpl.n	700064f6 <HAL_SD_IRQHandler+0x186>
700064ee:	6b63      	ldr	r3, [r4, #52]	@ 0x34
700064f0:	f043 0320 	orr.w	r3, r3, #32
700064f4:	6363      	str	r3, [r4, #52]	@ 0x34
700064f6:	6b43      	ldr	r3, [r0, #52]	@ 0x34
700064f8:	06de      	lsls	r6, r3, #27
700064fa:	d503      	bpl.n	70006504 <HAL_SD_IRQHandler+0x194>
700064fc:	6b63      	ldr	r3, [r4, #52]	@ 0x34
700064fe:	f043 0310 	orr.w	r3, r3, #16
70006502:	6363      	str	r3, [r4, #52]	@ 0x34
70006504:	4b25      	ldr	r3, [pc, #148]	@ (7000659c <HAL_SD_IRQHandler+0x22c>)
70006506:	6383      	str	r3, [r0, #56]	@ 0x38
70006508:	6bc3      	ldr	r3, [r0, #60]	@ 0x3c
7000650a:	f423 739d 	bic.w	r3, r3, #314	@ 0x13a
7000650e:	63c3      	str	r3, [r0, #60]	@ 0x3c
70006510:	68c3      	ldr	r3, [r0, #12]
70006512:	f023 0340 	bic.w	r3, r3, #64	@ 0x40
70006516:	60c3      	str	r3, [r0, #12]
70006518:	6ac3      	ldr	r3, [r0, #44]	@ 0x2c
7000651a:	f443 5300 	orr.w	r3, r3, #8192	@ 0x2000
7000651e:	62c3      	str	r3, [r0, #44]	@ 0x2c
70006520:	68c3      	ldr	r3, [r0, #12]
70006522:	f043 0380 	orr.w	r3, r3, #128	@ 0x80
70006526:	60c3      	str	r3, [r0, #12]
70006528:	f000 fb40 	bl	70006bac <SDMMC_CmdStopTransfer>
7000652c:	6b63      	ldr	r3, [r4, #52]	@ 0x34
7000652e:	f015 0108 	ands.w	r1, r5, #8
70006532:	ea43 0300 	orr.w	r3, r3, r0
70006536:	6363      	str	r3, [r4, #52]	@ 0x34
70006538:	6823      	ldr	r3, [r4, #0]
7000653a:	68da      	ldr	r2, [r3, #12]
7000653c:	f022 0280 	bic.w	r2, r2, #128	@ 0x80
70006540:	60da      	str	r2, [r3, #12]
70006542:	f44f 6200 	mov.w	r2, #2048	@ 0x800
70006546:	639a      	str	r2, [r3, #56]	@ 0x38
70006548:	d008      	beq.n	7000655c <HAL_SD_IRQHandler+0x1ec>
7000654a:	2301      	movs	r3, #1
7000654c:	f884 3030 	strb.w	r3, [r4, #48]	@ 0x30
70006550:	2300      	movs	r3, #0
70006552:	62e3      	str	r3, [r4, #44]	@ 0x2c
70006554:	4620      	mov	r0, r4
70006556:	f7ff fae3 	bl	70005b20 <HAL_SD_ErrorCallback>
7000655a:	e72f      	b.n	700063bc <HAL_SD_IRQHandler+0x4c>
7000655c:	0628      	lsls	r0, r5, #24
7000655e:	f57f af2d 	bpl.w	700063bc <HAL_SD_IRQHandler+0x4c>
70006562:	6b62      	ldr	r2, [r4, #52]	@ 0x34
70006564:	2a00      	cmp	r2, #0
70006566:	f43f af29 	beq.w	700063bc <HAL_SD_IRQHandler+0x4c>
7000656a:	6bda      	ldr	r2, [r3, #60]	@ 0x3c
7000656c:	f022 5280 	bic.w	r2, r2, #268435456	@ 0x10000000
70006570:	63da      	str	r2, [r3, #60]	@ 0x3c
70006572:	6519      	str	r1, [r3, #80]	@ 0x50
70006574:	2301      	movs	r3, #1
70006576:	f884 3030 	strb.w	r3, [r4, #48]	@ 0x30
7000657a:	e7eb      	b.n	70006554 <HAL_SD_IRQHandler+0x1e4>
7000657c:	00da      	lsls	r2, r3, #3
7000657e:	f57f af1d 	bpl.w	700063bc <HAL_SD_IRQHandler+0x4c>
70006582:	f04f 5380 	mov.w	r3, #268435456	@ 0x10000000
70006586:	6383      	str	r3, [r0, #56]	@ 0x38
70006588:	06ab      	lsls	r3, r5, #26
7000658a:	4620      	mov	r0, r4
7000658c:	d502      	bpl.n	70006594 <HAL_SD_IRQHandler+0x224>
7000658e:	f7ff feee 	bl	7000636e <HAL_SDEx_Write_DMALnkLstBufCpltCallback>
70006592:	e713      	b.n	700063bc <HAL_SD_IRQHandler+0x4c>
70006594:	f7ff feea 	bl	7000636c <HAL_SDEx_Read_DMALnkLstBufCpltCallback>
70006598:	e710      	b.n	700063bc <HAL_SD_IRQHandler+0x4c>
7000659a:	bf00      	nop
7000659c:	18000f3a 	.word	0x18000f3a

700065a0 <LL_DMA_Init>:
700065a0:	4b68      	ldr	r3, [pc, #416]	@ (70006744 <LL_DMA_Init+0x1a4>)
700065a2:	f1b0 4fa4 	cmp.w	r0, #1375731712	@ 0x52000000
700065a6:	b5f0      	push	{r4, r5, r6, r7, lr}
700065a8:	f853 4021 	ldr.w	r4, [r3, r1, lsl #2]
700065ac:	f8d2 508c 	ldr.w	r5, [r2, #140]	@ 0x8c
700065b0:	5906      	ldr	r6, [r0, r4]
700065b2:	eb00 0304 	add.w	r3, r0, r4
700065b6:	f366 050f 	bfi	r5, r6, #0, #16
700065ba:	6e56      	ldr	r6, [r2, #100]	@ 0x64
700065bc:	5105      	str	r5, [r0, r4]
700065be:	6ad4      	ldr	r4, [r2, #44]	@ 0x2c
700065c0:	695d      	ldr	r5, [r3, #20]
700065c2:	ea44 0406 	orr.w	r4, r4, r6
700065c6:	6e96      	ldr	r6, [r2, #104]	@ 0x68
700065c8:	f425 0543 	bic.w	r5, r5, #12779520	@ 0xc30000
700065cc:	ea44 0406 	orr.w	r4, r4, r6
700065d0:	6cd6      	ldr	r6, [r2, #76]	@ 0x4c
700065d2:	ea44 0405 	orr.w	r4, r4, r5
700065d6:	615c      	str	r4, [r3, #20]
700065d8:	6e14      	ldr	r4, [r2, #96]	@ 0x60
700065da:	6c1d      	ldr	r5, [r3, #64]	@ 0x40
700065dc:	ea44 0406 	orr.w	r4, r4, r6
700065e0:	6d16      	ldr	r6, [r2, #80]	@ 0x50
700065e2:	ea44 0406 	orr.w	r4, r4, r6
700065e6:	6d56      	ldr	r6, [r2, #84]	@ 0x54
700065e8:	ea44 0406 	orr.w	r4, r4, r6
700065ec:	6a96      	ldr	r6, [r2, #40]	@ 0x28
700065ee:	ea44 0406 	orr.w	r4, r4, r6
700065f2:	6a16      	ldr	r6, [r2, #32]
700065f4:	ea44 0406 	orr.w	r4, r4, r6
700065f8:	6dd6      	ldr	r6, [r2, #92]	@ 0x5c
700065fa:	ea44 0406 	orr.w	r4, r4, r6
700065fe:	6d96      	ldr	r6, [r2, #88]	@ 0x58
70006600:	ea44 0406 	orr.w	r4, r4, r6
70006604:	6916      	ldr	r6, [r2, #16]
70006606:	ea44 0406 	orr.w	r4, r4, r6
7000660a:	6a56      	ldr	r6, [r2, #36]	@ 0x24
7000660c:	ea44 0406 	orr.w	r4, r4, r6
70006610:	69d6      	ldr	r6, [r2, #28]
70006612:	ea44 0406 	orr.w	r4, r4, r6
70006616:	4e4c      	ldr	r6, [pc, #304]	@ (70006748 <LL_DMA_Init+0x1a8>)
70006618:	ea06 0605 	and.w	r6, r6, r5
7000661c:	ea44 0406 	orr.w	r4, r4, r6
70006620:	641c      	str	r4, [r3, #64]	@ 0x40
70006622:	d177      	bne.n	70006714 <LL_DMA_Init+0x174>
70006624:	290f      	cmp	r1, #15
70006626:	d979      	bls.n	7000671c <LL_DMA_Init+0x17c>
70006628:	6bd5      	ldr	r5, [r2, #60]	@ 0x3c
7000662a:	6c94      	ldr	r4, [r2, #72]	@ 0x48
7000662c:	68d6      	ldr	r6, [r2, #12]
7000662e:	432c      	orrs	r4, r5
70006630:	f8d3 c044 	ldr.w	ip, [r3, #68]	@ 0x44
70006634:	6897      	ldr	r7, [r2, #8]
70006636:	4334      	orrs	r4, r6
70006638:	f8d2 6094 	ldr.w	r6, [r2, #148]	@ 0x94
7000663c:	f5b7 7f00 	cmp.w	r7, #512	@ 0x200
70006640:	ea44 0406 	orr.w	r4, r4, r6
70006644:	f02c 4643 	bic.w	r6, ip, #3271557120	@ 0xc3000000
70006648:	ea44 0407 	orr.w	r4, r4, r7
7000664c:	f426 465e 	bic.w	r6, r6, #56832	@ 0xde00
70006650:	ea44 0406 	orr.w	r4, r4, r6
70006654:	645c      	str	r4, [r3, #68]	@ 0x44
70006656:	d005      	beq.n	70006664 <LL_DMA_Init+0xc4>
70006658:	6c5c      	ldr	r4, [r3, #68]	@ 0x44
7000665a:	6c56      	ldr	r6, [r2, #68]	@ 0x44
7000665c:	f024 047f 	bic.w	r4, r4, #127	@ 0x7f
70006660:	4334      	orrs	r4, r6
70006662:	645c      	str	r4, [r3, #68]	@ 0x44
70006664:	b155      	cbz	r5, 7000667c <LL_DMA_Init+0xdc>
70006666:	6c5c      	ldr	r4, [r3, #68]	@ 0x44
70006668:	6c15      	ldr	r5, [r2, #64]	@ 0x40
7000666a:	f365 4415 	bfi	r4, r5, #16, #6
7000666e:	6b95      	ldr	r5, [r2, #56]	@ 0x38
70006670:	645c      	str	r4, [r3, #68]	@ 0x44
70006672:	6c5c      	ldr	r4, [r3, #68]	@ 0x44
70006674:	f424 4440 	bic.w	r4, r4, #49152	@ 0xc000
70006678:	432c      	orrs	r4, r5
7000667a:	645c      	str	r4, [r3, #68]	@ 0x44
7000667c:	6c9c      	ldr	r4, [r3, #72]	@ 0x48
7000667e:	f1b0 4fa4 	cmp.w	r0, #1375731712	@ 0x52000000
70006682:	6b15      	ldr	r5, [r2, #48]	@ 0x30
70006684:	f36f 040f 	bfc	r4, #0, #16
70006688:	ea44 0405 	orr.w	r4, r4, r5
7000668c:	649c      	str	r4, [r3, #72]	@ 0x48
7000668e:	d002      	beq.n	70006696 <LL_DMA_Init+0xf6>
70006690:	4c2e      	ldr	r4, [pc, #184]	@ (7000674c <LL_DMA_Init+0x1ac>)
70006692:	42a0      	cmp	r0, r4
70006694:	d114      	bne.n	700066c0 <LL_DMA_Init+0x120>
70006696:	f1a1 040c 	sub.w	r4, r1, #12
7000669a:	2c03      	cmp	r4, #3
7000669c:	d810      	bhi.n	700066c0 <LL_DMA_Init+0x120>
7000669e:	6c9c      	ldr	r4, [r3, #72]	@ 0x48
700066a0:	6b55      	ldr	r5, [r2, #52]	@ 0x34
700066a2:	f365 441a 	bfi	r4, r5, #16, #11
700066a6:	649c      	str	r4, [r3, #72]	@ 0x48
700066a8:	6c9d      	ldr	r5, [r3, #72]	@ 0x48
700066aa:	e9d2 461f 	ldrd	r4, r6, [r2, #124]	@ 0x7c
700066ae:	f025 4570 	bic.w	r5, r5, #4026531840	@ 0xf0000000
700066b2:	4334      	orrs	r4, r6
700066b4:	6ed6      	ldr	r6, [r2, #108]	@ 0x6c
700066b6:	4334      	orrs	r4, r6
700066b8:	6f16      	ldr	r6, [r2, #112]	@ 0x70
700066ba:	4334      	orrs	r4, r6
700066bc:	432c      	orrs	r4, r5
700066be:	649c      	str	r4, [r3, #72]	@ 0x48
700066c0:	f1b0 4fa4 	cmp.w	r0, #1375731712	@ 0x52000000
700066c4:	e9d2 5400 	ldrd	r5, r4, [r2]
700066c8:	64dd      	str	r5, [r3, #76]	@ 0x4c
700066ca:	651c      	str	r4, [r3, #80]	@ 0x50
700066cc:	d002      	beq.n	700066d4 <LL_DMA_Init+0x134>
700066ce:	4c1f      	ldr	r4, [pc, #124]	@ (7000674c <LL_DMA_Init+0x1ac>)
700066d0:	42a0      	cmp	r0, r4
700066d2:	d112      	bne.n	700066fa <LL_DMA_Init+0x15a>
700066d4:	390c      	subs	r1, #12
700066d6:	2903      	cmp	r1, #3
700066d8:	d80f      	bhi.n	700066fa <LL_DMA_Init+0x15a>
700066da:	6f90      	ldr	r0, [r2, #120]	@ 0x78
700066dc:	491c      	ldr	r1, [pc, #112]	@ (70006750 <LL_DMA_Init+0x1b0>)
700066de:	ea01 4100 	and.w	r1, r1, r0, lsl #16
700066e2:	6f50      	ldr	r0, [r2, #116]	@ 0x74
700066e4:	f3c0 000c 	ubfx	r0, r0, #0, #13
700066e8:	4301      	orrs	r1, r0
700066ea:	f8d2 0088 	ldr.w	r0, [r2, #136]	@ 0x88
700066ee:	6559      	str	r1, [r3, #84]	@ 0x54
700066f0:	f8b2 1084 	ldrh.w	r1, [r2, #132]	@ 0x84
700066f4:	ea41 4100 	orr.w	r1, r1, r0, lsl #16
700066f8:	6599      	str	r1, [r3, #88]	@ 0x58
700066fa:	f8d2 2090 	ldr.w	r2, [r2, #144]	@ 0x90
700066fe:	2000      	movs	r0, #0
70006700:	6fd9      	ldr	r1, [r3, #124]	@ 0x7c
70006702:	f022 0203 	bic.w	r2, r2, #3
70006706:	f36f 018f 	bfc	r1, #2, #14
7000670a:	0412      	lsls	r2, r2, #16
7000670c:	0c12      	lsrs	r2, r2, #16
7000670e:	430a      	orrs	r2, r1
70006710:	67da      	str	r2, [r3, #124]	@ 0x7c
70006712:	bdf0      	pop	{r4, r5, r6, r7, pc}
70006714:	4c0d      	ldr	r4, [pc, #52]	@ (7000674c <LL_DMA_Init+0x1ac>)
70006716:	42a0      	cmp	r0, r4
70006718:	d186      	bne.n	70006628 <LL_DMA_Init+0x88>
7000671a:	e783      	b.n	70006624 <LL_DMA_Init+0x84>
7000671c:	6954      	ldr	r4, [r2, #20]
7000671e:	6c1d      	ldr	r5, [r3, #64]	@ 0x40
70006720:	3c01      	subs	r4, #1
70006722:	f025 757c 	bic.w	r5, r5, #66060288	@ 0x3f00000
70006726:	0124      	lsls	r4, r4, #4
70006728:	f425 757c 	bic.w	r5, r5, #1008	@ 0x3f0
7000672c:	f404 747c 	and.w	r4, r4, #1008	@ 0x3f0
70006730:	432c      	orrs	r4, r5
70006732:	6995      	ldr	r5, [r2, #24]
70006734:	3d01      	subs	r5, #1
70006736:	052d      	lsls	r5, r5, #20
70006738:	f005 757c 	and.w	r5, r5, #66060288	@ 0x3f00000
7000673c:	432c      	orrs	r4, r5
7000673e:	641c      	str	r4, [r3, #64]	@ 0x40
70006740:	e772      	b.n	70006628 <LL_DMA_Init+0x88>
70006742:	bf00      	nop
70006744:	70009b60 	.word	0x70009b60
70006748:	a3f487f4 	.word	0xa3f487f4
7000674c:	40021000 	.word	0x40021000
70006750:	1fff0000 	.word	0x1fff0000

70006754 <LL_GPIO_Init>:
70006754:	e92d 47f0 	stmdb	sp!, {r4, r5, r6, r7, r8, r9, sl, lr}
70006758:	4602      	mov	r2, r0
7000675a:	680d      	ldr	r5, [r1, #0]
7000675c:	f04f 0c01 	mov.w	ip, #1
70006760:	2703      	movs	r7, #3
70006762:	fa95 f4a5 	rbit	r4, r5
70006766:	fab4 f484 	clz	r4, r4
7000676a:	fa35 f004 	lsrs.w	r0, r5, r4
7000676e:	d101      	bne.n	70006774 <LL_GPIO_Init+0x20>
70006770:	e8bd 87f0 	ldmia.w	sp!, {r4, r5, r6, r7, r8, r9, sl, pc}
70006774:	fa0c f304 	lsl.w	r3, ip, r4
70006778:	402b      	ands	r3, r5
7000677a:	d069      	beq.n	70006850 <LL_GPIO_Init+0xfc>
7000677c:	6848      	ldr	r0, [r1, #4]
7000677e:	1e46      	subs	r6, r0, #1
70006780:	2e01      	cmp	r6, #1
70006782:	d81e      	bhi.n	700067c2 <LL_GPIO_Init+0x6e>
70006784:	fa93 fea3 	rbit	lr, r3
70006788:	fabe fe8e 	clz	lr, lr
7000678c:	6896      	ldr	r6, [r2, #8]
7000678e:	ea4f 0e4e 	mov.w	lr, lr, lsl #1
70006792:	fa07 fe0e 	lsl.w	lr, r7, lr
70006796:	ea26 080e 	bic.w	r8, r6, lr
7000679a:	688e      	ldr	r6, [r1, #8]
7000679c:	fa93 fea3 	rbit	lr, r3
700067a0:	fabe fe8e 	clz	lr, lr
700067a4:	ea4f 0e4e 	mov.w	lr, lr, lsl #1
700067a8:	fa06 f60e 	lsl.w	r6, r6, lr
700067ac:	ea46 0608 	orr.w	r6, r6, r8
700067b0:	6096      	str	r6, [r2, #8]
700067b2:	6856      	ldr	r6, [r2, #4]
700067b4:	ea26 0e03 	bic.w	lr, r6, r3
700067b8:	68ce      	ldr	r6, [r1, #12]
700067ba:	435e      	muls	r6, r3
700067bc:	ea4e 0606 	orr.w	r6, lr, r6
700067c0:	6056      	str	r6, [r2, #4]
700067c2:	fa93 fea3 	rbit	lr, r3
700067c6:	fabe fe8e 	clz	lr, lr
700067ca:	68d6      	ldr	r6, [r2, #12]
700067cc:	2802      	cmp	r0, #2
700067ce:	ea4f 0e4e 	mov.w	lr, lr, lsl #1
700067d2:	fa07 fe0e 	lsl.w	lr, r7, lr
700067d6:	ea26 080e 	bic.w	r8, r6, lr
700067da:	690e      	ldr	r6, [r1, #16]
700067dc:	fa93 fea3 	rbit	lr, r3
700067e0:	fabe fe8e 	clz	lr, lr
700067e4:	ea4f 0e4e 	mov.w	lr, lr, lsl #1
700067e8:	fa06 f60e 	lsl.w	r6, r6, lr
700067ec:	ea46 0608 	orr.w	r6, r6, r8
700067f0:	60d6      	str	r6, [r2, #12]
700067f2:	d11a      	bne.n	7000682a <LL_GPIO_Init+0xd6>
700067f4:	2bff      	cmp	r3, #255	@ 0xff
700067f6:	f8d1 e014 	ldr.w	lr, [r1, #20]
700067fa:	d82b      	bhi.n	70006854 <LL_GPIO_Init+0x100>
700067fc:	fa93 f6a3 	rbit	r6, r3
70006800:	fab6 f686 	clz	r6, r6
70006804:	f04f 090f 	mov.w	r9, #15
70006808:	f8d2 8020 	ldr.w	r8, [r2, #32]
7000680c:	00b6      	lsls	r6, r6, #2
7000680e:	fa09 f606 	lsl.w	r6, r9, r6
70006812:	ea28 0806 	bic.w	r8, r8, r6
70006816:	fa93 f6a3 	rbit	r6, r3
7000681a:	fab6 f686 	clz	r6, r6
7000681e:	00b6      	lsls	r6, r6, #2
70006820:	fa0e f606 	lsl.w	r6, lr, r6
70006824:	ea46 0608 	orr.w	r6, r6, r8
70006828:	6216      	str	r6, [r2, #32]
7000682a:	fa93 f6a3 	rbit	r6, r3
7000682e:	fab6 f686 	clz	r6, r6
70006832:	f8d2 e000 	ldr.w	lr, [r2]
70006836:	fa93 f3a3 	rbit	r3, r3
7000683a:	0076      	lsls	r6, r6, #1
7000683c:	fab3 f383 	clz	r3, r3
70006840:	fa07 f606 	lsl.w	r6, r7, r6
70006844:	005b      	lsls	r3, r3, #1
70006846:	ea2e 0606 	bic.w	r6, lr, r6
7000684a:	4098      	lsls	r0, r3
7000684c:	4330      	orrs	r0, r6
7000684e:	6010      	str	r0, [r2, #0]
70006850:	3401      	adds	r4, #1
70006852:	e78a      	b.n	7000676a <LL_GPIO_Init+0x16>
70006854:	0a1e      	lsrs	r6, r3, #8
70006856:	f04f 0a0f 	mov.w	sl, #15
7000685a:	fa96 f9a6 	rbit	r9, r6
7000685e:	fab9 f989 	clz	r9, r9
70006862:	f8d2 8024 	ldr.w	r8, [r2, #36]	@ 0x24
70006866:	fa96 f6a6 	rbit	r6, r6
7000686a:	ea4f 0989 	mov.w	r9, r9, lsl #2
7000686e:	fab6 f686 	clz	r6, r6
70006872:	fa0a f909 	lsl.w	r9, sl, r9
70006876:	00b6      	lsls	r6, r6, #2
70006878:	ea28 0809 	bic.w	r8, r8, r9
7000687c:	fa0e fe06 	lsl.w	lr, lr, r6
70006880:	ea4e 0608 	orr.w	r6, lr, r8
70006884:	6256      	str	r6, [r2, #36]	@ 0x24
70006886:	e7d0      	b.n	7000682a <LL_GPIO_Init+0xd6>

70006888 <SDMMC_Init>:
70006888:	b084      	sub	sp, #16
7000688a:	b510      	push	{r4, lr}
7000688c:	ac03      	add	r4, sp, #12
7000688e:	e884 000e 	stmia.w	r4, {r1, r2, r3}
70006892:	9b03      	ldr	r3, [sp, #12]
70006894:	6841      	ldr	r1, [r0, #4]
70006896:	4313      	orrs	r3, r2
70006898:	9a05      	ldr	r2, [sp, #20]
7000689a:	4313      	orrs	r3, r2
7000689c:	9a06      	ldr	r2, [sp, #24]
7000689e:	4313      	orrs	r3, r2
700068a0:	9a07      	ldr	r2, [sp, #28]
700068a2:	4313      	orrs	r3, r2
700068a4:	4a04      	ldr	r2, [pc, #16]	@ (700068b8 <SDMMC_Init+0x30>)
700068a6:	400a      	ands	r2, r1
700068a8:	e8bd 4010 	ldmia.w	sp!, {r4, lr}
700068ac:	4313      	orrs	r3, r2
700068ae:	b004      	add	sp, #16
700068b0:	6043      	str	r3, [r0, #4]
700068b2:	2000      	movs	r0, #0
700068b4:	4770      	bx	lr
700068b6:	bf00      	nop
700068b8:	ffc02c00 	.word	0xffc02c00

700068bc <SDMMC_ReadFIFO>:
700068bc:	f8d0 0080 	ldr.w	r0, [r0, #128]	@ 0x80
700068c0:	4770      	bx	lr

700068c2 <SDMMC_WriteFIFO>:
700068c2:	680b      	ldr	r3, [r1, #0]
700068c4:	f8c0 3080 	str.w	r3, [r0, #128]	@ 0x80
700068c8:	2000      	movs	r0, #0
700068ca:	4770      	bx	lr

700068cc <SDMMC_PowerState_ON>:
700068cc:	6803      	ldr	r3, [r0, #0]
700068ce:	f043 0303 	orr.w	r3, r3, #3
700068d2:	6003      	str	r3, [r0, #0]
700068d4:	2000      	movs	r0, #0
700068d6:	4770      	bx	lr

700068d8 <SDMMC_GetPowerState>:
700068d8:	6800      	ldr	r0, [r0, #0]
700068da:	f000 0003 	and.w	r0, r0, #3
700068de:	4770      	bx	lr

700068e0 <SDMMC_SendCommand>:
700068e0:	680b      	ldr	r3, [r1, #0]
700068e2:	b510      	push	{r4, lr}
700068e4:	6083      	str	r3, [r0, #8]
700068e6:	68c4      	ldr	r4, [r0, #12]
700068e8:	e9d1 3201 	ldrd	r3, r2, [r1, #4]
700068ec:	4313      	orrs	r3, r2
700068ee:	68ca      	ldr	r2, [r1, #12]
700068f0:	4313      	orrs	r3, r2
700068f2:	690a      	ldr	r2, [r1, #16]
700068f4:	4313      	orrs	r3, r2
700068f6:	4a03      	ldr	r2, [pc, #12]	@ (70006904 <SDMMC_SendCommand+0x24>)
700068f8:	4022      	ands	r2, r4
700068fa:	4313      	orrs	r3, r2
700068fc:	60c3      	str	r3, [r0, #12]
700068fe:	2000      	movs	r0, #0
70006900:	bd10      	pop	{r4, pc}
70006902:	bf00      	nop
70006904:	fffee0c0 	.word	0xfffee0c0

70006908 <SDMMC_GetResponse>:
70006908:	3014      	adds	r0, #20
7000690a:	5840      	ldr	r0, [r0, r1]
7000690c:	4770      	bx	lr

7000690e <SDMMC_ConfigData>:
7000690e:	680b      	ldr	r3, [r1, #0]
70006910:	b510      	push	{r4, lr}
70006912:	6243      	str	r3, [r0, #36]	@ 0x24
70006914:	684b      	ldr	r3, [r1, #4]
70006916:	6283      	str	r3, [r0, #40]	@ 0x28
70006918:	6ac2      	ldr	r2, [r0, #44]	@ 0x2c
7000691a:	e9d1 3402 	ldrd	r3, r4, [r1, #8]
7000691e:	f022 02ff 	bic.w	r2, r2, #255	@ 0xff
70006922:	4323      	orrs	r3, r4
70006924:	690c      	ldr	r4, [r1, #16]
70006926:	6949      	ldr	r1, [r1, #20]
70006928:	4323      	orrs	r3, r4
7000692a:	430b      	orrs	r3, r1
7000692c:	4313      	orrs	r3, r2
7000692e:	62c3      	str	r3, [r0, #44]	@ 0x2c
70006930:	2000      	movs	r0, #0
70006932:	bd10      	pop	{r4, pc}

70006934 <SDMMC_CmdGoIdleState>:
70006934:	b510      	push	{r4, lr}
70006936:	2300      	movs	r3, #0
70006938:	b086      	sub	sp, #24
7000693a:	4604      	mov	r4, r0
7000693c:	a901      	add	r1, sp, #4
7000693e:	e9cd 3301 	strd	r3, r3, [sp, #4]
70006942:	e9cd 3303 	strd	r3, r3, [sp, #12]
70006946:	f44f 5380 	mov.w	r3, #4096	@ 0x1000
7000694a:	9305      	str	r3, [sp, #20]
7000694c:	f7ff ffc8 	bl	700068e0 <SDMMC_SendCommand>
70006950:	4b0a      	ldr	r3, [pc, #40]	@ (7000697c <SDMMC_CmdGoIdleState+0x48>)
70006952:	f44f 52fa 	mov.w	r2, #8000	@ 0x1f40
70006956:	681b      	ldr	r3, [r3, #0]
70006958:	fbb3 f3f2 	udiv	r3, r3, r2
7000695c:	f241 3288 	movw	r2, #5000	@ 0x1388
70006960:	4353      	muls	r3, r2
70006962:	b143      	cbz	r3, 70006976 <SDMMC_CmdGoIdleState+0x42>
70006964:	6b62      	ldr	r2, [r4, #52]	@ 0x34
70006966:	3b01      	subs	r3, #1
70006968:	0612      	lsls	r2, r2, #24
7000696a:	d5fa      	bpl.n	70006962 <SDMMC_CmdGoIdleState+0x2e>
7000696c:	4b04      	ldr	r3, [pc, #16]	@ (70006980 <SDMMC_CmdGoIdleState+0x4c>)
7000696e:	2000      	movs	r0, #0
70006970:	63a3      	str	r3, [r4, #56]	@ 0x38
70006972:	b006      	add	sp, #24
70006974:	bd10      	pop	{r4, pc}
70006976:	f04f 4000 	mov.w	r0, #2147483648	@ 0x80000000
7000697a:	e7fa      	b.n	70006972 <SDMMC_CmdGoIdleState+0x3e>
7000697c:	240000ec 	.word	0x240000ec
70006980:	002000c5 	.word	0x002000c5

70006984 <SDMMC_GetCmdResp1>:
70006984:	4603      	mov	r3, r0
70006986:	4844      	ldr	r0, [pc, #272]	@ (70006a98 <SDMMC_GetCmdResp1+0x114>)
70006988:	b510      	push	{r4, lr}
7000698a:	6800      	ldr	r0, [r0, #0]
7000698c:	f44f 54fa 	mov.w	r4, #8000	@ 0x1f40
70006990:	fbb0 f0f4 	udiv	r0, r0, r4
70006994:	4c41      	ldr	r4, [pc, #260]	@ (70006a9c <SDMMC_GetCmdResp1+0x118>)
70006996:	4342      	muls	r2, r0
70006998:	2a00      	cmp	r2, #0
7000699a:	d048      	beq.n	70006a2e <SDMMC_GetCmdResp1+0xaa>
7000699c:	6b58      	ldr	r0, [r3, #52]	@ 0x34
7000699e:	4220      	tst	r0, r4
700069a0:	d007      	beq.n	700069b2 <SDMMC_GetCmdResp1+0x2e>
700069a2:	0480      	lsls	r0, r0, #18
700069a4:	d405      	bmi.n	700069b2 <SDMMC_GetCmdResp1+0x2e>
700069a6:	6b5a      	ldr	r2, [r3, #52]	@ 0x34
700069a8:	0754      	lsls	r4, r2, #29
700069aa:	d504      	bpl.n	700069b6 <SDMMC_GetCmdResp1+0x32>
700069ac:	2004      	movs	r0, #4
700069ae:	6398      	str	r0, [r3, #56]	@ 0x38
700069b0:	bd10      	pop	{r4, pc}
700069b2:	3a01      	subs	r2, #1
700069b4:	e7f0      	b.n	70006998 <SDMMC_GetCmdResp1+0x14>
700069b6:	6b5a      	ldr	r2, [r3, #52]	@ 0x34
700069b8:	07d0      	lsls	r0, r2, #31
700069ba:	d503      	bpl.n	700069c4 <SDMMC_GetCmdResp1+0x40>
700069bc:	2201      	movs	r2, #1
700069be:	639a      	str	r2, [r3, #56]	@ 0x38
700069c0:	2001      	movs	r0, #1
700069c2:	e7f5      	b.n	700069b0 <SDMMC_GetCmdResp1+0x2c>
700069c4:	4a36      	ldr	r2, [pc, #216]	@ (70006aa0 <SDMMC_GetCmdResp1+0x11c>)
700069c6:	639a      	str	r2, [r3, #56]	@ 0x38
700069c8:	691a      	ldr	r2, [r3, #16]
700069ca:	b2d2      	uxtb	r2, r2
700069cc:	4291      	cmp	r1, r2
700069ce:	d1f7      	bne.n	700069c0 <SDMMC_GetCmdResp1+0x3c>
700069d0:	695b      	ldr	r3, [r3, #20]
700069d2:	4834      	ldr	r0, [pc, #208]	@ (70006aa4 <SDMMC_GetCmdResp1+0x120>)
700069d4:	4018      	ands	r0, r3
700069d6:	2800      	cmp	r0, #0
700069d8:	d0ea      	beq.n	700069b0 <SDMMC_GetCmdResp1+0x2c>
700069da:	2b00      	cmp	r3, #0
700069dc:	db2a      	blt.n	70006a34 <SDMMC_GetCmdResp1+0xb0>
700069de:	005a      	lsls	r2, r3, #1
700069e0:	d42b      	bmi.n	70006a3a <SDMMC_GetCmdResp1+0xb6>
700069e2:	009c      	lsls	r4, r3, #2
700069e4:	d42b      	bmi.n	70006a3e <SDMMC_GetCmdResp1+0xba>
700069e6:	00d9      	lsls	r1, r3, #3
700069e8:	d42b      	bmi.n	70006a42 <SDMMC_GetCmdResp1+0xbe>
700069ea:	011a      	lsls	r2, r3, #4
700069ec:	d42c      	bmi.n	70006a48 <SDMMC_GetCmdResp1+0xc4>
700069ee:	015c      	lsls	r4, r3, #5
700069f0:	d42d      	bmi.n	70006a4e <SDMMC_GetCmdResp1+0xca>
700069f2:	01d9      	lsls	r1, r3, #7
700069f4:	d42e      	bmi.n	70006a54 <SDMMC_GetCmdResp1+0xd0>
700069f6:	021a      	lsls	r2, r3, #8
700069f8:	d42f      	bmi.n	70006a5a <SDMMC_GetCmdResp1+0xd6>
700069fa:	025c      	lsls	r4, r3, #9
700069fc:	d430      	bmi.n	70006a60 <SDMMC_GetCmdResp1+0xdc>
700069fe:	0299      	lsls	r1, r3, #10
70006a00:	d431      	bmi.n	70006a66 <SDMMC_GetCmdResp1+0xe2>
70006a02:	02da      	lsls	r2, r3, #11
70006a04:	d432      	bmi.n	70006a6c <SDMMC_GetCmdResp1+0xe8>
70006a06:	035c      	lsls	r4, r3, #13
70006a08:	d433      	bmi.n	70006a72 <SDMMC_GetCmdResp1+0xee>
70006a0a:	0399      	lsls	r1, r3, #14
70006a0c:	d434      	bmi.n	70006a78 <SDMMC_GetCmdResp1+0xf4>
70006a0e:	03da      	lsls	r2, r3, #15
70006a10:	d435      	bmi.n	70006a7e <SDMMC_GetCmdResp1+0xfa>
70006a12:	041c      	lsls	r4, r3, #16
70006a14:	d436      	bmi.n	70006a84 <SDMMC_GetCmdResp1+0x100>
70006a16:	0459      	lsls	r1, r3, #17
70006a18:	d437      	bmi.n	70006a8a <SDMMC_GetCmdResp1+0x106>
70006a1a:	049a      	lsls	r2, r3, #18
70006a1c:	d438      	bmi.n	70006a90 <SDMMC_GetCmdResp1+0x10c>
70006a1e:	f013 0f08 	tst.w	r3, #8
70006a22:	bf0c      	ite	eq
70006a24:	f44f 3080 	moveq.w	r0, #65536	@ 0x10000
70006a28:	f44f 0000 	movne.w	r0, #8388608	@ 0x800000
70006a2c:	e7c0      	b.n	700069b0 <SDMMC_GetCmdResp1+0x2c>
70006a2e:	f04f 4000 	mov.w	r0, #2147483648	@ 0x80000000
70006a32:	e7bd      	b.n	700069b0 <SDMMC_GetCmdResp1+0x2c>
70006a34:	f04f 7000 	mov.w	r0, #33554432	@ 0x2000000
70006a38:	e7ba      	b.n	700069b0 <SDMMC_GetCmdResp1+0x2c>
70006a3a:	2040      	movs	r0, #64	@ 0x40
70006a3c:	e7b8      	b.n	700069b0 <SDMMC_GetCmdResp1+0x2c>
70006a3e:	2080      	movs	r0, #128	@ 0x80
70006a40:	e7b6      	b.n	700069b0 <SDMMC_GetCmdResp1+0x2c>
70006a42:	f44f 7080 	mov.w	r0, #256	@ 0x100
70006a46:	e7b3      	b.n	700069b0 <SDMMC_GetCmdResp1+0x2c>
70006a48:	f44f 7000 	mov.w	r0, #512	@ 0x200
70006a4c:	e7b0      	b.n	700069b0 <SDMMC_GetCmdResp1+0x2c>
70006a4e:	f44f 6080 	mov.w	r0, #1024	@ 0x400
70006a52:	e7ad      	b.n	700069b0 <SDMMC_GetCmdResp1+0x2c>
70006a54:	f44f 6000 	mov.w	r0, #2048	@ 0x800
70006a58:	e7aa      	b.n	700069b0 <SDMMC_GetCmdResp1+0x2c>
70006a5a:	f44f 5080 	mov.w	r0, #4096	@ 0x1000
70006a5e:	e7a7      	b.n	700069b0 <SDMMC_GetCmdResp1+0x2c>
70006a60:	f44f 5000 	mov.w	r0, #8192	@ 0x2000
70006a64:	e7a4      	b.n	700069b0 <SDMMC_GetCmdResp1+0x2c>
70006a66:	f44f 4080 	mov.w	r0, #16384	@ 0x4000
70006a6a:	e7a1      	b.n	700069b0 <SDMMC_GetCmdResp1+0x2c>
70006a6c:	f44f 4000 	mov.w	r0, #32768	@ 0x8000
70006a70:	e79e      	b.n	700069b0 <SDMMC_GetCmdResp1+0x2c>
70006a72:	f44f 3000 	mov.w	r0, #131072	@ 0x20000
70006a76:	e79b      	b.n	700069b0 <SDMMC_GetCmdResp1+0x2c>
70006a78:	f44f 2080 	mov.w	r0, #262144	@ 0x40000
70006a7c:	e798      	b.n	700069b0 <SDMMC_GetCmdResp1+0x2c>
70006a7e:	f44f 2000 	mov.w	r0, #524288	@ 0x80000
70006a82:	e795      	b.n	700069b0 <SDMMC_GetCmdResp1+0x2c>
70006a84:	f44f 1080 	mov.w	r0, #1048576	@ 0x100000
70006a88:	e792      	b.n	700069b0 <SDMMC_GetCmdResp1+0x2c>
70006a8a:	f44f 1000 	mov.w	r0, #2097152	@ 0x200000
70006a8e:	e78f      	b.n	700069b0 <SDMMC_GetCmdResp1+0x2c>
70006a90:	f44f 0080 	mov.w	r0, #4194304	@ 0x400000
70006a94:	e78c      	b.n	700069b0 <SDMMC_GetCmdResp1+0x2c>
70006a96:	bf00      	nop
70006a98:	240000ec 	.word	0x240000ec
70006a9c:	00200045 	.word	0x00200045
70006aa0:	002000c5 	.word	0x002000c5
70006aa4:	fdffe008 	.word	0xfdffe008

70006aa8 <SDMMC_CmdBlockLength>:
70006aa8:	b530      	push	{r4, r5, lr}
70006aaa:	f44f 7380 	mov.w	r3, #256	@ 0x100
70006aae:	b087      	sub	sp, #28
70006ab0:	2510      	movs	r5, #16
70006ab2:	4604      	mov	r4, r0
70006ab4:	2200      	movs	r2, #0
70006ab6:	9101      	str	r1, [sp, #4]
70006ab8:	a901      	add	r1, sp, #4
70006aba:	e9cd 5302 	strd	r5, r3, [sp, #8]
70006abe:	f44f 5380 	mov.w	r3, #4096	@ 0x1000
70006ac2:	e9cd 2304 	strd	r2, r3, [sp, #16]
70006ac6:	f7ff ff0b 	bl	700068e0 <SDMMC_SendCommand>
70006aca:	f241 3288 	movw	r2, #5000	@ 0x1388
70006ace:	4629      	mov	r1, r5
70006ad0:	4620      	mov	r0, r4
70006ad2:	b007      	add	sp, #28
70006ad4:	e8bd 4030 	ldmia.w	sp!, {r4, r5, lr}
70006ad8:	f7ff bf54 	b.w	70006984 <SDMMC_GetCmdResp1>

70006adc <SDMMC_CmdReadSingleBlock>:
70006adc:	b530      	push	{r4, r5, lr}
70006ade:	f44f 7380 	mov.w	r3, #256	@ 0x100
70006ae2:	b087      	sub	sp, #28
70006ae4:	2511      	movs	r5, #17
70006ae6:	4604      	mov	r4, r0
70006ae8:	2200      	movs	r2, #0
70006aea:	9101      	str	r1, [sp, #4]
70006aec:	a901      	add	r1, sp, #4
70006aee:	e9cd 5302 	strd	r5, r3, [sp, #8]
70006af2:	f44f 5380 	mov.w	r3, #4096	@ 0x1000
70006af6:	e9cd 2304 	strd	r2, r3, [sp, #16]
70006afa:	f7ff fef1 	bl	700068e0 <SDMMC_SendCommand>
70006afe:	f241 3288 	movw	r2, #5000	@ 0x1388
70006b02:	4629      	mov	r1, r5
70006b04:	4620      	mov	r0, r4
70006b06:	b007      	add	sp, #28
70006b08:	e8bd 4030 	ldmia.w	sp!, {r4, r5, lr}
70006b0c:	f7ff bf3a 	b.w	70006984 <SDMMC_GetCmdResp1>

70006b10 <SDMMC_CmdReadMultiBlock>:
70006b10:	b530      	push	{r4, r5, lr}
70006b12:	f44f 7380 	mov.w	r3, #256	@ 0x100
70006b16:	b087      	sub	sp, #28
70006b18:	2512      	movs	r5, #18
70006b1a:	4604      	mov	r4, r0
70006b1c:	2200      	movs	r2, #0
70006b1e:	9101      	str	r1, [sp, #4]
70006b20:	a901      	add	r1, sp, #4
70006b22:	e9cd 5302 	strd	r5, r3, [sp, #8]
70006b26:	f44f 5380 	mov.w	r3, #4096	@ 0x1000
70006b2a:	e9cd 2304 	strd	r2, r3, [sp, #16]
70006b2e:	f7ff fed7 	bl	700068e0 <SDMMC_SendCommand>
70006b32:	f241 3288 	movw	r2, #5000	@ 0x1388
70006b36:	4629      	mov	r1, r5
70006b38:	4620      	mov	r0, r4
70006b3a:	b007      	add	sp, #28
70006b3c:	e8bd 4030 	ldmia.w	sp!, {r4, r5, lr}
70006b40:	f7ff bf20 	b.w	70006984 <SDMMC_GetCmdResp1>

70006b44 <SDMMC_CmdWriteSingleBlock>:
70006b44:	b530      	push	{r4, r5, lr}
70006b46:	f44f 7380 	mov.w	r3, #256	@ 0x100
70006b4a:	b087      	sub	sp, #28
70006b4c:	2518      	movs	r5, #24
70006b4e:	4604      	mov	r4, r0
70006b50:	2200      	movs	r2, #0
70006b52:	9101      	str	r1, [sp, #4]
70006b54:	a901      	add	r1, sp, #4
70006b56:	e9cd 5302 	strd	r5, r3, [sp, #8]
70006b5a:	f44f 5380 	mov.w	r3, #4096	@ 0x1000
70006b5e:	e9cd 2304 	strd	r2, r3, [sp, #16]
70006b62:	f7ff febd 	bl	700068e0 <SDMMC_SendCommand>
70006b66:	f241 3288 	movw	r2, #5000	@ 0x1388
70006b6a:	4629      	mov	r1, r5
70006b6c:	4620      	mov	r0, r4
70006b6e:	b007      	add	sp, #28
70006b70:	e8bd 4030 	ldmia.w	sp!, {r4, r5, lr}
70006b74:	f7ff bf06 	b.w	70006984 <SDMMC_GetCmdResp1>

70006b78 <SDMMC_CmdWriteMultiBlock>:
70006b78:	b530      	push	{r4, r5, lr}
70006b7a:	f44f 7380 	mov.w	r3, #256	@ 0x100
70006b7e:	b087      	sub	sp, #28
70006b80:	2519      	movs	r5, #25
70006b82:	4604      	mov	r4, r0
70006b84:	2200      	movs	r2, #0
70006b86:	9101      	str	r1, [sp, #4]
70006b88:	a901      	add	r1, sp, #4
70006b8a:	e9cd 5302 	strd	r5, r3, [sp, #8]
70006b8e:	f44f 5380 	mov.w	r3, #4096	@ 0x1000
70006b92:	e9cd 2304 	strd	r2, r3, [sp, #16]
70006b96:	f7ff fea3 	bl	700068e0 <SDMMC_SendCommand>
70006b9a:	f241 3288 	movw	r2, #5000	@ 0x1388
70006b9e:	4629      	mov	r1, r5
70006ba0:	4620      	mov	r0, r4
70006ba2:	b007      	add	sp, #28
70006ba4:	e8bd 4030 	ldmia.w	sp!, {r4, r5, lr}
70006ba8:	f7ff beec 	b.w	70006984 <SDMMC_GetCmdResp1>

70006bac <SDMMC_CmdStopTransfer>:
70006bac:	b530      	push	{r4, r5, lr}
70006bae:	2300      	movs	r3, #0
70006bb0:	b087      	sub	sp, #28
70006bb2:	250c      	movs	r5, #12
70006bb4:	f44f 7280 	mov.w	r2, #256	@ 0x100
70006bb8:	4604      	mov	r4, r0
70006bba:	a901      	add	r1, sp, #4
70006bbc:	e9cd 2303 	strd	r2, r3, [sp, #12]
70006bc0:	e9cd 3501 	strd	r3, r5, [sp, #4]
70006bc4:	f44f 5380 	mov.w	r3, #4096	@ 0x1000
70006bc8:	9305      	str	r3, [sp, #20]
70006bca:	68c3      	ldr	r3, [r0, #12]
70006bcc:	f043 0380 	orr.w	r3, r3, #128	@ 0x80
70006bd0:	60c3      	str	r3, [r0, #12]
70006bd2:	68c3      	ldr	r3, [r0, #12]
70006bd4:	f023 0340 	bic.w	r3, r3, #64	@ 0x40
70006bd8:	60c3      	str	r3, [r0, #12]
70006bda:	f7ff fe81 	bl	700068e0 <SDMMC_SendCommand>
70006bde:	4a07      	ldr	r2, [pc, #28]	@ (70006bfc <SDMMC_CmdStopTransfer+0x50>)
70006be0:	4629      	mov	r1, r5
70006be2:	4620      	mov	r0, r4
70006be4:	f7ff fece 	bl	70006984 <SDMMC_GetCmdResp1>
70006be8:	68e3      	ldr	r3, [r4, #12]
70006bea:	f1b0 7f00 	cmp.w	r0, #33554432	@ 0x2000000
70006bee:	f023 0380 	bic.w	r3, r3, #128	@ 0x80
70006bf2:	bf08      	it	eq
70006bf4:	2000      	moveq	r0, #0
70006bf6:	60e3      	str	r3, [r4, #12]
70006bf8:	b007      	add	sp, #28
70006bfa:	bd30      	pop	{r4, r5, pc}
70006bfc:	05f5e100 	.word	0x05f5e100

70006c00 <SDMMC_CmdSelDesel>:
70006c00:	b530      	push	{r4, r5, lr}
70006c02:	f44f 7380 	mov.w	r3, #256	@ 0x100
70006c06:	b087      	sub	sp, #28
70006c08:	2507      	movs	r5, #7
70006c0a:	4604      	mov	r4, r0
70006c0c:	2200      	movs	r2, #0
70006c0e:	9101      	str	r1, [sp, #4]
70006c10:	a901      	add	r1, sp, #4
70006c12:	e9cd 5302 	strd	r5, r3, [sp, #8]
70006c16:	f44f 5380 	mov.w	r3, #4096	@ 0x1000
70006c1a:	e9cd 2304 	strd	r2, r3, [sp, #16]
70006c1e:	f7ff fe5f 	bl	700068e0 <SDMMC_SendCommand>
70006c22:	f241 3288 	movw	r2, #5000	@ 0x1388
70006c26:	4629      	mov	r1, r5
70006c28:	4620      	mov	r0, r4
70006c2a:	b007      	add	sp, #28
70006c2c:	e8bd 4030 	ldmia.w	sp!, {r4, r5, lr}
70006c30:	f7ff bea8 	b.w	70006984 <SDMMC_GetCmdResp1>

70006c34 <SDMMC_CmdAppCommand>:
70006c34:	b530      	push	{r4, r5, lr}
70006c36:	f44f 7380 	mov.w	r3, #256	@ 0x100
70006c3a:	b087      	sub	sp, #28
70006c3c:	2537      	movs	r5, #55	@ 0x37
70006c3e:	4604      	mov	r4, r0
70006c40:	2200      	movs	r2, #0
70006c42:	9101      	str	r1, [sp, #4]
70006c44:	a901      	add	r1, sp, #4
70006c46:	e9cd 5302 	strd	r5, r3, [sp, #8]
70006c4a:	f44f 5380 	mov.w	r3, #4096	@ 0x1000
70006c4e:	e9cd 2304 	strd	r2, r3, [sp, #16]
70006c52:	f7ff fe45 	bl	700068e0 <SDMMC_SendCommand>
70006c56:	f241 3288 	movw	r2, #5000	@ 0x1388
70006c5a:	4629      	mov	r1, r5
70006c5c:	4620      	mov	r0, r4
70006c5e:	b007      	add	sp, #28
70006c60:	e8bd 4030 	ldmia.w	sp!, {r4, r5, lr}
70006c64:	f7ff be8e 	b.w	70006984 <SDMMC_GetCmdResp1>

70006c68 <SDMMC_CmdBusWidth>:
70006c68:	b530      	push	{r4, r5, lr}
70006c6a:	f44f 7380 	mov.w	r3, #256	@ 0x100
70006c6e:	b087      	sub	sp, #28
70006c70:	2506      	movs	r5, #6
70006c72:	4604      	mov	r4, r0
70006c74:	2200      	movs	r2, #0
70006c76:	9101      	str	r1, [sp, #4]
70006c78:	a901      	add	r1, sp, #4
70006c7a:	e9cd 5302 	strd	r5, r3, [sp, #8]
70006c7e:	f44f 5380 	mov.w	r3, #4096	@ 0x1000
70006c82:	e9cd 2304 	strd	r2, r3, [sp, #16]
70006c86:	f7ff fe2b 	bl	700068e0 <SDMMC_SendCommand>
70006c8a:	f241 3288 	movw	r2, #5000	@ 0x1388
70006c8e:	4629      	mov	r1, r5
70006c90:	4620      	mov	r0, r4
70006c92:	b007      	add	sp, #28
70006c94:	e8bd 4030 	ldmia.w	sp!, {r4, r5, lr}
70006c98:	f7ff be74 	b.w	70006984 <SDMMC_GetCmdResp1>

70006c9c <SDMMC_CmdSwitch>:
70006c9c:	f7ff bfe4 	b.w	70006c68 <SDMMC_CmdBusWidth>

70006ca0 <SDMMC_CmdSendSCR>:
70006ca0:	b530      	push	{r4, r5, lr}
70006ca2:	2300      	movs	r3, #0
70006ca4:	b087      	sub	sp, #28
70006ca6:	2533      	movs	r5, #51	@ 0x33
70006ca8:	f44f 7280 	mov.w	r2, #256	@ 0x100
70006cac:	4604      	mov	r4, r0
70006cae:	a901      	add	r1, sp, #4
70006cb0:	e9cd 2303 	strd	r2, r3, [sp, #12]
70006cb4:	e9cd 3501 	strd	r3, r5, [sp, #4]
70006cb8:	f44f 5380 	mov.w	r3, #4096	@ 0x1000
70006cbc:	9305      	str	r3, [sp, #20]
70006cbe:	f7ff fe0f 	bl	700068e0 <SDMMC_SendCommand>
70006cc2:	f241 3288 	movw	r2, #5000	@ 0x1388
70006cc6:	4629      	mov	r1, r5
70006cc8:	4620      	mov	r0, r4
70006cca:	b007      	add	sp, #28
70006ccc:	e8bd 4030 	ldmia.w	sp!, {r4, r5, lr}
70006cd0:	f7ff be58 	b.w	70006984 <SDMMC_GetCmdResp1>

70006cd4 <SDMMC_CmdSendStatus>:
70006cd4:	b530      	push	{r4, r5, lr}
70006cd6:	f44f 7380 	mov.w	r3, #256	@ 0x100
70006cda:	b087      	sub	sp, #28
70006cdc:	250d      	movs	r5, #13
70006cde:	4604      	mov	r4, r0
70006ce0:	2200      	movs	r2, #0
70006ce2:	9101      	str	r1, [sp, #4]
70006ce4:	a901      	add	r1, sp, #4
70006ce6:	e9cd 5302 	strd	r5, r3, [sp, #8]
70006cea:	f44f 5380 	mov.w	r3, #4096	@ 0x1000
70006cee:	e9cd 2304 	strd	r2, r3, [sp, #16]
70006cf2:	f7ff fdf5 	bl	700068e0 <SDMMC_SendCommand>
70006cf6:	f241 3288 	movw	r2, #5000	@ 0x1388
70006cfa:	4629      	mov	r1, r5
70006cfc:	4620      	mov	r0, r4
70006cfe:	b007      	add	sp, #28
70006d00:	e8bd 4030 	ldmia.w	sp!, {r4, r5, lr}
70006d04:	f7ff be3e 	b.w	70006984 <SDMMC_GetCmdResp1>

70006d08 <SDMMC_CmdStatusRegister>:
70006d08:	b530      	push	{r4, r5, lr}
70006d0a:	2300      	movs	r3, #0
70006d0c:	b087      	sub	sp, #28
70006d0e:	250d      	movs	r5, #13
70006d10:	f44f 7280 	mov.w	r2, #256	@ 0x100
70006d14:	4604      	mov	r4, r0
70006d16:	a901      	add	r1, sp, #4
70006d18:	e9cd 2303 	strd	r2, r3, [sp, #12]
70006d1c:	e9cd 3501 	strd	r3, r5, [sp, #4]
70006d20:	f44f 5380 	mov.w	r3, #4096	@ 0x1000
70006d24:	9305      	str	r3, [sp, #20]
70006d26:	f7ff fddb 	bl	700068e0 <SDMMC_SendCommand>
70006d2a:	f241 3288 	movw	r2, #5000	@ 0x1388
70006d2e:	4629      	mov	r1, r5
70006d30:	4620      	mov	r0, r4
70006d32:	b007      	add	sp, #28
70006d34:	e8bd 4030 	ldmia.w	sp!, {r4, r5, lr}
70006d38:	f7ff be24 	b.w	70006984 <SDMMC_GetCmdResp1>

70006d3c <SDMMC_GetCmdResp2>:
70006d3c:	4b11      	ldr	r3, [pc, #68]	@ (70006d84 <SDMMC_GetCmdResp2+0x48>)
70006d3e:	f44f 51fa 	mov.w	r1, #8000	@ 0x1f40
70006d42:	4602      	mov	r2, r0
70006d44:	681b      	ldr	r3, [r3, #0]
70006d46:	fbb3 f3f1 	udiv	r3, r3, r1
70006d4a:	f241 3188 	movw	r1, #5000	@ 0x1388
70006d4e:	434b      	muls	r3, r1
70006d50:	b1ab      	cbz	r3, 70006d7e <SDMMC_GetCmdResp2+0x42>
70006d52:	6b51      	ldr	r1, [r2, #52]	@ 0x34
70006d54:	f011 0f45 	tst.w	r1, #69	@ 0x45
70006d58:	d007      	beq.n	70006d6a <SDMMC_GetCmdResp2+0x2e>
70006d5a:	0489      	lsls	r1, r1, #18
70006d5c:	d405      	bmi.n	70006d6a <SDMMC_GetCmdResp2+0x2e>
70006d5e:	6b53      	ldr	r3, [r2, #52]	@ 0x34
70006d60:	075b      	lsls	r3, r3, #29
70006d62:	d504      	bpl.n	70006d6e <SDMMC_GetCmdResp2+0x32>
70006d64:	2004      	movs	r0, #4
70006d66:	6390      	str	r0, [r2, #56]	@ 0x38
70006d68:	4770      	bx	lr
70006d6a:	3b01      	subs	r3, #1
70006d6c:	e7f0      	b.n	70006d50 <SDMMC_GetCmdResp2+0x14>
70006d6e:	6b50      	ldr	r0, [r2, #52]	@ 0x34
70006d70:	f010 0001 	ands.w	r0, r0, #1
70006d74:	bf14      	ite	ne
70006d76:	2301      	movne	r3, #1
70006d78:	4b03      	ldreq	r3, [pc, #12]	@ (70006d88 <SDMMC_GetCmdResp2+0x4c>)
70006d7a:	6393      	str	r3, [r2, #56]	@ 0x38
70006d7c:	4770      	bx	lr
70006d7e:	f04f 4000 	mov.w	r0, #2147483648	@ 0x80000000
70006d82:	4770      	bx	lr
70006d84:	240000ec 	.word	0x240000ec
70006d88:	002000c5 	.word	0x002000c5

70006d8c <SDMMC_CmdSendCID>:
70006d8c:	b510      	push	{r4, lr}
70006d8e:	2300      	movs	r3, #0
70006d90:	b086      	sub	sp, #24
70006d92:	2202      	movs	r2, #2
70006d94:	4604      	mov	r4, r0
70006d96:	a901      	add	r1, sp, #4
70006d98:	e9cd 3201 	strd	r3, r2, [sp, #4]
70006d9c:	f44f 7240 	mov.w	r2, #768	@ 0x300
70006da0:	e9cd 2303 	strd	r2, r3, [sp, #12]
70006da4:	f44f 5380 	mov.w	r3, #4096	@ 0x1000
70006da8:	9305      	str	r3, [sp, #20]
70006daa:	f7ff fd99 	bl	700068e0 <SDMMC_SendCommand>
70006dae:	4620      	mov	r0, r4
70006db0:	b006      	add	sp, #24
70006db2:	e8bd 4010 	ldmia.w	sp!, {r4, lr}
70006db6:	f7ff bfc1 	b.w	70006d3c <SDMMC_GetCmdResp2>

70006dba <SDMMC_CmdSendCSD>:
70006dba:	b510      	push	{r4, lr}
70006dbc:	2209      	movs	r2, #9
70006dbe:	b086      	sub	sp, #24
70006dc0:	f44f 7340 	mov.w	r3, #768	@ 0x300
70006dc4:	4604      	mov	r4, r0
70006dc6:	9101      	str	r1, [sp, #4]
70006dc8:	2100      	movs	r1, #0
70006dca:	e9cd 2302 	strd	r2, r3, [sp, #8]
70006dce:	f44f 5380 	mov.w	r3, #4096	@ 0x1000
70006dd2:	e9cd 1304 	strd	r1, r3, [sp, #16]
70006dd6:	a901      	add	r1, sp, #4
70006dd8:	f7ff fd82 	bl	700068e0 <SDMMC_SendCommand>
70006ddc:	4620      	mov	r0, r4
70006dde:	b006      	add	sp, #24
70006de0:	e8bd 4010 	ldmia.w	sp!, {r4, lr}
70006de4:	f7ff bfaa 	b.w	70006d3c <SDMMC_GetCmdResp2>

70006de8 <SDMMC_GetCmdResp3>:
70006de8:	4b0f      	ldr	r3, [pc, #60]	@ (70006e28 <SDMMC_GetCmdResp3+0x40>)
70006dea:	f44f 51fa 	mov.w	r1, #8000	@ 0x1f40
70006dee:	4602      	mov	r2, r0
70006df0:	681b      	ldr	r3, [r3, #0]
70006df2:	fbb3 f3f1 	udiv	r3, r3, r1
70006df6:	f241 3188 	movw	r1, #5000	@ 0x1388
70006dfa:	434b      	muls	r3, r1
70006dfc:	b18b      	cbz	r3, 70006e22 <SDMMC_GetCmdResp3+0x3a>
70006dfe:	6b51      	ldr	r1, [r2, #52]	@ 0x34
70006e00:	f011 0f45 	tst.w	r1, #69	@ 0x45
70006e04:	d008      	beq.n	70006e18 <SDMMC_GetCmdResp3+0x30>
70006e06:	0489      	lsls	r1, r1, #18
70006e08:	d406      	bmi.n	70006e18 <SDMMC_GetCmdResp3+0x30>
70006e0a:	6b50      	ldr	r0, [r2, #52]	@ 0x34
70006e0c:	f010 0004 	ands.w	r0, r0, #4
70006e10:	d004      	beq.n	70006e1c <SDMMC_GetCmdResp3+0x34>
70006e12:	2004      	movs	r0, #4
70006e14:	6390      	str	r0, [r2, #56]	@ 0x38
70006e16:	4770      	bx	lr
70006e18:	3b01      	subs	r3, #1
70006e1a:	e7ef      	b.n	70006dfc <SDMMC_GetCmdResp3+0x14>
70006e1c:	4b03      	ldr	r3, [pc, #12]	@ (70006e2c <SDMMC_GetCmdResp3+0x44>)
70006e1e:	6393      	str	r3, [r2, #56]	@ 0x38
70006e20:	4770      	bx	lr
70006e22:	f04f 4000 	mov.w	r0, #2147483648	@ 0x80000000
70006e26:	4770      	bx	lr
70006e28:	240000ec 	.word	0x240000ec
70006e2c:	002000c5 	.word	0x002000c5

70006e30 <SDMMC_CmdAppOperCommand>:
70006e30:	b510      	push	{r4, lr}
70006e32:	2229      	movs	r2, #41	@ 0x29
70006e34:	b086      	sub	sp, #24
70006e36:	f44f 7380 	mov.w	r3, #256	@ 0x100
70006e3a:	4604      	mov	r4, r0
70006e3c:	9101      	str	r1, [sp, #4]
70006e3e:	2100      	movs	r1, #0
70006e40:	e9cd 2302 	strd	r2, r3, [sp, #8]
70006e44:	f44f 5380 	mov.w	r3, #4096	@ 0x1000
70006e48:	e9cd 1304 	strd	r1, r3, [sp, #16]
70006e4c:	a901      	add	r1, sp, #4
70006e4e:	f7ff fd47 	bl	700068e0 <SDMMC_SendCommand>
70006e52:	4620      	mov	r0, r4
70006e54:	b006      	add	sp, #24
70006e56:	e8bd 4010 	ldmia.w	sp!, {r4, lr}
70006e5a:	f7ff bfc5 	b.w	70006de8 <SDMMC_GetCmdResp3>
	...

70006e60 <SDMMC_GetCmdResp6>:
70006e60:	4603      	mov	r3, r0
70006e62:	481e      	ldr	r0, [pc, #120]	@ (70006edc <SDMMC_GetCmdResp6+0x7c>)
70006e64:	b510      	push	{r4, lr}
70006e66:	6800      	ldr	r0, [r0, #0]
70006e68:	f44f 54fa 	mov.w	r4, #8000	@ 0x1f40
70006e6c:	fbb0 f0f4 	udiv	r0, r0, r4
70006e70:	f241 3488 	movw	r4, #5000	@ 0x1388
70006e74:	4360      	muls	r0, r4
70006e76:	b358      	cbz	r0, 70006ed0 <SDMMC_GetCmdResp6+0x70>
70006e78:	6b5c      	ldr	r4, [r3, #52]	@ 0x34
70006e7a:	f014 0f45 	tst.w	r4, #69	@ 0x45
70006e7e:	d007      	beq.n	70006e90 <SDMMC_GetCmdResp6+0x30>
70006e80:	04a4      	lsls	r4, r4, #18
70006e82:	d405      	bmi.n	70006e90 <SDMMC_GetCmdResp6+0x30>
70006e84:	6b58      	ldr	r0, [r3, #52]	@ 0x34
70006e86:	0744      	lsls	r4, r0, #29
70006e88:	d504      	bpl.n	70006e94 <SDMMC_GetCmdResp6+0x34>
70006e8a:	2004      	movs	r0, #4
70006e8c:	6398      	str	r0, [r3, #56]	@ 0x38
70006e8e:	bd10      	pop	{r4, pc}
70006e90:	3801      	subs	r0, #1
70006e92:	e7f0      	b.n	70006e76 <SDMMC_GetCmdResp6+0x16>
70006e94:	6b58      	ldr	r0, [r3, #52]	@ 0x34
70006e96:	07c0      	lsls	r0, r0, #31
70006e98:	d503      	bpl.n	70006ea2 <SDMMC_GetCmdResp6+0x42>
70006e9a:	2201      	movs	r2, #1
70006e9c:	639a      	str	r2, [r3, #56]	@ 0x38
70006e9e:	2001      	movs	r0, #1
70006ea0:	e7f5      	b.n	70006e8e <SDMMC_GetCmdResp6+0x2e>
70006ea2:	6918      	ldr	r0, [r3, #16]
70006ea4:	b2c0      	uxtb	r0, r0
70006ea6:	4281      	cmp	r1, r0
70006ea8:	d1f9      	bne.n	70006e9e <SDMMC_GetCmdResp6+0x3e>
70006eaa:	490d      	ldr	r1, [pc, #52]	@ (70006ee0 <SDMMC_GetCmdResp6+0x80>)
70006eac:	6399      	str	r1, [r3, #56]	@ 0x38
70006eae:	695b      	ldr	r3, [r3, #20]
70006eb0:	f413 4060 	ands.w	r0, r3, #57344	@ 0xe000
70006eb4:	d102      	bne.n	70006ebc <SDMMC_GetCmdResp6+0x5c>
70006eb6:	0c1b      	lsrs	r3, r3, #16
70006eb8:	8013      	strh	r3, [r2, #0]
70006eba:	e7e8      	b.n	70006e8e <SDMMC_GetCmdResp6+0x2e>
70006ebc:	045a      	lsls	r2, r3, #17
70006ebe:	d40a      	bmi.n	70006ed6 <SDMMC_GetCmdResp6+0x76>
70006ec0:	f413 4f00 	tst.w	r3, #32768	@ 0x8000
70006ec4:	bf0c      	ite	eq
70006ec6:	f44f 3080 	moveq.w	r0, #65536	@ 0x10000
70006eca:	f44f 5080 	movne.w	r0, #4096	@ 0x1000
70006ece:	e7de      	b.n	70006e8e <SDMMC_GetCmdResp6+0x2e>
70006ed0:	f04f 4000 	mov.w	r0, #2147483648	@ 0x80000000
70006ed4:	e7db      	b.n	70006e8e <SDMMC_GetCmdResp6+0x2e>
70006ed6:	f44f 5000 	mov.w	r0, #8192	@ 0x2000
70006eda:	e7d8      	b.n	70006e8e <SDMMC_GetCmdResp6+0x2e>
70006edc:	240000ec 	.word	0x240000ec
70006ee0:	002000c5 	.word	0x002000c5

70006ee4 <SDMMC_CmdSetRelAdd>:
70006ee4:	b570      	push	{r4, r5, r6, lr}
70006ee6:	2300      	movs	r3, #0
70006ee8:	b086      	sub	sp, #24
70006eea:	2603      	movs	r6, #3
70006eec:	f44f 7280 	mov.w	r2, #256	@ 0x100
70006ef0:	4604      	mov	r4, r0
70006ef2:	460d      	mov	r5, r1
70006ef4:	a901      	add	r1, sp, #4
70006ef6:	e9cd 2303 	strd	r2, r3, [sp, #12]
70006efa:	e9cd 3601 	strd	r3, r6, [sp, #4]
70006efe:	f44f 5380 	mov.w	r3, #4096	@ 0x1000
70006f02:	9305      	str	r3, [sp, #20]
70006f04:	f7ff fcec 	bl	700068e0 <SDMMC_SendCommand>
70006f08:	462a      	mov	r2, r5
70006f0a:	4631      	mov	r1, r6
70006f0c:	4620      	mov	r0, r4
70006f0e:	b006      	add	sp, #24
70006f10:	e8bd 4070 	ldmia.w	sp!, {r4, r5, r6, lr}
70006f14:	f7ff bfa4 	b.w	70006e60 <SDMMC_GetCmdResp6>

70006f18 <SDMMC_GetCmdResp7>:
70006f18:	4b13      	ldr	r3, [pc, #76]	@ (70006f68 <SDMMC_GetCmdResp7+0x50>)
70006f1a:	f44f 51fa 	mov.w	r1, #8000	@ 0x1f40
70006f1e:	4602      	mov	r2, r0
70006f20:	681b      	ldr	r3, [r3, #0]
70006f22:	fbb3 f3f1 	udiv	r3, r3, r1
70006f26:	f241 3188 	movw	r1, #5000	@ 0x1388
70006f2a:	434b      	muls	r3, r1
70006f2c:	b1cb      	cbz	r3, 70006f62 <SDMMC_GetCmdResp7+0x4a>
70006f2e:	6b51      	ldr	r1, [r2, #52]	@ 0x34
70006f30:	f011 0f45 	tst.w	r1, #69	@ 0x45
70006f34:	d007      	beq.n	70006f46 <SDMMC_GetCmdResp7+0x2e>
70006f36:	0488      	lsls	r0, r1, #18
70006f38:	d405      	bmi.n	70006f46 <SDMMC_GetCmdResp7+0x2e>
70006f3a:	6b53      	ldr	r3, [r2, #52]	@ 0x34
70006f3c:	0759      	lsls	r1, r3, #29
70006f3e:	d504      	bpl.n	70006f4a <SDMMC_GetCmdResp7+0x32>
70006f40:	2004      	movs	r0, #4
70006f42:	6390      	str	r0, [r2, #56]	@ 0x38
70006f44:	4770      	bx	lr
70006f46:	3b01      	subs	r3, #1
70006f48:	e7f0      	b.n	70006f2c <SDMMC_GetCmdResp7+0x14>
70006f4a:	6b50      	ldr	r0, [r2, #52]	@ 0x34
70006f4c:	f010 0001 	ands.w	r0, r0, #1
70006f50:	d002      	beq.n	70006f58 <SDMMC_GetCmdResp7+0x40>
70006f52:	2301      	movs	r3, #1
70006f54:	6393      	str	r3, [r2, #56]	@ 0x38
70006f56:	4770      	bx	lr
70006f58:	6b53      	ldr	r3, [r2, #52]	@ 0x34
70006f5a:	065b      	lsls	r3, r3, #25
70006f5c:	d503      	bpl.n	70006f66 <SDMMC_GetCmdResp7+0x4e>
70006f5e:	2340      	movs	r3, #64	@ 0x40
70006f60:	e7f8      	b.n	70006f54 <SDMMC_GetCmdResp7+0x3c>
70006f62:	f04f 4000 	mov.w	r0, #2147483648	@ 0x80000000
70006f66:	4770      	bx	lr
70006f68:	240000ec 	.word	0x240000ec

70006f6c <SDMMC_CmdOperCond>:
70006f6c:	b510      	push	{r4, lr}
70006f6e:	f44f 72d5 	mov.w	r2, #426	@ 0x1aa
70006f72:	b086      	sub	sp, #24
70006f74:	2308      	movs	r3, #8
70006f76:	f44f 7180 	mov.w	r1, #256	@ 0x100
70006f7a:	4604      	mov	r4, r0
70006f7c:	e9cd 2301 	strd	r2, r3, [sp, #4]
70006f80:	2300      	movs	r3, #0
70006f82:	e9cd 1303 	strd	r1, r3, [sp, #12]
70006f86:	f44f 5380 	mov.w	r3, #4096	@ 0x1000
70006f8a:	a901      	add	r1, sp, #4
70006f8c:	9305      	str	r3, [sp, #20]
70006f8e:	f7ff fca7 	bl	700068e0 <SDMMC_SendCommand>
70006f92:	4620      	mov	r0, r4
70006f94:	b006      	add	sp, #24
70006f96:	e8bd 4010 	ldmia.w	sp!, {r4, lr}
70006f9a:	f7ff bfbd 	b.w	70006f18 <SDMMC_GetCmdResp7>
	...

70006fa0 <LL_UCPD_Init>:
70006fa0:	4b12      	ldr	r3, [pc, #72]	@ (70006fec <LL_UCPD_Init+0x4c>)
70006fa2:	4298      	cmp	r0, r3
70006fa4:	b513      	push	{r0, r1, r4, lr}
70006fa6:	d10c      	bne.n	70006fc2 <LL_UCPD_Init+0x22>
70006fa8:	4b11      	ldr	r3, [pc, #68]	@ (70006ff0 <LL_UCPD_Init+0x50>)
70006faa:	f8d3 214c 	ldr.w	r2, [r3, #332]	@ 0x14c
70006fae:	f042 6200 	orr.w	r2, r2, #134217728	@ 0x8000000
70006fb2:	f8c3 214c 	str.w	r2, [r3, #332]	@ 0x14c
70006fb6:	f8d3 314c 	ldr.w	r3, [r3, #332]	@ 0x14c
70006fba:	f003 6300 	and.w	r3, r3, #134217728	@ 0x8000000
70006fbe:	9301      	str	r3, [sp, #4]
70006fc0:	9b01      	ldr	r3, [sp, #4]
70006fc2:	6803      	ldr	r3, [r0, #0]
70006fc4:	68ca      	ldr	r2, [r1, #12]
70006fc6:	f023 4300 	bic.w	r3, r3, #2147483648	@ 0x80000000
70006fca:	6003      	str	r3, [r0, #0]
70006fcc:	680b      	ldr	r3, [r1, #0]
70006fce:	6804      	ldr	r4, [r0, #0]
70006fd0:	4313      	orrs	r3, r2
70006fd2:	684a      	ldr	r2, [r1, #4]
70006fd4:	ea43 23c2 	orr.w	r3, r3, r2, lsl #11
70006fd8:	688a      	ldr	r2, [r1, #8]
70006fda:	ea43 1382 	orr.w	r3, r3, r2, lsl #6
70006fde:	4a05      	ldr	r2, [pc, #20]	@ (70006ff4 <LL_UCPD_Init+0x54>)
70006fe0:	4022      	ands	r2, r4
70006fe2:	4313      	orrs	r3, r2
70006fe4:	6003      	str	r3, [r0, #0]
70006fe6:	2000      	movs	r0, #0
70006fe8:	b002      	add	sp, #8
70006fea:	bd10      	pop	{r4, pc}
70006fec:	4000ec00 	.word	0x4000ec00
70006ff0:	58024400 	.word	0x58024400
70006ff4:	fff10000 	.word	0xfff10000

70006ff8 <LL_UCPD_StructInit>:
70006ff8:	2307      	movs	r3, #7
70006ffa:	f44f 3200 	mov.w	r2, #131072	@ 0x20000
70006ffe:	2110      	movs	r1, #16
70007000:	e9c0 2300 	strd	r2, r3, [r0]
70007004:	230d      	movs	r3, #13
70007006:	e9c0 1302 	strd	r1, r3, [r0, #8]
7000700a:	4770      	bx	lr

7000700c <USB_CoreReset>:
7000700c:	b082      	sub	sp, #8
7000700e:	2300      	movs	r3, #0
70007010:	4602      	mov	r2, r0
70007012:	9301      	str	r3, [sp, #4]
70007014:	9b01      	ldr	r3, [sp, #4]
70007016:	3301      	adds	r3, #1
70007018:	9301      	str	r3, [sp, #4]
7000701a:	9b01      	ldr	r3, [sp, #4]
7000701c:	f1b3 6f70 	cmp.w	r3, #251658240	@ 0xf000000
70007020:	d81a      	bhi.n	70007058 <USB_CoreReset+0x4c>
70007022:	6913      	ldr	r3, [r2, #16]
70007024:	2b00      	cmp	r3, #0
70007026:	daf5      	bge.n	70007014 <USB_CoreReset+0x8>
70007028:	230a      	movs	r3, #10
7000702a:	9301      	str	r3, [sp, #4]
7000702c:	9b01      	ldr	r3, [sp, #4]
7000702e:	b983      	cbnz	r3, 70007052 <USB_CoreReset+0x46>
70007030:	6913      	ldr	r3, [r2, #16]
70007032:	f043 0301 	orr.w	r3, r3, #1
70007036:	6113      	str	r3, [r2, #16]
70007038:	9b01      	ldr	r3, [sp, #4]
7000703a:	3301      	adds	r3, #1
7000703c:	9301      	str	r3, [sp, #4]
7000703e:	9b01      	ldr	r3, [sp, #4]
70007040:	f1b3 6f70 	cmp.w	r3, #251658240	@ 0xf000000
70007044:	d808      	bhi.n	70007058 <USB_CoreReset+0x4c>
70007046:	6910      	ldr	r0, [r2, #16]
70007048:	f010 0001 	ands.w	r0, r0, #1
7000704c:	d1f4      	bne.n	70007038 <USB_CoreReset+0x2c>
7000704e:	b002      	add	sp, #8
70007050:	4770      	bx	lr
70007052:	9b01      	ldr	r3, [sp, #4]
70007054:	3b01      	subs	r3, #1
70007056:	e7e8      	b.n	7000702a <USB_CoreReset+0x1e>
70007058:	2003      	movs	r0, #3
7000705a:	e7f8      	b.n	7000704e <USB_CoreReset+0x42>

7000705c <USB_CoreInit>:
7000705c:	b084      	sub	sp, #16
7000705e:	b538      	push	{r3, r4, r5, lr}
70007060:	ad05      	add	r5, sp, #20
70007062:	4604      	mov	r4, r0
70007064:	e885 000e 	stmia.w	r5, {r1, r2, r3}
70007068:	491e      	ldr	r1, [pc, #120]	@ (700070e4 <USB_CoreInit+0x88>)
7000706a:	4288      	cmp	r0, r1
7000706c:	d127      	bne.n	700070be <USB_CoreInit+0x62>
7000706e:	f89d 3019 	ldrb.w	r3, [sp, #25]
70007072:	2b03      	cmp	r3, #3
70007074:	d103      	bne.n	7000707e <USB_CoreInit+0x22>
70007076:	68cb      	ldr	r3, [r1, #12]
70007078:	f423 0380 	bic.w	r3, r3, #4194304	@ 0x400000
7000707c:	60cb      	str	r3, [r1, #12]
7000707e:	4819      	ldr	r0, [pc, #100]	@ (700070e4 <USB_CoreInit+0x88>)
70007080:	f7ff ffc4 	bl	7000700c <USB_CoreReset>
70007084:	f89d 3016 	ldrb.w	r3, [sp, #22]
70007088:	2b01      	cmp	r3, #1
7000708a:	d114      	bne.n	700070b6 <USB_CoreInit+0x5a>
7000708c:	6dcb      	ldr	r3, [r1, #92]	@ 0x5c
7000708e:	b29b      	uxth	r3, r3
70007090:	65cb      	str	r3, [r1, #92]	@ 0x5c
70007092:	6dcb      	ldr	r3, [r1, #92]	@ 0x5c
70007094:	f043 737b 	orr.w	r3, r3, #65798144	@ 0x3ec0000
70007098:	f443 3300 	orr.w	r3, r3, #131072	@ 0x20000
7000709c:	65cb      	str	r3, [r1, #92]	@ 0x5c
7000709e:	688b      	ldr	r3, [r1, #8]
700070a0:	f023 031e 	bic.w	r3, r3, #30
700070a4:	608b      	str	r3, [r1, #8]
700070a6:	688b      	ldr	r3, [r1, #8]
700070a8:	f043 0306 	orr.w	r3, r3, #6
700070ac:	608b      	str	r3, [r1, #8]
700070ae:	688b      	ldr	r3, [r1, #8]
700070b0:	f043 0320 	orr.w	r3, r3, #32
700070b4:	608b      	str	r3, [r1, #8]
700070b6:	e8bd 4038 	ldmia.w	sp!, {r3, r4, r5, lr}
700070ba:	b004      	add	sp, #16
700070bc:	4770      	bx	lr
700070be:	68c3      	ldr	r3, [r0, #12]
700070c0:	f043 0340 	orr.w	r3, r3, #64	@ 0x40
700070c4:	60c3      	str	r3, [r0, #12]
700070c6:	f7ff ffa1 	bl	7000700c <USB_CoreReset>
700070ca:	f89d 301d 	ldrb.w	r3, [sp, #29]
700070ce:	b923      	cbnz	r3, 700070da <USB_CoreInit+0x7e>
700070d0:	6ba3      	ldr	r3, [r4, #56]	@ 0x38
700070d2:	f443 3380 	orr.w	r3, r3, #65536	@ 0x10000
700070d6:	63a3      	str	r3, [r4, #56]	@ 0x38
700070d8:	e7ed      	b.n	700070b6 <USB_CoreInit+0x5a>
700070da:	6ba3      	ldr	r3, [r4, #56]	@ 0x38
700070dc:	f423 3380 	bic.w	r3, r3, #65536	@ 0x10000
700070e0:	e7f9      	b.n	700070d6 <USB_CoreInit+0x7a>
700070e2:	bf00      	nop
700070e4:	40040000 	.word	0x40040000

700070e8 <USB_SetTurnaroundTime>:
700070e8:	2a02      	cmp	r2, #2
700070ea:	d14a      	bne.n	70007182 <USB_SetTurnaroundTime+0x9a>
700070ec:	4b27      	ldr	r3, [pc, #156]	@ (7000718c <USB_SetTurnaroundTime+0xa4>)
700070ee:	4a28      	ldr	r2, [pc, #160]	@ (70007190 <USB_SetTurnaroundTime+0xa8>)
700070f0:	440b      	add	r3, r1
700070f2:	4293      	cmp	r3, r2
700070f4:	d939      	bls.n	7000716a <USB_SetTurnaroundTime+0x82>
700070f6:	4b27      	ldr	r3, [pc, #156]	@ (70007194 <USB_SetTurnaroundTime+0xac>)
700070f8:	4a27      	ldr	r2, [pc, #156]	@ (70007198 <USB_SetTurnaroundTime+0xb0>)
700070fa:	440b      	add	r3, r1
700070fc:	4293      	cmp	r3, r2
700070fe:	d936      	bls.n	7000716e <USB_SetTurnaroundTime+0x86>
70007100:	f5a1 0374 	sub.w	r3, r1, #15990784	@ 0xf40000
70007104:	4a25      	ldr	r2, [pc, #148]	@ (7000719c <USB_SetTurnaroundTime+0xb4>)
70007106:	f5a3 5310 	sub.w	r3, r3, #9216	@ 0x2400
7000710a:	4293      	cmp	r3, r2
7000710c:	d931      	bls.n	70007172 <USB_SetTurnaroundTime+0x8a>
7000710e:	f1a1 7383 	sub.w	r3, r1, #17170432	@ 0x1060000
70007112:	4a23      	ldr	r2, [pc, #140]	@ (700071a0 <USB_SetTurnaroundTime+0xb8>)
70007114:	f5a3 43e7 	sub.w	r3, r3, #29568	@ 0x7380
70007118:	4293      	cmp	r3, r2
7000711a:	d32c      	bcc.n	70007176 <USB_SetTurnaroundTime+0x8e>
7000711c:	4b21      	ldr	r3, [pc, #132]	@ (700071a4 <USB_SetTurnaroundTime+0xbc>)
7000711e:	4a22      	ldr	r2, [pc, #136]	@ (700071a8 <USB_SetTurnaroundTime+0xc0>)
70007120:	440b      	add	r3, r1
70007122:	4293      	cmp	r3, r2
70007124:	d929      	bls.n	7000717a <USB_SetTurnaroundTime+0x92>
70007126:	4b21      	ldr	r3, [pc, #132]	@ (700071ac <USB_SetTurnaroundTime+0xc4>)
70007128:	4a21      	ldr	r2, [pc, #132]	@ (700071b0 <USB_SetTurnaroundTime+0xc8>)
7000712a:	440b      	add	r3, r1
7000712c:	4293      	cmp	r3, r2
7000712e:	d326      	bcc.n	7000717e <USB_SetTurnaroundTime+0x96>
70007130:	4b20      	ldr	r3, [pc, #128]	@ (700071b4 <USB_SetTurnaroundTime+0xcc>)
70007132:	4a21      	ldr	r2, [pc, #132]	@ (700071b8 <USB_SetTurnaroundTime+0xd0>)
70007134:	440b      	add	r3, r1
70007136:	4293      	cmp	r3, r2
70007138:	d323      	bcc.n	70007182 <USB_SetTurnaroundTime+0x9a>
7000713a:	f1a1 73b7 	sub.w	r3, r1, #23986176	@ 0x16e0000
7000713e:	4a1f      	ldr	r2, [pc, #124]	@ (700071bc <USB_SetTurnaroundTime+0xd4>)
70007140:	f5a3 5358 	sub.w	r3, r3, #13824	@ 0x3600
70007144:	4293      	cmp	r3, r2
70007146:	d31e      	bcc.n	70007186 <USB_SetTurnaroundTime+0x9e>
70007148:	4b1d      	ldr	r3, [pc, #116]	@ (700071c0 <USB_SetTurnaroundTime+0xd8>)
7000714a:	4a1e      	ldr	r2, [pc, #120]	@ (700071c4 <USB_SetTurnaroundTime+0xdc>)
7000714c:	440b      	add	r3, r1
7000714e:	4293      	cmp	r3, r2
70007150:	bf2c      	ite	cs
70007152:	2306      	movcs	r3, #6
70007154:	2307      	movcc	r3, #7
70007156:	68c2      	ldr	r2, [r0, #12]
70007158:	f422 5270 	bic.w	r2, r2, #15360	@ 0x3c00
7000715c:	60c2      	str	r2, [r0, #12]
7000715e:	68c2      	ldr	r2, [r0, #12]
70007160:	ea42 2383 	orr.w	r3, r2, r3, lsl #10
70007164:	60c3      	str	r3, [r0, #12]
70007166:	2000      	movs	r0, #0
70007168:	4770      	bx	lr
7000716a:	230f      	movs	r3, #15
7000716c:	e7f3      	b.n	70007156 <USB_SetTurnaroundTime+0x6e>
7000716e:	230e      	movs	r3, #14
70007170:	e7f1      	b.n	70007156 <USB_SetTurnaroundTime+0x6e>
70007172:	230d      	movs	r3, #13
70007174:	e7ef      	b.n	70007156 <USB_SetTurnaroundTime+0x6e>
70007176:	230c      	movs	r3, #12
70007178:	e7ed      	b.n	70007156 <USB_SetTurnaroundTime+0x6e>
7000717a:	230b      	movs	r3, #11
7000717c:	e7eb      	b.n	70007156 <USB_SetTurnaroundTime+0x6e>
7000717e:	230a      	movs	r3, #10
70007180:	e7e9      	b.n	70007156 <USB_SetTurnaroundTime+0x6e>
70007182:	2309      	movs	r3, #9
70007184:	e7e7      	b.n	70007156 <USB_SetTurnaroundTime+0x6e>
70007186:	2308      	movs	r3, #8
70007188:	e7e5      	b.n	70007156 <USB_SetTurnaroundTime+0x6e>
7000718a:	bf00      	nop
7000718c:	ff275340 	.word	0xff275340
70007190:	000c34ff 	.word	0x000c34ff
70007194:	ff1b1e40 	.word	0xff1b1e40
70007198:	000f423f 	.word	0x000f423f
7000719c:	00124f7f 	.word	0x00124f7f
700071a0:	0013d620 	.word	0x0013d620
700071a4:	fee5b660 	.word	0xfee5b660
700071a8:	0016e35f 	.word	0x0016e35f
700071ac:	feced300 	.word	0xfeced300
700071b0:	001b7740 	.word	0x001b7740
700071b4:	feb35bc0 	.word	0xfeb35bc0
700071b8:	002191c0 	.word	0x002191c0
700071bc:	00387520 	.word	0x00387520
700071c0:	fe5954e0 	.word	0xfe5954e0
700071c4:	00419ce0 	.word	0x00419ce0

700071c8 <USB_EnableGlobalInt>:
700071c8:	6883      	ldr	r3, [r0, #8]
700071ca:	f043 0301 	orr.w	r3, r3, #1
700071ce:	6083      	str	r3, [r0, #8]
700071d0:	2000      	movs	r0, #0
700071d2:	4770      	bx	lr

700071d4 <USB_DisableGlobalInt>:
700071d4:	6883      	ldr	r3, [r0, #8]
700071d6:	f023 0301 	bic.w	r3, r3, #1
700071da:	6083      	str	r3, [r0, #8]
700071dc:	2000      	movs	r0, #0
700071de:	4770      	bx	lr

700071e0 <USB_SetCurrentMode>:
700071e0:	b538      	push	{r3, r4, r5, lr}
700071e2:	68c3      	ldr	r3, [r0, #12]
700071e4:	2901      	cmp	r1, #1
700071e6:	4605      	mov	r5, r0
700071e8:	460c      	mov	r4, r1
700071ea:	f023 43c0 	bic.w	r3, r3, #1610612736	@ 0x60000000
700071ee:	60c3      	str	r3, [r0, #12]
700071f0:	d113      	bne.n	7000721a <USB_SetCurrentMode+0x3a>
700071f2:	68c3      	ldr	r3, [r0, #12]
700071f4:	2400      	movs	r4, #0
700071f6:	f043 5300 	orr.w	r3, r3, #536870912	@ 0x20000000
700071fa:	60c3      	str	r3, [r0, #12]
700071fc:	200a      	movs	r0, #10
700071fe:	340a      	adds	r4, #10
70007200:	f7fa ff2a 	bl	70002058 <HAL_Delay>
70007204:	696b      	ldr	r3, [r5, #20]
70007206:	07d9      	lsls	r1, r3, #31
70007208:	d402      	bmi.n	70007210 <USB_SetCurrentMode+0x30>
7000720a:	2cc8      	cmp	r4, #200	@ 0xc8
7000720c:	d1f6      	bne.n	700071fc <USB_SetCurrentMode+0x1c>
7000720e:	24c8      	movs	r4, #200	@ 0xc8
70007210:	f1a4 03c8 	sub.w	r3, r4, #200	@ 0xc8
70007214:	4258      	negs	r0, r3
70007216:	4158      	adcs	r0, r3
70007218:	bd38      	pop	{r3, r4, r5, pc}
7000721a:	b969      	cbnz	r1, 70007238 <USB_SetCurrentMode+0x58>
7000721c:	68c3      	ldr	r3, [r0, #12]
7000721e:	f043 4380 	orr.w	r3, r3, #1073741824	@ 0x40000000
70007222:	60c3      	str	r3, [r0, #12]
70007224:	200a      	movs	r0, #10
70007226:	340a      	adds	r4, #10
70007228:	f7fa ff16 	bl	70002058 <HAL_Delay>
7000722c:	696b      	ldr	r3, [r5, #20]
7000722e:	07da      	lsls	r2, r3, #31
70007230:	d5ee      	bpl.n	70007210 <USB_SetCurrentMode+0x30>
70007232:	2cc8      	cmp	r4, #200	@ 0xc8
70007234:	d1f6      	bne.n	70007224 <USB_SetCurrentMode+0x44>
70007236:	e7ea      	b.n	7000720e <USB_SetCurrentMode+0x2e>
70007238:	2001      	movs	r0, #1
7000723a:	e7ed      	b.n	70007218 <USB_SetCurrentMode+0x38>

7000723c <USB_FlushTxFifo>:
7000723c:	b082      	sub	sp, #8
7000723e:	2300      	movs	r3, #0
70007240:	4602      	mov	r2, r0
70007242:	9301      	str	r3, [sp, #4]
70007244:	9b01      	ldr	r3, [sp, #4]
70007246:	3301      	adds	r3, #1
70007248:	9301      	str	r3, [sp, #4]
7000724a:	9b01      	ldr	r3, [sp, #4]
7000724c:	f1b3 6f70 	cmp.w	r3, #251658240	@ 0xf000000
70007250:	d815      	bhi.n	7000727e <USB_FlushTxFifo+0x42>
70007252:	6913      	ldr	r3, [r2, #16]
70007254:	2b00      	cmp	r3, #0
70007256:	daf5      	bge.n	70007244 <USB_FlushTxFifo+0x8>
70007258:	0189      	lsls	r1, r1, #6
7000725a:	2300      	movs	r3, #0
7000725c:	f041 0120 	orr.w	r1, r1, #32
70007260:	9301      	str	r3, [sp, #4]
70007262:	6111      	str	r1, [r2, #16]
70007264:	9b01      	ldr	r3, [sp, #4]
70007266:	3301      	adds	r3, #1
70007268:	9301      	str	r3, [sp, #4]
7000726a:	9b01      	ldr	r3, [sp, #4]
7000726c:	f1b3 6f70 	cmp.w	r3, #251658240	@ 0xf000000
70007270:	d805      	bhi.n	7000727e <USB_FlushTxFifo+0x42>
70007272:	6910      	ldr	r0, [r2, #16]
70007274:	f010 0020 	ands.w	r0, r0, #32
70007278:	d1f4      	bne.n	70007264 <USB_FlushTxFifo+0x28>
7000727a:	b002      	add	sp, #8
7000727c:	4770      	bx	lr
7000727e:	2003      	movs	r0, #3
70007280:	e7fb      	b.n	7000727a <USB_FlushTxFifo+0x3e>

70007282 <USB_FlushRxFifo>:
70007282:	b082      	sub	sp, #8
70007284:	2300      	movs	r3, #0
70007286:	4602      	mov	r2, r0
70007288:	9301      	str	r3, [sp, #4]
7000728a:	9b01      	ldr	r3, [sp, #4]
7000728c:	3301      	adds	r3, #1
7000728e:	9301      	str	r3, [sp, #4]
70007290:	9b01      	ldr	r3, [sp, #4]
70007292:	f1b3 6f70 	cmp.w	r3, #251658240	@ 0xf000000
70007296:	d813      	bhi.n	700072c0 <USB_FlushRxFifo+0x3e>
70007298:	6913      	ldr	r3, [r2, #16]
7000729a:	2b00      	cmp	r3, #0
7000729c:	daf5      	bge.n	7000728a <USB_FlushRxFifo+0x8>
7000729e:	2300      	movs	r3, #0
700072a0:	9301      	str	r3, [sp, #4]
700072a2:	2310      	movs	r3, #16
700072a4:	6113      	str	r3, [r2, #16]
700072a6:	9b01      	ldr	r3, [sp, #4]
700072a8:	3301      	adds	r3, #1
700072aa:	9301      	str	r3, [sp, #4]
700072ac:	9b01      	ldr	r3, [sp, #4]
700072ae:	f1b3 6f70 	cmp.w	r3, #251658240	@ 0xf000000
700072b2:	d805      	bhi.n	700072c0 <USB_FlushRxFifo+0x3e>
700072b4:	6910      	ldr	r0, [r2, #16]
700072b6:	f010 0010 	ands.w	r0, r0, #16
700072ba:	d1f4      	bne.n	700072a6 <USB_FlushRxFifo+0x24>
700072bc:	b002      	add	sp, #8
700072be:	4770      	bx	lr
700072c0:	2003      	movs	r0, #3
700072c2:	e7fb      	b.n	700072bc <USB_FlushRxFifo+0x3a>

700072c4 <USB_SetDevSpeed>:
700072c4:	f8d0 3800 	ldr.w	r3, [r0, #2048]	@ 0x800
700072c8:	4319      	orrs	r1, r3
700072ca:	f8c0 1800 	str.w	r1, [r0, #2048]	@ 0x800
700072ce:	2000      	movs	r0, #0
700072d0:	4770      	bx	lr
	...

700072d4 <USB_DevInit>:
700072d4:	b084      	sub	sp, #16
700072d6:	e92d 43f8 	stmdb	sp!, {r3, r4, r5, r6, r7, r8, r9, lr}
700072da:	4604      	mov	r4, r0
700072dc:	a809      	add	r0, sp, #36	@ 0x24
700072de:	e880 000e 	stmia.w	r0, {r1, r2, r3}
700072e2:	2300      	movs	r3, #0
700072e4:	f89d 6024 	ldrb.w	r6, [sp, #36]	@ 0x24
700072e8:	f89d 502e 	ldrb.w	r5, [sp, #46]	@ 0x2e
700072ec:	4619      	mov	r1, r3
700072ee:	f103 0240 	add.w	r2, r3, #64	@ 0x40
700072f2:	3301      	adds	r3, #1
700072f4:	eb04 0282 	add.w	r2, r4, r2, lsl #2
700072f8:	2b0f      	cmp	r3, #15
700072fa:	6051      	str	r1, [r2, #4]
700072fc:	d1f7      	bne.n	700072ee <USB_DevInit+0x1a>
700072fe:	68e3      	ldr	r3, [r4, #12]
70007300:	0658      	lsls	r0, r3, #25
70007302:	d403      	bmi.n	7000730c <USB_DevInit+0x38>
70007304:	6ba3      	ldr	r3, [r4, #56]	@ 0x38
70007306:	f023 7300 	bic.w	r3, r3, #33554432	@ 0x2000000
7000730a:	63a3      	str	r3, [r4, #56]	@ 0x38
7000730c:	f504 6700 	add.w	r7, r4, #2048	@ 0x800
70007310:	2d00      	cmp	r5, #0
70007312:	d177      	bne.n	70007404 <USB_DevInit+0x130>
70007314:	687b      	ldr	r3, [r7, #4]
70007316:	f043 0302 	orr.w	r3, r3, #2
7000731a:	607b      	str	r3, [r7, #4]
7000731c:	6ba3      	ldr	r3, [r4, #56]	@ 0x38
7000731e:	f423 1300 	bic.w	r3, r3, #2097152	@ 0x200000
70007322:	63a3      	str	r3, [r4, #56]	@ 0x38
70007324:	68e3      	ldr	r3, [r4, #12]
70007326:	0659      	lsls	r1, r3, #25
70007328:	d563      	bpl.n	700073f2 <USB_DevInit+0x11e>
7000732a:	6823      	ldr	r3, [r4, #0]
7000732c:	f043 0340 	orr.w	r3, r3, #64	@ 0x40
70007330:	6023      	str	r3, [r4, #0]
70007332:	6823      	ldr	r3, [r4, #0]
70007334:	f043 0380 	orr.w	r3, r3, #128	@ 0x80
70007338:	6023      	str	r3, [r4, #0]
7000733a:	2300      	movs	r3, #0
7000733c:	f8c4 3e00 	str.w	r3, [r4, #3584]	@ 0xe00
70007340:	68e3      	ldr	r3, [r4, #12]
70007342:	065b      	lsls	r3, r3, #25
70007344:	d478      	bmi.n	70007438 <USB_DevInit+0x164>
70007346:	f89d 1027 	ldrb.w	r1, [sp, #39]	@ 0x27
7000734a:	2900      	cmp	r1, #0
7000734c:	d172      	bne.n	70007434 <USB_DevInit+0x160>
7000734e:	4620      	mov	r0, r4
70007350:	f64f 387f 	movw	r8, #64383	@ 0xfb7f
70007354:	f7ff ffb6 	bl	700072c4 <USB_SetDevSpeed>
70007358:	2110      	movs	r1, #16
7000735a:	4620      	mov	r0, r4
7000735c:	f7ff ff6e 	bl	7000723c <USB_FlushTxFifo>
70007360:	4601      	mov	r1, r0
70007362:	4620      	mov	r0, r4
70007364:	f7ff ff8d 	bl	70007282 <USB_FlushRxFifo>
70007368:	4308      	orrs	r0, r1
7000736a:	2300      	movs	r3, #0
7000736c:	f504 6210 	add.w	r2, r4, #2304	@ 0x900
70007370:	b2c0      	uxtb	r0, r0
70007372:	f04f 4c90 	mov.w	ip, #1207959552	@ 0x48000000
70007376:	4619      	mov	r1, r3
70007378:	f04f 6e00 	mov.w	lr, #134217728	@ 0x8000000
7000737c:	3800      	subs	r0, #0
7000737e:	613b      	str	r3, [r7, #16]
70007380:	617b      	str	r3, [r7, #20]
70007382:	bf18      	it	ne
70007384:	2001      	movne	r0, #1
70007386:	61fb      	str	r3, [r7, #28]
70007388:	429e      	cmp	r6, r3
7000738a:	d857      	bhi.n	7000743c <USB_DevInit+0x168>
7000738c:	2200      	movs	r2, #0
7000738e:	f504 6330 	add.w	r3, r4, #2816	@ 0xb00
70007392:	f04f 4c90 	mov.w	ip, #1207959552	@ 0x48000000
70007396:	f04f 6e00 	mov.w	lr, #134217728	@ 0x8000000
7000739a:	4611      	mov	r1, r2
7000739c:	f64f 387f 	movw	r8, #64383	@ 0xfb7f
700073a0:	4296      	cmp	r6, r2
700073a2:	d85e      	bhi.n	70007462 <USB_DevInit+0x18e>
700073a4:	693b      	ldr	r3, [r7, #16]
700073a6:	f423 7380 	bic.w	r3, r3, #256	@ 0x100
700073aa:	613b      	str	r3, [r7, #16]
700073ac:	2300      	movs	r3, #0
700073ae:	61a3      	str	r3, [r4, #24]
700073b0:	f06f 4380 	mvn.w	r3, #1073741824	@ 0x40000000
700073b4:	6163      	str	r3, [r4, #20]
700073b6:	f89d 3026 	ldrb.w	r3, [sp, #38]	@ 0x26
700073ba:	b91b      	cbnz	r3, 700073c4 <USB_DevInit+0xf0>
700073bc:	69a3      	ldr	r3, [r4, #24]
700073be:	f043 0310 	orr.w	r3, r3, #16
700073c2:	61a3      	str	r3, [r4, #24]
700073c4:	69a2      	ldr	r2, [r4, #24]
700073c6:	4b30      	ldr	r3, [pc, #192]	@ (70007488 <USB_DevInit+0x1b4>)
700073c8:	4313      	orrs	r3, r2
700073ca:	61a3      	str	r3, [r4, #24]
700073cc:	f89d 302a 	ldrb.w	r3, [sp, #42]	@ 0x2a
700073d0:	b11b      	cbz	r3, 700073da <USB_DevInit+0x106>
700073d2:	69a3      	ldr	r3, [r4, #24]
700073d4:	f043 0308 	orr.w	r3, r3, #8
700073d8:	61a3      	str	r3, [r4, #24]
700073da:	2d01      	cmp	r5, #1
700073dc:	d105      	bne.n	700073ea <USB_DevInit+0x116>
700073de:	69a3      	ldr	r3, [r4, #24]
700073e0:	f043 4380 	orr.w	r3, r3, #1073741824	@ 0x40000000
700073e4:	f043 0304 	orr.w	r3, r3, #4
700073e8:	61a3      	str	r3, [r4, #24]
700073ea:	e8bd 43f8 	ldmia.w	sp!, {r3, r4, r5, r6, r7, r8, r9, lr}
700073ee:	b004      	add	sp, #16
700073f0:	4770      	bx	lr
700073f2:	6ba3      	ldr	r3, [r4, #56]	@ 0x38
700073f4:	f043 7380 	orr.w	r3, r3, #16777216	@ 0x1000000
700073f8:	63a3      	str	r3, [r4, #56]	@ 0x38
700073fa:	6ba3      	ldr	r3, [r4, #56]	@ 0x38
700073fc:	f443 0300 	orr.w	r3, r3, #8388608	@ 0x800000
70007400:	63a3      	str	r3, [r4, #56]	@ 0x38
70007402:	e79a      	b.n	7000733a <USB_DevInit+0x66>
70007404:	68e3      	ldr	r3, [r4, #12]
70007406:	065a      	lsls	r2, r3, #25
70007408:	d50b      	bpl.n	70007422 <USB_DevInit+0x14e>
7000740a:	6823      	ldr	r3, [r4, #0]
7000740c:	f023 0340 	bic.w	r3, r3, #64	@ 0x40
70007410:	6023      	str	r3, [r4, #0]
70007412:	6823      	ldr	r3, [r4, #0]
70007414:	f023 0380 	bic.w	r3, r3, #128	@ 0x80
70007418:	6023      	str	r3, [r4, #0]
7000741a:	6ba3      	ldr	r3, [r4, #56]	@ 0x38
7000741c:	f443 1300 	orr.w	r3, r3, #2097152	@ 0x200000
70007420:	e7ee      	b.n	70007400 <USB_DevInit+0x12c>
70007422:	6ba3      	ldr	r3, [r4, #56]	@ 0x38
70007424:	f023 7380 	bic.w	r3, r3, #16777216	@ 0x1000000
70007428:	63a3      	str	r3, [r4, #56]	@ 0x38
7000742a:	6ba3      	ldr	r3, [r4, #56]	@ 0x38
7000742c:	f423 0300 	bic.w	r3, r3, #8388608	@ 0x800000
70007430:	63a3      	str	r3, [r4, #56]	@ 0x38
70007432:	e7f2      	b.n	7000741a <USB_DevInit+0x146>
70007434:	2101      	movs	r1, #1
70007436:	e78a      	b.n	7000734e <USB_DevInit+0x7a>
70007438:	2103      	movs	r1, #3
7000743a:	e788      	b.n	7000734e <USB_DevInit+0x7a>
7000743c:	f8d2 9000 	ldr.w	r9, [r2]
70007440:	f1b9 0f00 	cmp.w	r9, #0
70007444:	da0b      	bge.n	7000745e <USB_DevInit+0x18a>
70007446:	b93b      	cbnz	r3, 70007458 <USB_DevInit+0x184>
70007448:	f8c2 e000 	str.w	lr, [r2]
7000744c:	6111      	str	r1, [r2, #16]
7000744e:	3301      	adds	r3, #1
70007450:	f8c2 8008 	str.w	r8, [r2, #8]
70007454:	3220      	adds	r2, #32
70007456:	e797      	b.n	70007388 <USB_DevInit+0xb4>
70007458:	f8c2 c000 	str.w	ip, [r2]
7000745c:	e7f6      	b.n	7000744c <USB_DevInit+0x178>
7000745e:	6011      	str	r1, [r2, #0]
70007460:	e7f4      	b.n	7000744c <USB_DevInit+0x178>
70007462:	f8d3 9000 	ldr.w	r9, [r3]
70007466:	f1b9 0f00 	cmp.w	r9, #0
7000746a:	da0b      	bge.n	70007484 <USB_DevInit+0x1b0>
7000746c:	b93a      	cbnz	r2, 7000747e <USB_DevInit+0x1aa>
7000746e:	f8c3 e000 	str.w	lr, [r3]
70007472:	6119      	str	r1, [r3, #16]
70007474:	3201      	adds	r2, #1
70007476:	f8c3 8008 	str.w	r8, [r3, #8]
7000747a:	3320      	adds	r3, #32
7000747c:	e790      	b.n	700073a0 <USB_DevInit+0xcc>
7000747e:	f8c3 c000 	str.w	ip, [r3]
70007482:	e7f6      	b.n	70007472 <USB_DevInit+0x19e>
70007484:	6019      	str	r1, [r3, #0]
70007486:	e7f4      	b.n	70007472 <USB_DevInit+0x19e>
70007488:	803c3800 	.word	0x803c3800

7000748c <USB_GetDevSpeed>:
7000748c:	f8d0 3808 	ldr.w	r3, [r0, #2056]	@ 0x808
70007490:	f013 0006 	ands.w	r0, r3, #6
70007494:	d004      	beq.n	700074a0 <USB_GetDevSpeed+0x14>
70007496:	f013 0f02 	tst.w	r3, #2
7000749a:	bf14      	ite	ne
7000749c:	2002      	movne	r0, #2
7000749e:	200f      	moveq	r0, #15
700074a0:	4770      	bx	lr

700074a2 <USB_ActivateEndpoint>:
700074a2:	b530      	push	{r4, r5, lr}
700074a4:	780c      	ldrb	r4, [r1, #0]
700074a6:	2201      	movs	r2, #1
700074a8:	f500 6300 	add.w	r3, r0, #2048	@ 0x800
700074ac:	f004 050f 	and.w	r5, r4, #15
700074b0:	eb00 1044 	add.w	r0, r0, r4, lsl #5
700074b4:	40aa      	lsls	r2, r5
700074b6:	784d      	ldrb	r5, [r1, #1]
700074b8:	2d01      	cmp	r5, #1
700074ba:	d119      	bne.n	700074f0 <USB_ActivateEndpoint+0x4e>
700074bc:	69dd      	ldr	r5, [r3, #28]
700074be:	432a      	orrs	r2, r5
700074c0:	61da      	str	r2, [r3, #28]
700074c2:	f8d0 3900 	ldr.w	r3, [r0, #2304]	@ 0x900
700074c6:	041a      	lsls	r2, r3, #16
700074c8:	d410      	bmi.n	700074ec <USB_ActivateEndpoint+0x4a>
700074ca:	688a      	ldr	r2, [r1, #8]
700074cc:	f8d0 5900 	ldr.w	r5, [r0, #2304]	@ 0x900
700074d0:	f3c2 030a 	ubfx	r3, r2, #0, #11
700074d4:	790a      	ldrb	r2, [r1, #4]
700074d6:	432b      	orrs	r3, r5
700074d8:	ea43 4382 	orr.w	r3, r3, r2, lsl #18
700074dc:	ea43 5384 	orr.w	r3, r3, r4, lsl #22
700074e0:	f043 5380 	orr.w	r3, r3, #268435456	@ 0x10000000
700074e4:	f443 4300 	orr.w	r3, r3, #32768	@ 0x8000
700074e8:	f8c0 3900 	str.w	r3, [r0, #2304]	@ 0x900
700074ec:	2000      	movs	r0, #0
700074ee:	bd30      	pop	{r4, r5, pc}
700074f0:	69dc      	ldr	r4, [r3, #28]
700074f2:	ea44 4202 	orr.w	r2, r4, r2, lsl #16
700074f6:	61da      	str	r2, [r3, #28]
700074f8:	f8d0 3b00 	ldr.w	r3, [r0, #2816]	@ 0xb00
700074fc:	041b      	lsls	r3, r3, #16
700074fe:	d4f5      	bmi.n	700074ec <USB_ActivateEndpoint+0x4a>
70007500:	688b      	ldr	r3, [r1, #8]
70007502:	f8d0 2b00 	ldr.w	r2, [r0, #2816]	@ 0xb00
70007506:	f3c3 030a 	ubfx	r3, r3, #0, #11
7000750a:	4313      	orrs	r3, r2
7000750c:	790a      	ldrb	r2, [r1, #4]
7000750e:	ea43 4382 	orr.w	r3, r3, r2, lsl #18
70007512:	f043 5380 	orr.w	r3, r3, #268435456	@ 0x10000000
70007516:	f443 4300 	orr.w	r3, r3, #32768	@ 0x8000
7000751a:	f8c0 3b00 	str.w	r3, [r0, #2816]	@ 0xb00
7000751e:	e7e5      	b.n	700074ec <USB_ActivateEndpoint+0x4a>

70007520 <USB_DeactivateEndpoint>:
70007520:	b510      	push	{r4, lr}
70007522:	780a      	ldrb	r2, [r1, #0]
70007524:	7849      	ldrb	r1, [r1, #1]
70007526:	eb00 1342 	add.w	r3, r0, r2, lsl #5
7000752a:	f500 6000 	add.w	r0, r0, #2048	@ 0x800
7000752e:	2901      	cmp	r1, #1
70007530:	f002 020f 	and.w	r2, r2, #15
70007534:	d122      	bne.n	7000757c <USB_DeactivateEndpoint+0x5c>
70007536:	f8d3 1900 	ldr.w	r1, [r3, #2304]	@ 0x900
7000753a:	2900      	cmp	r1, #0
7000753c:	da0b      	bge.n	70007556 <USB_DeactivateEndpoint+0x36>
7000753e:	f8d3 1900 	ldr.w	r1, [r3, #2304]	@ 0x900
70007542:	f041 6100 	orr.w	r1, r1, #134217728	@ 0x8000000
70007546:	f8c3 1900 	str.w	r1, [r3, #2304]	@ 0x900
7000754a:	f8d3 1900 	ldr.w	r1, [r3, #2304]	@ 0x900
7000754e:	f041 4180 	orr.w	r1, r1, #1073741824	@ 0x40000000
70007552:	f8c3 1900 	str.w	r1, [r3, #2304]	@ 0x900
70007556:	2101      	movs	r1, #1
70007558:	6bc4      	ldr	r4, [r0, #60]	@ 0x3c
7000755a:	fa01 f202 	lsl.w	r2, r1, r2
7000755e:	ea24 0402 	bic.w	r4, r4, r2
70007562:	63c4      	str	r4, [r0, #60]	@ 0x3c
70007564:	69c1      	ldr	r1, [r0, #28]
70007566:	ea21 0202 	bic.w	r2, r1, r2
7000756a:	61c2      	str	r2, [r0, #28]
7000756c:	4a15      	ldr	r2, [pc, #84]	@ (700075c4 <USB_DeactivateEndpoint+0xa4>)
7000756e:	f8d3 1900 	ldr.w	r1, [r3, #2304]	@ 0x900
70007572:	400a      	ands	r2, r1
70007574:	f8c3 2900 	str.w	r2, [r3, #2304]	@ 0x900
70007578:	2000      	movs	r0, #0
7000757a:	bd10      	pop	{r4, pc}
7000757c:	f8d3 1b00 	ldr.w	r1, [r3, #2816]	@ 0xb00
70007580:	2900      	cmp	r1, #0
70007582:	da0b      	bge.n	7000759c <USB_DeactivateEndpoint+0x7c>
70007584:	f8d3 1b00 	ldr.w	r1, [r3, #2816]	@ 0xb00
70007588:	f041 6100 	orr.w	r1, r1, #134217728	@ 0x8000000
7000758c:	f8c3 1b00 	str.w	r1, [r3, #2816]	@ 0xb00
70007590:	f8d3 1b00 	ldr.w	r1, [r3, #2816]	@ 0xb00
70007594:	f041 4180 	orr.w	r1, r1, #1073741824	@ 0x40000000
70007598:	f8c3 1b00 	str.w	r1, [r3, #2816]	@ 0xb00
7000759c:	f44f 3180 	mov.w	r1, #65536	@ 0x10000
700075a0:	6bc4      	ldr	r4, [r0, #60]	@ 0x3c
700075a2:	fa01 f202 	lsl.w	r2, r1, r2
700075a6:	ea24 0402 	bic.w	r4, r4, r2
700075aa:	63c4      	str	r4, [r0, #60]	@ 0x3c
700075ac:	69c1      	ldr	r1, [r0, #28]
700075ae:	ea21 0202 	bic.w	r2, r1, r2
700075b2:	61c2      	str	r2, [r0, #28]
700075b4:	4a04      	ldr	r2, [pc, #16]	@ (700075c8 <USB_DeactivateEndpoint+0xa8>)
700075b6:	f8d3 1b00 	ldr.w	r1, [r3, #2816]	@ 0xb00
700075ba:	400a      	ands	r2, r1
700075bc:	f8c3 2b00 	str.w	r2, [r3, #2816]	@ 0xb00
700075c0:	e7da      	b.n	70007578 <USB_DeactivateEndpoint+0x58>
700075c2:	bf00      	nop
700075c4:	ec337800 	.word	0xec337800
700075c8:	eff37800 	.word	0xeff37800

700075cc <USB_EPStopXfer>:
700075cc:	b537      	push	{r0, r1, r2, r4, r5, lr}
700075ce:	2200      	movs	r2, #0
700075d0:	4603      	mov	r3, r0
700075d2:	9200      	str	r2, [sp, #0]
700075d4:	6884      	ldr	r4, [r0, #8]
700075d6:	7848      	ldrb	r0, [r1, #1]
700075d8:	780a      	ldrb	r2, [r1, #0]
700075da:	2801      	cmp	r0, #1
700075dc:	ea4f 1242 	mov.w	r2, r2, lsl #5
700075e0:	d11b      	bne.n	7000761a <USB_EPStopXfer+0x4e>
700075e2:	f503 6310 	add.w	r3, r3, #2304	@ 0x900
700075e6:	5899      	ldr	r1, [r3, r2]
700075e8:	189c      	adds	r4, r3, r2
700075ea:	2900      	cmp	r1, #0
700075ec:	db02      	blt.n	700075f4 <USB_EPStopXfer+0x28>
700075ee:	2000      	movs	r0, #0
700075f0:	b003      	add	sp, #12
700075f2:	bd30      	pop	{r4, r5, pc}
700075f4:	5899      	ldr	r1, [r3, r2]
700075f6:	f041 6100 	orr.w	r1, r1, #134217728	@ 0x8000000
700075fa:	5099      	str	r1, [r3, r2]
700075fc:	5899      	ldr	r1, [r3, r2]
700075fe:	f041 4180 	orr.w	r1, r1, #1073741824	@ 0x40000000
70007602:	5099      	str	r1, [r3, r2]
70007604:	9b00      	ldr	r3, [sp, #0]
70007606:	3301      	adds	r3, #1
70007608:	9300      	str	r3, [sp, #0]
7000760a:	9b00      	ldr	r3, [sp, #0]
7000760c:	f5b3 2f70 	cmp.w	r3, #983040	@ 0xf0000
70007610:	d8ee      	bhi.n	700075f0 <USB_EPStopXfer+0x24>
70007612:	6823      	ldr	r3, [r4, #0]
70007614:	2b00      	cmp	r3, #0
70007616:	dbf5      	blt.n	70007604 <USB_EPStopXfer+0x38>
70007618:	e7e9      	b.n	700075ee <USB_EPStopXfer+0x22>
7000761a:	6999      	ldr	r1, [r3, #24]
7000761c:	f021 0180 	bic.w	r1, r1, #128	@ 0x80
70007620:	6199      	str	r1, [r3, #24]
70007622:	f503 6100 	add.w	r1, r3, #2048	@ 0x800
70007626:	6958      	ldr	r0, [r3, #20]
70007628:	0605      	lsls	r5, r0, #24
7000762a:	d403      	bmi.n	70007634 <USB_EPStopXfer+0x68>
7000762c:	6848      	ldr	r0, [r1, #4]
7000762e:	f440 7000 	orr.w	r0, r0, #512	@ 0x200
70007632:	6048      	str	r0, [r1, #4]
70007634:	06a0      	lsls	r0, r4, #26
70007636:	d43b      	bmi.n	700076b0 <USB_EPStopXfer+0xe4>
70007638:	9800      	ldr	r0, [sp, #0]
7000763a:	3001      	adds	r0, #1
7000763c:	9000      	str	r0, [sp, #0]
7000763e:	9800      	ldr	r0, [sp, #0]
70007640:	f5b0 2f70 	cmp.w	r0, #983040	@ 0xf0000
70007644:	d832      	bhi.n	700076ac <USB_EPStopXfer+0xe0>
70007646:	6958      	ldr	r0, [r3, #20]
70007648:	06c5      	lsls	r5, r0, #27
7000764a:	d5f5      	bpl.n	70007638 <USB_EPStopXfer+0x6c>
7000764c:	2000      	movs	r0, #0
7000764e:	6a1c      	ldr	r4, [r3, #32]
70007650:	9401      	str	r4, [sp, #4]
70007652:	9c01      	ldr	r4, [sp, #4]
70007654:	2400      	movs	r4, #0
70007656:	9400      	str	r4, [sp, #0]
70007658:	9c00      	ldr	r4, [sp, #0]
7000765a:	3401      	adds	r4, #1
7000765c:	9400      	str	r4, [sp, #0]
7000765e:	9c00      	ldr	r4, [sp, #0]
70007660:	f5b4 2f70 	cmp.w	r4, #983040	@ 0xf0000
70007664:	d826      	bhi.n	700076b4 <USB_EPStopXfer+0xe8>
70007666:	695c      	ldr	r4, [r3, #20]
70007668:	0624      	lsls	r4, r4, #24
7000766a:	d5f5      	bpl.n	70007658 <USB_EPStopXfer+0x8c>
7000766c:	f503 6330 	add.w	r3, r3, #2816	@ 0xb00
70007670:	589d      	ldr	r5, [r3, r2]
70007672:	189c      	adds	r4, r3, r2
70007674:	f045 6500 	orr.w	r5, r5, #134217728	@ 0x8000000
70007678:	509d      	str	r5, [r3, r2]
7000767a:	589d      	ldr	r5, [r3, r2]
7000767c:	f045 4580 	orr.w	r5, r5, #1073741824	@ 0x40000000
70007680:	509d      	str	r5, [r3, r2]
70007682:	2300      	movs	r3, #0
70007684:	9300      	str	r3, [sp, #0]
70007686:	9b00      	ldr	r3, [sp, #0]
70007688:	3301      	adds	r3, #1
7000768a:	9300      	str	r3, [sp, #0]
7000768c:	9b00      	ldr	r3, [sp, #0]
7000768e:	f5b3 2f70 	cmp.w	r3, #983040	@ 0xf0000
70007692:	d811      	bhi.n	700076b8 <USB_EPStopXfer+0xec>
70007694:	68a3      	ldr	r3, [r4, #8]
70007696:	079b      	lsls	r3, r3, #30
70007698:	d5f5      	bpl.n	70007686 <USB_EPStopXfer+0xba>
7000769a:	68a3      	ldr	r3, [r4, #8]
7000769c:	f043 0302 	orr.w	r3, r3, #2
700076a0:	60a3      	str	r3, [r4, #8]
700076a2:	684b      	ldr	r3, [r1, #4]
700076a4:	f443 6380 	orr.w	r3, r3, #1024	@ 0x400
700076a8:	604b      	str	r3, [r1, #4]
700076aa:	e7a1      	b.n	700075f0 <USB_EPStopXfer+0x24>
700076ac:	2001      	movs	r0, #1
700076ae:	e7ce      	b.n	7000764e <USB_EPStopXfer+0x82>
700076b0:	2000      	movs	r0, #0
700076b2:	e7cf      	b.n	70007654 <USB_EPStopXfer+0x88>
700076b4:	2001      	movs	r0, #1
700076b6:	e7d9      	b.n	7000766c <USB_EPStopXfer+0xa0>
700076b8:	2001      	movs	r0, #1
700076ba:	e7ee      	b.n	7000769a <USB_EPStopXfer+0xce>

700076bc <USB_EPSetStall>:
700076bc:	784a      	ldrb	r2, [r1, #1]
700076be:	780b      	ldrb	r3, [r1, #0]
700076c0:	2a01      	cmp	r2, #1
700076c2:	eb00 1043 	add.w	r0, r0, r3, lsl #5
700076c6:	d112      	bne.n	700076ee <USB_EPSetStall+0x32>
700076c8:	f8d0 2900 	ldr.w	r2, [r0, #2304]	@ 0x900
700076cc:	2a00      	cmp	r2, #0
700076ce:	db06      	blt.n	700076de <USB_EPSetStall+0x22>
700076d0:	b12b      	cbz	r3, 700076de <USB_EPSetStall+0x22>
700076d2:	f8d0 3900 	ldr.w	r3, [r0, #2304]	@ 0x900
700076d6:	f023 4380 	bic.w	r3, r3, #1073741824	@ 0x40000000
700076da:	f8c0 3900 	str.w	r3, [r0, #2304]	@ 0x900
700076de:	f8d0 3900 	ldr.w	r3, [r0, #2304]	@ 0x900
700076e2:	f443 1300 	orr.w	r3, r3, #2097152	@ 0x200000
700076e6:	f8c0 3900 	str.w	r3, [r0, #2304]	@ 0x900
700076ea:	2000      	movs	r0, #0
700076ec:	4770      	bx	lr
700076ee:	f8d0 2b00 	ldr.w	r2, [r0, #2816]	@ 0xb00
700076f2:	2a00      	cmp	r2, #0
700076f4:	db06      	blt.n	70007704 <USB_EPSetStall+0x48>
700076f6:	b12b      	cbz	r3, 70007704 <USB_EPSetStall+0x48>
700076f8:	f8d0 3b00 	ldr.w	r3, [r0, #2816]	@ 0xb00
700076fc:	f023 4380 	bic.w	r3, r3, #1073741824	@ 0x40000000
70007700:	f8c0 3b00 	str.w	r3, [r0, #2816]	@ 0xb00
70007704:	f8d0 3b00 	ldr.w	r3, [r0, #2816]	@ 0xb00
70007708:	f443 1300 	orr.w	r3, r3, #2097152	@ 0x200000
7000770c:	f8c0 3b00 	str.w	r3, [r0, #2816]	@ 0xb00
70007710:	e7eb      	b.n	700076ea <USB_EPSetStall+0x2e>

70007712 <USB_EPClearStall>:
70007712:	780b      	ldrb	r3, [r1, #0]
70007714:	784a      	ldrb	r2, [r1, #1]
70007716:	eb00 1043 	add.w	r0, r0, r3, lsl #5
7000771a:	790b      	ldrb	r3, [r1, #4]
7000771c:	2a01      	cmp	r2, #1
7000771e:	f1a3 0302 	sub.w	r3, r3, #2
70007722:	b2db      	uxtb	r3, r3
70007724:	d10f      	bne.n	70007746 <USB_EPClearStall+0x34>
70007726:	f8d0 2900 	ldr.w	r2, [r0, #2304]	@ 0x900
7000772a:	2b01      	cmp	r3, #1
7000772c:	f422 1200 	bic.w	r2, r2, #2097152	@ 0x200000
70007730:	f8c0 2900 	str.w	r2, [r0, #2304]	@ 0x900
70007734:	d805      	bhi.n	70007742 <USB_EPClearStall+0x30>
70007736:	f8d0 3900 	ldr.w	r3, [r0, #2304]	@ 0x900
7000773a:	f043 5380 	orr.w	r3, r3, #268435456	@ 0x10000000
7000773e:	f8c0 3900 	str.w	r3, [r0, #2304]	@ 0x900
70007742:	2000      	movs	r0, #0
70007744:	4770      	bx	lr
70007746:	f8d0 2b00 	ldr.w	r2, [r0, #2816]	@ 0xb00
7000774a:	2b01      	cmp	r3, #1
7000774c:	f422 1200 	bic.w	r2, r2, #2097152	@ 0x200000
70007750:	f8c0 2b00 	str.w	r2, [r0, #2816]	@ 0xb00
70007754:	d8f5      	bhi.n	70007742 <USB_EPClearStall+0x30>
70007756:	f8d0 3b00 	ldr.w	r3, [r0, #2816]	@ 0xb00
7000775a:	f043 5380 	orr.w	r3, r3, #268435456	@ 0x10000000
7000775e:	f8c0 3b00 	str.w	r3, [r0, #2816]	@ 0xb00
70007762:	e7ee      	b.n	70007742 <USB_EPClearStall+0x30>

70007764 <USB_WritePacket>:
70007764:	b510      	push	{r4, lr}
70007766:	f89d 4008 	ldrb.w	r4, [sp, #8]
7000776a:	b944      	cbnz	r4, 7000777e <USB_WritePacket+0x1a>
7000776c:	3303      	adds	r3, #3
7000776e:	3201      	adds	r2, #1
70007770:	089b      	lsrs	r3, r3, #2
70007772:	eb00 3002 	add.w	r0, r0, r2, lsl #12
70007776:	eb01 0383 	add.w	r3, r1, r3, lsl #2
7000777a:	4299      	cmp	r1, r3
7000777c:	d101      	bne.n	70007782 <USB_WritePacket+0x1e>
7000777e:	2000      	movs	r0, #0
70007780:	bd10      	pop	{r4, pc}
70007782:	f851 2b04 	ldr.w	r2, [r1], #4
70007786:	6002      	str	r2, [r0, #0]
70007788:	e7f7      	b.n	7000777a <USB_WritePacket+0x16>
	...

7000778c <USB_EPStartXfer>:
7000778c:	e92d 43f7 	stmdb	sp!, {r0, r1, r2, r4, r5, r6, r7, r8, r9, lr}
70007790:	784b      	ldrb	r3, [r1, #1]
70007792:	4617      	mov	r7, r2
70007794:	f891 e000 	ldrb.w	lr, [r1]
70007798:	2b01      	cmp	r3, #1
7000779a:	690a      	ldr	r2, [r1, #16]
7000779c:	eb00 154e 	add.w	r5, r0, lr, lsl #5
700077a0:	f891 c004 	ldrb.w	ip, [r1, #4]
700077a4:	4b6e      	ldr	r3, [pc, #440]	@ (70007960 <USB_EPStartXfer+0x1d4>)
700077a6:	4c6f      	ldr	r4, [pc, #444]	@ (70007964 <USB_EPStartXfer+0x1d8>)
700077a8:	f040 808e 	bne.w	700078c8 <USB_EPStartXfer+0x13c>
700077ac:	f505 6610 	add.w	r6, r5, #2304	@ 0x900
700077b0:	bb42      	cbnz	r2, 70007804 <USB_EPStartXfer+0x78>
700077b2:	6932      	ldr	r2, [r6, #16]
700077b4:	4013      	ands	r3, r2
700077b6:	6133      	str	r3, [r6, #16]
700077b8:	6933      	ldr	r3, [r6, #16]
700077ba:	f443 2300 	orr.w	r3, r3, #524288	@ 0x80000
700077be:	6133      	str	r3, [r6, #16]
700077c0:	6933      	ldr	r3, [r6, #16]
700077c2:	4023      	ands	r3, r4
700077c4:	6133      	str	r3, [r6, #16]
700077c6:	2f01      	cmp	r7, #1
700077c8:	d153      	bne.n	70007872 <USB_EPStartXfer+0xe6>
700077ca:	69cb      	ldr	r3, [r1, #28]
700077cc:	b103      	cbz	r3, 700077d0 <USB_EPStartXfer+0x44>
700077ce:	6173      	str	r3, [r6, #20]
700077d0:	f1bc 0f01 	cmp.w	ip, #1
700077d4:	d10c      	bne.n	700077f0 <USB_EPStartXfer+0x64>
700077d6:	f8d0 3808 	ldr.w	r3, [r0, #2056]	@ 0x808
700077da:	f413 7f80 	tst.w	r3, #256	@ 0x100
700077de:	f8d5 3900 	ldr.w	r3, [r5, #2304]	@ 0x900
700077e2:	bf0c      	ite	eq
700077e4:	f043 5300 	orreq.w	r3, r3, #536870912	@ 0x20000000
700077e8:	f043 5380 	orrne.w	r3, r3, #268435456	@ 0x10000000
700077ec:	f8c5 3900 	str.w	r3, [r5, #2304]	@ 0x900
700077f0:	f8d5 3900 	ldr.w	r3, [r5, #2304]	@ 0x900
700077f4:	f043 4304 	orr.w	r3, r3, #2214592512	@ 0x84000000
700077f8:	f8c5 3900 	str.w	r3, [r5, #2304]	@ 0x900
700077fc:	2000      	movs	r0, #0
700077fe:	b003      	add	sp, #12
70007800:	e8bd 83f0 	ldmia.w	sp!, {r4, r5, r6, r7, r8, r9, pc}
70007804:	f8d6 8010 	ldr.w	r8, [r6, #16]
70007808:	ea08 0404 	and.w	r4, r8, r4
7000780c:	6134      	str	r4, [r6, #16]
7000780e:	6934      	ldr	r4, [r6, #16]
70007810:	4023      	ands	r3, r4
70007812:	6133      	str	r3, [r6, #16]
70007814:	688b      	ldr	r3, [r1, #8]
70007816:	f1be 0f00 	cmp.w	lr, #0
7000781a:	d10d      	bne.n	70007838 <USB_EPStartXfer+0xac>
7000781c:	4293      	cmp	r3, r2
7000781e:	bf3c      	itt	cc
70007820:	461a      	movcc	r2, r3
70007822:	610b      	strcc	r3, [r1, #16]
70007824:	6933      	ldr	r3, [r6, #16]
70007826:	f443 2300 	orr.w	r3, r3, #524288	@ 0x80000
7000782a:	6133      	str	r3, [r6, #16]
7000782c:	6933      	ldr	r3, [r6, #16]
7000782e:	f3c2 0412 	ubfx	r4, r2, #0, #19
70007832:	431c      	orrs	r4, r3
70007834:	6134      	str	r4, [r6, #16]
70007836:	e7c6      	b.n	700077c6 <USB_EPStartXfer+0x3a>
70007838:	189c      	adds	r4, r3, r2
7000783a:	f8d6 8010 	ldr.w	r8, [r6, #16]
7000783e:	f1bc 0f01 	cmp.w	ip, #1
70007842:	f104 34ff 	add.w	r4, r4, #4294967295	@ 0xffffffff
70007846:	fbb4 f4f3 	udiv	r4, r4, r3
7000784a:	4b47      	ldr	r3, [pc, #284]	@ (70007968 <USB_EPStartXfer+0x1dc>)
7000784c:	fa1f f984 	uxth.w	r9, r4
70007850:	ea03 44c4 	and.w	r4, r3, r4, lsl #19
70007854:	ea44 0408 	orr.w	r4, r4, r8
70007858:	6134      	str	r4, [r6, #16]
7000785a:	d1e7      	bne.n	7000782c <USB_EPStartXfer+0xa0>
7000785c:	6933      	ldr	r3, [r6, #16]
7000785e:	f023 43c0 	bic.w	r3, r3, #1610612736	@ 0x60000000
70007862:	6133      	str	r3, [r6, #16]
70007864:	ea4f 7349 	mov.w	r3, r9, lsl #29
70007868:	6934      	ldr	r4, [r6, #16]
7000786a:	f003 43c0 	and.w	r3, r3, #1610612736	@ 0x60000000
7000786e:	4323      	orrs	r3, r4
70007870:	e7db      	b.n	7000782a <USB_EPStartXfer+0x9e>
70007872:	f8d5 3900 	ldr.w	r3, [r5, #2304]	@ 0x900
70007876:	f1bc 0f01 	cmp.w	ip, #1
7000787a:	f043 4304 	orr.w	r3, r3, #2214592512	@ 0x84000000
7000787e:	f8c5 3900 	str.w	r3, [r5, #2304]	@ 0x900
70007882:	690b      	ldr	r3, [r1, #16]
70007884:	d00c      	beq.n	700078a0 <USB_EPStartXfer+0x114>
70007886:	2b00      	cmp	r3, #0
70007888:	d0b8      	beq.n	700077fc <USB_EPStartXfer+0x70>
7000788a:	f00e 0e0f 	and.w	lr, lr, #15
7000788e:	2301      	movs	r3, #1
70007890:	f8d0 2834 	ldr.w	r2, [r0, #2100]	@ 0x834
70007894:	fa03 f30e 	lsl.w	r3, r3, lr
70007898:	4313      	orrs	r3, r2
7000789a:	f8c0 3834 	str.w	r3, [r0, #2100]	@ 0x834
7000789e:	e7ad      	b.n	700077fc <USB_EPStartXfer+0x70>
700078a0:	f8d0 2808 	ldr.w	r2, [r0, #2056]	@ 0x808
700078a4:	b29b      	uxth	r3, r3
700078a6:	f412 7f80 	tst.w	r2, #256	@ 0x100
700078aa:	f8d5 2900 	ldr.w	r2, [r5, #2304]	@ 0x900
700078ae:	bf0c      	ite	eq
700078b0:	f042 5200 	orreq.w	r2, r2, #536870912	@ 0x20000000
700078b4:	f042 5280 	orrne.w	r2, r2, #268435456	@ 0x10000000
700078b8:	f8c5 2900 	str.w	r2, [r5, #2304]	@ 0x900
700078bc:	4672      	mov	r2, lr
700078be:	9700      	str	r7, [sp, #0]
700078c0:	68c9      	ldr	r1, [r1, #12]
700078c2:	f7ff ff4f 	bl	70007764 <USB_WritePacket>
700078c6:	e799      	b.n	700077fc <USB_EPStartXfer+0x70>
700078c8:	f8d5 8b10 	ldr.w	r8, [r5, #2832]	@ 0xb10
700078cc:	f505 6630 	add.w	r6, r5, #2816	@ 0xb00
700078d0:	ea08 0404 	and.w	r4, r8, r4
700078d4:	6134      	str	r4, [r6, #16]
700078d6:	6934      	ldr	r4, [r6, #16]
700078d8:	4023      	ands	r3, r4
700078da:	6133      	str	r3, [r6, #16]
700078dc:	688b      	ldr	r3, [r1, #8]
700078de:	f1be 0f00 	cmp.w	lr, #0
700078e2:	d127      	bne.n	70007934 <USB_EPStartXfer+0x1a8>
700078e4:	b102      	cbz	r2, 700078e8 <USB_EPStartXfer+0x15c>
700078e6:	610b      	str	r3, [r1, #16]
700078e8:	620b      	str	r3, [r1, #32]
700078ea:	6932      	ldr	r2, [r6, #16]
700078ec:	f3c3 0312 	ubfx	r3, r3, #0, #19
700078f0:	4313      	orrs	r3, r2
700078f2:	6133      	str	r3, [r6, #16]
700078f4:	6933      	ldr	r3, [r6, #16]
700078f6:	f443 2300 	orr.w	r3, r3, #524288	@ 0x80000
700078fa:	2f01      	cmp	r7, #1
700078fc:	6133      	str	r3, [r6, #16]
700078fe:	d102      	bne.n	70007906 <USB_EPStartXfer+0x17a>
70007900:	68cb      	ldr	r3, [r1, #12]
70007902:	b103      	cbz	r3, 70007906 <USB_EPStartXfer+0x17a>
70007904:	6173      	str	r3, [r6, #20]
70007906:	f1bc 0f01 	cmp.w	ip, #1
7000790a:	d10c      	bne.n	70007926 <USB_EPStartXfer+0x19a>
7000790c:	f8d0 3808 	ldr.w	r3, [r0, #2056]	@ 0x808
70007910:	f413 7f80 	tst.w	r3, #256	@ 0x100
70007914:	f8d5 3b00 	ldr.w	r3, [r5, #2816]	@ 0xb00
70007918:	bf0c      	ite	eq
7000791a:	f043 5300 	orreq.w	r3, r3, #536870912	@ 0x20000000
7000791e:	f043 5380 	orrne.w	r3, r3, #268435456	@ 0x10000000
70007922:	f8c5 3b00 	str.w	r3, [r5, #2816]	@ 0xb00
70007926:	f8d5 3b00 	ldr.w	r3, [r5, #2816]	@ 0xb00
7000792a:	f043 4304 	orr.w	r3, r3, #2214592512	@ 0x84000000
7000792e:	f8c5 3b00 	str.w	r3, [r5, #2816]	@ 0xb00
70007932:	e763      	b.n	700077fc <USB_EPStartXfer+0x70>
70007934:	2a00      	cmp	r2, #0
70007936:	d0d8      	beq.n	700078ea <USB_EPStartXfer+0x15e>
70007938:	189c      	adds	r4, r3, r2
7000793a:	4a0b      	ldr	r2, [pc, #44]	@ (70007968 <USB_EPStartXfer+0x1dc>)
7000793c:	f8d6 e010 	ldr.w	lr, [r6, #16]
70007940:	3c01      	subs	r4, #1
70007942:	fbb4 f4f3 	udiv	r4, r4, r3
70007946:	b2a4      	uxth	r4, r4
70007948:	ea02 42c4 	and.w	r2, r2, r4, lsl #19
7000794c:	4363      	muls	r3, r4
7000794e:	ea42 020e 	orr.w	r2, r2, lr
70007952:	620b      	str	r3, [r1, #32]
70007954:	f3c3 0312 	ubfx	r3, r3, #0, #19
70007958:	6132      	str	r2, [r6, #16]
7000795a:	6932      	ldr	r2, [r6, #16]
7000795c:	4313      	orrs	r3, r2
7000795e:	e7cc      	b.n	700078fa <USB_EPStartXfer+0x16e>
70007960:	e007ffff 	.word	0xe007ffff
70007964:	fff80000 	.word	0xfff80000
70007968:	1ff80000 	.word	0x1ff80000

7000796c <USB_ReadPacket>:
7000796c:	b570      	push	{r4, r5, r6, lr}
7000796e:	2300      	movs	r3, #0
70007970:	0894      	lsrs	r4, r2, #2
70007972:	f500 5580 	add.w	r5, r0, #4096	@ 0x1000
70007976:	f002 0203 	and.w	r2, r2, #3
7000797a:	42a3      	cmp	r3, r4
7000797c:	d304      	bcc.n	70007988 <USB_ReadPacket+0x1c>
7000797e:	eb01 0184 	add.w	r1, r1, r4, lsl #2
70007982:	b932      	cbnz	r2, 70007992 <USB_ReadPacket+0x26>
70007984:	4608      	mov	r0, r1
70007986:	bd70      	pop	{r4, r5, r6, pc}
70007988:	682e      	ldr	r6, [r5, #0]
7000798a:	f841 6023 	str.w	r6, [r1, r3, lsl #2]
7000798e:	3301      	adds	r3, #1
70007990:	e7f3      	b.n	7000797a <USB_ReadPacket+0xe>
70007992:	f500 5080 	add.w	r0, r0, #4096	@ 0x1000
70007996:	2300      	movs	r3, #0
70007998:	6804      	ldr	r4, [r0, #0]
7000799a:	00d8      	lsls	r0, r3, #3
7000799c:	fa24 f000 	lsr.w	r0, r4, r0
700079a0:	5458      	strb	r0, [r3, r1]
700079a2:	3301      	adds	r3, #1
700079a4:	b298      	uxth	r0, r3
700079a6:	4282      	cmp	r2, r0
700079a8:	d1f7      	bne.n	7000799a <USB_ReadPacket+0x2e>
700079aa:	1850      	adds	r0, r2, r1
700079ac:	e7eb      	b.n	70007986 <USB_ReadPacket+0x1a>

700079ae <USB_SetDevAddress>:
700079ae:	f8d0 3800 	ldr.w	r3, [r0, #2048]	@ 0x800
700079b2:	0109      	lsls	r1, r1, #4
700079b4:	f423 63fe 	bic.w	r3, r3, #2032	@ 0x7f0
700079b8:	f401 61fe 	and.w	r1, r1, #2032	@ 0x7f0
700079bc:	f8c0 3800 	str.w	r3, [r0, #2048]	@ 0x800
700079c0:	f8d0 3800 	ldr.w	r3, [r0, #2048]	@ 0x800
700079c4:	4319      	orrs	r1, r3
700079c6:	f8c0 1800 	str.w	r1, [r0, #2048]	@ 0x800
700079ca:	2000      	movs	r0, #0
700079cc:	4770      	bx	lr

700079ce <USB_DevConnect>:
700079ce:	f8d0 3e00 	ldr.w	r3, [r0, #3584]	@ 0xe00
700079d2:	f023 0303 	bic.w	r3, r3, #3
700079d6:	f8c0 3e00 	str.w	r3, [r0, #3584]	@ 0xe00
700079da:	f8d0 3804 	ldr.w	r3, [r0, #2052]	@ 0x804
700079de:	f023 0302 	bic.w	r3, r3, #2
700079e2:	f8c0 3804 	str.w	r3, [r0, #2052]	@ 0x804
700079e6:	2000      	movs	r0, #0
700079e8:	4770      	bx	lr

700079ea <USB_DevDisconnect>:
700079ea:	f8d0 3e00 	ldr.w	r3, [r0, #3584]	@ 0xe00
700079ee:	f023 0303 	bic.w	r3, r3, #3
700079f2:	f8c0 3e00 	str.w	r3, [r0, #3584]	@ 0xe00
700079f6:	f8d0 3804 	ldr.w	r3, [r0, #2052]	@ 0x804
700079fa:	f043 0302 	orr.w	r3, r3, #2
700079fe:	f8c0 3804 	str.w	r3, [r0, #2052]	@ 0x804
70007a02:	2000      	movs	r0, #0
70007a04:	4770      	bx	lr

70007a06 <USB_ReadInterrupts>:
70007a06:	6942      	ldr	r2, [r0, #20]
70007a08:	6980      	ldr	r0, [r0, #24]
70007a0a:	4010      	ands	r0, r2
70007a0c:	4770      	bx	lr

70007a0e <USB_ReadDevAllOutEpInterrupt>:
70007a0e:	f8d0 3818 	ldr.w	r3, [r0, #2072]	@ 0x818
70007a12:	f500 6000 	add.w	r0, r0, #2048	@ 0x800
70007a16:	69c0      	ldr	r0, [r0, #28]
70007a18:	4018      	ands	r0, r3
70007a1a:	0c00      	lsrs	r0, r0, #16
70007a1c:	4770      	bx	lr

70007a1e <USB_ReadDevAllInEpInterrupt>:
70007a1e:	f8d0 3818 	ldr.w	r3, [r0, #2072]	@ 0x818
70007a22:	f500 6000 	add.w	r0, r0, #2048	@ 0x800
70007a26:	69c0      	ldr	r0, [r0, #28]
70007a28:	4018      	ands	r0, r3
70007a2a:	b280      	uxth	r0, r0
70007a2c:	4770      	bx	lr

70007a2e <USB_ReadDevOutEPInterrupt>:
70007a2e:	eb00 1141 	add.w	r1, r0, r1, lsl #5
70007a32:	f500 6000 	add.w	r0, r0, #2048	@ 0x800
70007a36:	f8d1 2b08 	ldr.w	r2, [r1, #2824]	@ 0xb08
70007a3a:	6940      	ldr	r0, [r0, #20]
70007a3c:	4010      	ands	r0, r2
70007a3e:	4770      	bx	lr

70007a40 <USB_ReadDevInEPInterrupt>:
70007a40:	f8d0 2810 	ldr.w	r2, [r0, #2064]	@ 0x810
70007a44:	f8d0 3834 	ldr.w	r3, [r0, #2100]	@ 0x834
70007a48:	eb00 1041 	add.w	r0, r0, r1, lsl #5
70007a4c:	f001 010f 	and.w	r1, r1, #15
70007a50:	f500 6010 	add.w	r0, r0, #2304	@ 0x900
70007a54:	40cb      	lsrs	r3, r1
70007a56:	6880      	ldr	r0, [r0, #8]
70007a58:	01db      	lsls	r3, r3, #7
70007a5a:	b2db      	uxtb	r3, r3
70007a5c:	4313      	orrs	r3, r2
70007a5e:	4018      	ands	r0, r3
70007a60:	4770      	bx	lr

70007a62 <USB_GetMode>:
70007a62:	6940      	ldr	r0, [r0, #20]
70007a64:	f000 0001 	and.w	r0, r0, #1
70007a68:	4770      	bx	lr

70007a6a <USB_ActivateSetup>:
70007a6a:	f8d0 3900 	ldr.w	r3, [r0, #2304]	@ 0x900
70007a6e:	f36f 030a 	bfc	r3, #0, #11
70007a72:	f8c0 3900 	str.w	r3, [r0, #2304]	@ 0x900
70007a76:	f8d0 3804 	ldr.w	r3, [r0, #2052]	@ 0x804
70007a7a:	f443 7380 	orr.w	r3, r3, #256	@ 0x100
70007a7e:	f8c0 3804 	str.w	r3, [r0, #2052]	@ 0x804
70007a82:	2000      	movs	r0, #0
70007a84:	4770      	bx	lr
	...

70007a88 <USB_EP0_OutStart>:
70007a88:	b530      	push	{r4, r5, lr}
70007a8a:	6c05      	ldr	r5, [r0, #64]	@ 0x40
70007a8c:	f500 6330 	add.w	r3, r0, #2816	@ 0xb00
70007a90:	4c0f      	ldr	r4, [pc, #60]	@ (70007ad0 <USB_EP0_OutStart+0x48>)
70007a92:	42a5      	cmp	r5, r4
70007a94:	d903      	bls.n	70007a9e <USB_EP0_OutStart+0x16>
70007a96:	f8d0 4b00 	ldr.w	r4, [r0, #2816]	@ 0xb00
70007a9a:	2c00      	cmp	r4, #0
70007a9c:	db16      	blt.n	70007acc <USB_EP0_OutStart+0x44>
70007a9e:	2400      	movs	r4, #0
70007aa0:	2901      	cmp	r1, #1
70007aa2:	611c      	str	r4, [r3, #16]
70007aa4:	691c      	ldr	r4, [r3, #16]
70007aa6:	f444 2400 	orr.w	r4, r4, #524288	@ 0x80000
70007aaa:	611c      	str	r4, [r3, #16]
70007aac:	691c      	ldr	r4, [r3, #16]
70007aae:	f044 0418 	orr.w	r4, r4, #24
70007ab2:	611c      	str	r4, [r3, #16]
70007ab4:	691c      	ldr	r4, [r3, #16]
70007ab6:	f044 44c0 	orr.w	r4, r4, #1610612736	@ 0x60000000
70007aba:	611c      	str	r4, [r3, #16]
70007abc:	d106      	bne.n	70007acc <USB_EP0_OutStart+0x44>
70007abe:	615a      	str	r2, [r3, #20]
70007ac0:	f8d0 3b00 	ldr.w	r3, [r0, #2816]	@ 0xb00
70007ac4:	f043 2380 	orr.w	r3, r3, #2147516416	@ 0x80008000
70007ac8:	f8c0 3b00 	str.w	r3, [r0, #2816]	@ 0xb00
70007acc:	2000      	movs	r0, #0
70007ace:	bd30      	pop	{r4, r5, pc}
70007ad0:	4f54300a 	.word	0x4f54300a

70007ad4 <CAD_Check_HW_SNK>:
70007ad4:	233c      	movs	r3, #60	@ 0x3c
70007ad6:	4a1b      	ldr	r2, [pc, #108]	@ (70007b44 <CAD_Check_HW_SNK+0x70>)
70007ad8:	4343      	muls	r3, r0
70007ada:	b5f0      	push	{r4, r5, r6, r7, lr}
70007adc:	18d5      	adds	r5, r2, r3
70007ade:	270c      	movs	r7, #12
70007ae0:	58d3      	ldr	r3, [r2, r3]
70007ae2:	fb07 f100 	mul.w	r1, r7, r0
70007ae6:	695c      	ldr	r4, [r3, #20]
70007ae8:	695a      	ldr	r2, [r3, #20]
70007aea:	4b17      	ldr	r3, [pc, #92]	@ (70007b48 <CAD_Check_HW_SNK+0x74>)
70007aec:	f414 3440 	ands.w	r4, r4, #196608	@ 0x30000
70007af0:	f402 2240 	and.w	r2, r2, #786432	@ 0xc0000
70007af4:	5c5e      	ldrb	r6, [r3, r1]
70007af6:	f026 0603 	bic.w	r6, r6, #3
70007afa:	545e      	strb	r6, [r3, r1]
70007afc:	d106      	bne.n	70007b0c <CAD_Check_HW_SNK+0x38>
70007afe:	b9a2      	cbnz	r2, 70007b2a <CAD_Check_HW_SNK+0x56>
70007b00:	4378      	muls	r0, r7
70007b02:	5c1a      	ldrb	r2, [r3, r0]
70007b04:	f022 021c 	bic.w	r2, r2, #28
70007b08:	541a      	strb	r2, [r3, r0]
70007b0a:	bdf0      	pop	{r4, r5, r6, r7, pc}
70007b0c:	2a00      	cmp	r2, #0
70007b0e:	d1f7      	bne.n	70007b00 <CAD_Check_HW_SNK+0x2c>
70007b10:	5c5a      	ldrb	r2, [r3, r1]
70007b12:	0c24      	lsrs	r4, r4, #16
70007b14:	f022 021f 	bic.w	r2, r2, #31
70007b18:	f042 0205 	orr.w	r2, r2, #5
70007b1c:	545a      	strb	r2, [r3, r1]
70007b1e:	692b      	ldr	r3, [r5, #16]
70007b20:	789a      	ldrb	r2, [r3, #2]
70007b22:	f364 0283 	bfi	r2, r4, #2, #2
70007b26:	709a      	strb	r2, [r3, #2]
70007b28:	e7ef      	b.n	70007b0a <CAD_Check_HW_SNK+0x36>
70007b2a:	5c58      	ldrb	r0, [r3, r1]
70007b2c:	0c92      	lsrs	r2, r2, #18
70007b2e:	f020 001f 	bic.w	r0, r0, #31
70007b32:	f040 0006 	orr.w	r0, r0, #6
70007b36:	5458      	strb	r0, [r3, r1]
70007b38:	692b      	ldr	r3, [r5, #16]
70007b3a:	7899      	ldrb	r1, [r3, #2]
70007b3c:	f362 0183 	bfi	r1, r2, #2, #2
70007b40:	7099      	strb	r1, [r3, #2]
70007b42:	e7e2      	b.n	70007b0a <CAD_Check_HW_SNK+0x36>
70007b44:	2400183c 	.word	0x2400183c
70007b48:	2400182c 	.word	0x2400182c

70007b4c <CAD_StateMachine_SNK>:
70007b4c:	e92d 4ff7 	stmdb	sp!, {r0, r1, r2, r4, r5, r6, r7, r8, r9, sl, fp, lr}
70007b50:	250c      	movs	r5, #12
70007b52:	4e5e      	ldr	r6, [pc, #376]	@ (70007ccc <CAD_StateMachine_SNK+0x180>)
70007b54:	4604      	mov	r4, r0
70007b56:	468b      	mov	fp, r1
70007b58:	fb05 f800 	mul.w	r8, r5, r0
70007b5c:	4692      	mov	sl, r2
70007b5e:	eb06 0708 	add.w	r7, r6, r8
70007b62:	f897 9001 	ldrb.w	r9, [r7, #1]
70007b66:	f3c9 0344 	ubfx	r3, r9, #1, #5
70007b6a:	2b02      	cmp	r3, #2
70007b6c:	4699      	mov	r9, r3
70007b6e:	9300      	str	r3, [sp, #0]
70007b70:	d02b      	beq.n	70007bca <CAD_StateMachine_SNK+0x7e>
70007b72:	2b03      	cmp	r3, #3
70007b74:	d07f      	beq.n	70007c76 <CAD_StateMachine_SNK+0x12a>
70007b76:	2b01      	cmp	r3, #1
70007b78:	d11e      	bne.n	70007bb8 <CAD_StateMachine_SNK+0x6c>
70007b7a:	f7ff ffab 	bl	70007ad4 <CAD_Check_HW_SNK>
70007b7e:	f816 3008 	ldrb.w	r3, [r6, r8]
70007b82:	f013 0f1c 	tst.w	r3, #28
70007b86:	f000 809c 	beq.w	70007cc2 <CAD_StateMachine_SNK+0x176>
70007b8a:	f7fa fa5f 	bl	7000204c <HAL_GetTick>
70007b8e:	787b      	ldrb	r3, [r7, #1]
70007b90:	2202      	movs	r2, #2
70007b92:	6078      	str	r0, [r7, #4]
70007b94:	4648      	mov	r0, r9
70007b96:	f362 0345 	bfi	r3, r2, #1, #5
70007b9a:	707b      	strb	r3, [r7, #1]
70007b9c:	f7fa fa5c 	bl	70002058 <HAL_Delay>
70007ba0:	4620      	mov	r0, r4
70007ba2:	f7ff ff97 	bl	70007ad4 <CAD_Check_HW_SNK>
70007ba6:	f816 3008 	ldrb.w	r3, [r6, r8]
70007baa:	f013 0f1c 	tst.w	r3, #28
70007bae:	d108      	bne.n	70007bc2 <CAD_StateMachine_SNK+0x76>
70007bb0:	787b      	ldrb	r3, [r7, #1]
70007bb2:	f369 0345 	bfi	r3, r9, #1, #5
70007bb6:	707b      	strb	r3, [r7, #1]
70007bb8:	2502      	movs	r5, #2
70007bba:	4628      	mov	r0, r5
70007bbc:	b003      	add	sp, #12
70007bbe:	e8bd 8ff0 	ldmia.w	sp!, {r4, r5, r6, r7, r8, r9, sl, fp, pc}
70007bc2:	4620      	mov	r0, r4
70007bc4:	f7fa f800 	bl	70001bc8 <BSP_USBPD_PWR_VBUSInit>
70007bc8:	e7f6      	b.n	70007bb8 <CAD_StateMachine_SNK+0x6c>
70007bca:	f7fa fa3f 	bl	7000204c <HAL_GetTick>
70007bce:	687a      	ldr	r2, [r7, #4]
70007bd0:	4681      	mov	r9, r0
70007bd2:	4620      	mov	r0, r4
70007bd4:	9201      	str	r2, [sp, #4]
70007bd6:	f7ff ff7d 	bl	70007ad4 <CAD_Check_HW_SNK>
70007bda:	f816 3008 	ldrb.w	r3, [r6, r8]
70007bde:	9a01      	ldr	r2, [sp, #4]
70007be0:	f003 011c 	and.w	r1, r3, #28
70007be4:	2904      	cmp	r1, #4
70007be6:	d126      	bne.n	70007c36 <CAD_StateMachine_SNK+0xea>
70007be8:	eba9 0902 	sub.w	r9, r9, r2
70007bec:	f1b9 0f78 	cmp.w	r9, #120	@ 0x78
70007bf0:	d91a      	bls.n	70007c28 <CAD_StateMachine_SNK+0xdc>
70007bf2:	2101      	movs	r1, #1
70007bf4:	4620      	mov	r0, r4
70007bf6:	f7f9 f91c 	bl	70000e32 <USBPD_PWR_IF_GetVBUSStatus>
70007bfa:	2801      	cmp	r0, #1
70007bfc:	d114      	bne.n	70007c28 <CAD_StateMachine_SNK+0xdc>
70007bfe:	f816 1008 	ldrb.w	r1, [r6, r8]
70007c02:	4620      	mov	r0, r4
70007c04:	f001 0103 	and.w	r1, r1, #3
70007c08:	f000 fb2c 	bl	70008264 <HW_SignalAttachement>
70007c0c:	787b      	ldrb	r3, [r7, #1]
70007c0e:	2203      	movs	r2, #3
70007c10:	f362 0345 	bfi	r3, r2, #1, #5
70007c14:	707b      	strb	r3, [r7, #1]
70007c16:	f89d 3000 	ldrb.w	r3, [sp]
70007c1a:	f88b 3000 	strb.w	r3, [fp]
70007c1e:	f816 3008 	ldrb.w	r3, [r6, r8]
70007c22:	4013      	ands	r3, r2
70007c24:	f8ca 3000 	str.w	r3, [sl]
70007c28:	230c      	movs	r3, #12
70007c2a:	4363      	muls	r3, r4
70007c2c:	5cf2      	ldrb	r2, [r6, r3]
70007c2e:	f022 0220 	bic.w	r2, r2, #32
70007c32:	54f2      	strb	r2, [r6, r3]
70007c34:	e7c0      	b.n	70007bb8 <CAD_StateMachine_SNK+0x6c>
70007c36:	069b      	lsls	r3, r3, #26
70007c38:	d409      	bmi.n	70007c4e <CAD_StateMachine_SNK+0x102>
70007c3a:	f7fa fa07 	bl	7000204c <HAL_GetTick>
70007c3e:	f816 3008 	ldrb.w	r3, [r6, r8]
70007c42:	6078      	str	r0, [r7, #4]
70007c44:	f043 0320 	orr.w	r3, r3, #32
70007c48:	f806 3008 	strb.w	r3, [r6, r8]
70007c4c:	e7b5      	b.n	70007bba <CAD_StateMachine_SNK+0x6e>
70007c4e:	f7fa f9fd 	bl	7000204c <HAL_GetTick>
70007c52:	687b      	ldr	r3, [r7, #4]
70007c54:	1ac0      	subs	r0, r0, r3
70007c56:	280c      	cmp	r0, #12
70007c58:	d9ae      	bls.n	70007bb8 <CAD_StateMachine_SNK+0x6c>
70007c5a:	f836 3008 	ldrh.w	r3, [r6, r8]
70007c5e:	4620      	mov	r0, r4
70007c60:	f423 5378 	bic.w	r3, r3, #15872	@ 0x3e00
70007c64:	f023 0320 	bic.w	r3, r3, #32
70007c68:	f443 7300 	orr.w	r3, r3, #512	@ 0x200
70007c6c:	f826 3008 	strh.w	r3, [r6, r8]
70007c70:	f7fa f830 	bl	70001cd4 <BSP_USBPD_PWR_VBUSDeInit>
70007c74:	e7a0      	b.n	70007bb8 <CAD_StateMachine_SNK+0x6c>
70007c76:	233c      	movs	r3, #60	@ 0x3c
70007c78:	4a15      	ldr	r2, [pc, #84]	@ (70007cd0 <CAD_StateMachine_SNK+0x184>)
70007c7a:	4343      	muls	r3, r0
70007c7c:	18d1      	adds	r1, r2, r3
70007c7e:	58d3      	ldr	r3, [r2, r3]
70007c80:	6b4a      	ldr	r2, [r1, #52]	@ 0x34
70007c82:	2102      	movs	r1, #2
70007c84:	695d      	ldr	r5, [r3, #20]
70007c86:	2a01      	cmp	r2, #1
70007c88:	bf0c      	ite	eq
70007c8a:	f405 3540 	andeq.w	r5, r5, #196608	@ 0x30000
70007c8e:	f405 2540 	andne.w	r5, r5, #786432	@ 0xc0000
70007c92:	f7f9 f8ce 	bl	70000e32 <USBPD_PWR_IF_GetVBUSStatus>
70007c96:	2801      	cmp	r0, #1
70007c98:	4607      	mov	r7, r0
70007c9a:	d115      	bne.n	70007cc8 <CAD_StateMachine_SNK+0x17c>
70007c9c:	b9a5      	cbnz	r5, 70007cc8 <CAD_StateMachine_SNK+0x17c>
70007c9e:	4620      	mov	r0, r4
70007ca0:	f000 fae8 	bl	70008274 <HW_SignalDetachment>
70007ca4:	230c      	movs	r3, #12
70007ca6:	435c      	muls	r4, r3
70007ca8:	5b33      	ldrh	r3, [r6, r4]
70007caa:	f423 5378 	bic.w	r3, r3, #15872	@ 0x3e00
70007cae:	f023 031c 	bic.w	r3, r3, #28
70007cb2:	f443 7300 	orr.w	r3, r3, #512	@ 0x200
70007cb6:	5333      	strh	r3, [r6, r4]
70007cb8:	f88b 7000 	strb.w	r7, [fp]
70007cbc:	f8ca 5000 	str.w	r5, [sl]
70007cc0:	e77b      	b.n	70007bba <CAD_StateMachine_SNK+0x6e>
70007cc2:	f04f 35ff 	mov.w	r5, #4294967295	@ 0xffffffff
70007cc6:	e778      	b.n	70007bba <CAD_StateMachine_SNK+0x6e>
70007cc8:	250a      	movs	r5, #10
70007cca:	e776      	b.n	70007bba <CAD_StateMachine_SNK+0x6e>
70007ccc:	2400182c 	.word	0x2400182c
70007cd0:	2400183c 	.word	0x2400183c

70007cd4 <CAD_HW_IF_VBUSDetectCallback>:
70007cd4:	b570      	push	{r4, r5, r6, lr}
70007cd6:	4604      	mov	r4, r0
70007cd8:	b1b1      	cbz	r1, 70007d08 <CAD_HW_IF_VBUSDetectCallback+0x34>
70007cda:	4b11      	ldr	r3, [pc, #68]	@ (70007d20 <CAD_HW_IF_VBUSDetectCallback+0x4c>)
70007cdc:	223c      	movs	r2, #60	@ 0x3c
70007cde:	b2c0      	uxtb	r0, r0
70007ce0:	260c      	movs	r6, #12
70007ce2:	fb02 3304 	mla	r3, r2, r4, r3
70007ce6:	4d0f      	ldr	r5, [pc, #60]	@ (70007d24 <CAD_HW_IF_VBUSDetectCallback+0x50>)
70007ce8:	691b      	ldr	r3, [r3, #16]
70007cea:	781b      	ldrb	r3, [r3, #0]
70007cec:	f013 0f04 	tst.w	r3, #4
70007cf0:	d00b      	beq.n	70007d0a <CAD_HW_IF_VBUSDetectCallback+0x36>
70007cf2:	4374      	muls	r4, r6
70007cf4:	f000 fabe 	bl	70008274 <HW_SignalDetachment>
70007cf8:	5b2b      	ldrh	r3, [r5, r4]
70007cfa:	f423 5378 	bic.w	r3, r3, #15872	@ 0x3e00
70007cfe:	f023 0320 	bic.w	r3, r3, #32
70007d02:	f443 53b0 	orr.w	r3, r3, #5632	@ 0x1600
70007d06:	532b      	strh	r3, [r5, r4]
70007d08:	bd70      	pop	{r4, r5, r6, pc}
70007d0a:	4374      	muls	r4, r6
70007d0c:	f000 fab2 	bl	70008274 <HW_SignalDetachment>
70007d10:	5b2b      	ldrh	r3, [r5, r4]
70007d12:	f423 5378 	bic.w	r3, r3, #15872	@ 0x3e00
70007d16:	f023 031c 	bic.w	r3, r3, #28
70007d1a:	f443 7300 	orr.w	r3, r3, #512	@ 0x200
70007d1e:	e7f2      	b.n	70007d06 <CAD_HW_IF_VBUSDetectCallback+0x32>
70007d20:	2400183c 	.word	0x2400183c
70007d24:	2400182c 	.word	0x2400182c

70007d28 <LL_GPIO_SetPinPull.constprop.0>:
70007d28:	fa90 f0a0 	rbit	r0, r0
70007d2c:	fab0 f080 	clz	r0, r0
70007d30:	4904      	ldr	r1, [pc, #16]	@ (70007d44 <LL_GPIO_SetPinPull.constprop.0+0x1c>)
70007d32:	2203      	movs	r2, #3
70007d34:	0040      	lsls	r0, r0, #1
70007d36:	68cb      	ldr	r3, [r1, #12]
70007d38:	4082      	lsls	r2, r0
70007d3a:	ea23 0302 	bic.w	r3, r3, r2
70007d3e:	60cb      	str	r3, [r1, #12]
70007d40:	4770      	bx	lr
70007d42:	bf00      	nop
70007d44:	58023000 	.word	0x58023000

70007d48 <LL_GPIO_SetPinMode.constprop.0>:
70007d48:	4b0a      	ldr	r3, [pc, #40]	@ (70007d74 <LL_GPIO_SetPinMode.constprop.0+0x2c>)
70007d4a:	2203      	movs	r2, #3
70007d4c:	6819      	ldr	r1, [r3, #0]
70007d4e:	fa90 f3a0 	rbit	r3, r0
70007d52:	fab3 f383 	clz	r3, r3
70007d56:	fa90 f0a0 	rbit	r0, r0
70007d5a:	005b      	lsls	r3, r3, #1
70007d5c:	fab0 f080 	clz	r0, r0
70007d60:	fa02 f303 	lsl.w	r3, r2, r3
70007d64:	0040      	lsls	r0, r0, #1
70007d66:	ea21 0303 	bic.w	r3, r1, r3
70007d6a:	4082      	lsls	r2, r0
70007d6c:	431a      	orrs	r2, r3
70007d6e:	4b01      	ldr	r3, [pc, #4]	@ (70007d74 <LL_GPIO_SetPinMode.constprop.0+0x2c>)
70007d70:	601a      	str	r2, [r3, #0]
70007d72:	4770      	bx	lr
70007d74:	58023000 	.word	0x58023000

70007d78 <CAD_Init>:
70007d78:	b5f0      	push	{r4, r5, r6, r7, lr}
70007d7a:	253c      	movs	r5, #60	@ 0x3c
70007d7c:	4e30      	ldr	r6, [pc, #192]	@ (70007e40 <CAD_Init+0xc8>)
70007d7e:	b087      	sub	sp, #28
70007d80:	7897      	ldrb	r7, [r2, #2]
70007d82:	4345      	muls	r5, r0
70007d84:	f8df e0c8 	ldr.w	lr, [pc, #200]	@ 70007e50 <CAD_Init+0xd8>
70007d88:	f027 070f 	bic.w	r7, r7, #15
70007d8c:	4604      	mov	r4, r0
70007d8e:	eb06 0c05 	add.w	ip, r6, r5
70007d92:	e9cc 1203 	strd	r1, r2, [ip, #12]
70007d96:	7809      	ldrb	r1, [r1, #0]
70007d98:	f3c1 0141 	ubfx	r1, r1, #1, #2
70007d9c:	4339      	orrs	r1, r7
70007d9e:	7091      	strb	r1, [r2, #2]
70007da0:	220c      	movs	r2, #12
70007da2:	2100      	movs	r1, #0
70007da4:	f8cc 302c 	str.w	r3, [ip, #44]	@ 0x2c
70007da8:	4342      	muls	r2, r0
70007daa:	eb02 070e 	add.w	r7, r2, lr
70007dae:	f84e 1002 	str.w	r1, [lr, r2]
70007db2:	e9c7 1101 	strd	r1, r1, [r7, #4]
70007db6:	f000 f893 	bl	70007ee0 <USBPD_HW_GetUSPDInstance>
70007dba:	5170      	str	r0, [r6, r5]
70007dbc:	a802      	add	r0, sp, #8
70007dbe:	f7ff f91b 	bl	70006ff8 <LL_UCPD_StructInit>
70007dc2:	a902      	add	r1, sp, #8
70007dc4:	5970      	ldr	r0, [r6, r5]
70007dc6:	f7ff f8eb 	bl	70006fa0 <LL_UCPD_Init>
70007dca:	5972      	ldr	r2, [r6, r5]
70007dcc:	6813      	ldr	r3, [r2, #0]
70007dce:	f36f 531c 	bfc	r3, #20, #9
70007dd2:	f043 73f8 	orr.w	r3, r3, #32505856	@ 0x1f00000
70007dd6:	6013      	str	r3, [r2, #0]
70007dd8:	68d3      	ldr	r3, [r2, #12]
70007dda:	f443 6340 	orr.w	r3, r3, #3072	@ 0xc00
70007dde:	60d3      	str	r3, [r2, #12]
70007de0:	f7fc f870 	bl	70003ec4 <HAL_PWREx_DisableUCPDDeadBattery>
70007de4:	4b17      	ldr	r3, [pc, #92]	@ (70007e44 <CAD_Init+0xcc>)
70007de6:	2001      	movs	r0, #1
70007de8:	f8d3 2140 	ldr.w	r2, [r3, #320]	@ 0x140
70007dec:	f442 5280 	orr.w	r2, r2, #4096	@ 0x1000
70007df0:	f8c3 2140 	str.w	r2, [r3, #320]	@ 0x140
70007df4:	f8d3 3140 	ldr.w	r3, [r3, #320]	@ 0x140
70007df8:	9301      	str	r3, [sp, #4]
70007dfa:	9b01      	ldr	r3, [sp, #4]
70007dfc:	f7ff ffa4 	bl	70007d48 <LL_GPIO_SetPinMode.constprop.0>
70007e00:	2002      	movs	r0, #2
70007e02:	f7ff ffa1 	bl	70007d48 <LL_GPIO_SetPinMode.constprop.0>
70007e06:	2001      	movs	r0, #1
70007e08:	f7ff ff8e 	bl	70007d28 <LL_GPIO_SetPinPull.constprop.0>
70007e0c:	2002      	movs	r0, #2
70007e0e:	f7ff ff8b 	bl	70007d28 <LL_GPIO_SetPinPull.constprop.0>
70007e12:	4620      	mov	r0, r4
70007e14:	f7f9 fd30 	bl	70001878 <BSP_USBPD_PWR_Init>
70007e18:	490b      	ldr	r1, [pc, #44]	@ (70007e48 <CAD_Init+0xd0>)
70007e1a:	4620      	mov	r0, r4
70007e1c:	f7f9 ff88 	bl	70001d30 <BSP_USBPD_PWR_RegisterVBUSDetectCallback>
70007e20:	5972      	ldr	r2, [r6, r5]
70007e22:	4620      	mov	r0, r4
70007e24:	6813      	ldr	r3, [r2, #0]
70007e26:	f043 4300 	orr.w	r3, r3, #2147483648	@ 0x80000000
70007e2a:	6013      	str	r3, [r2, #0]
70007e2c:	f000 f9c6 	bl	700081bc <USBPDM1_AssertRd>
70007e30:	2102      	movs	r1, #2
70007e32:	4620      	mov	r0, r4
70007e34:	f7f9 fe66 	bl	70001b04 <BSP_USBPD_PWR_SetPowerMode>
70007e38:	4b04      	ldr	r3, [pc, #16]	@ (70007e4c <CAD_Init+0xd4>)
70007e3a:	60bb      	str	r3, [r7, #8]
70007e3c:	b007      	add	sp, #28
70007e3e:	bdf0      	pop	{r4, r5, r6, r7, pc}
70007e40:	2400183c 	.word	0x2400183c
70007e44:	58024400 	.word	0x58024400
70007e48:	70007cd5 	.word	0x70007cd5
70007e4c:	70007b4d 	.word	0x70007b4d
70007e50:	2400182c 	.word	0x2400182c

70007e54 <CAD_Enter_ErrorRecovery>:
70007e54:	b510      	push	{r4, lr}
70007e56:	4604      	mov	r4, r0
70007e58:	f000 f9f0 	bl	7000823c <USBPDM1_EnterErrorRecovery>
70007e5c:	230c      	movs	r3, #12
70007e5e:	4907      	ldr	r1, [pc, #28]	@ (70007e7c <CAD_Enter_ErrorRecovery+0x28>)
70007e60:	4363      	muls	r3, r4
70007e62:	5cca      	ldrb	r2, [r1, r3]
70007e64:	f042 0280 	orr.w	r2, r2, #128	@ 0x80
70007e68:	54ca      	strb	r2, [r1, r3]
70007e6a:	223c      	movs	r2, #60	@ 0x3c
70007e6c:	4b04      	ldr	r3, [pc, #16]	@ (70007e80 <CAD_Enter_ErrorRecovery+0x2c>)
70007e6e:	fb02 3304 	mla	r3, r2, r4, r3
70007e72:	e8bd 4010 	ldmia.w	sp!, {r4, lr}
70007e76:	6adb      	ldr	r3, [r3, #44]	@ 0x2c
70007e78:	4718      	bx	r3
70007e7a:	bf00      	nop
70007e7c:	2400182c 	.word	0x2400182c
70007e80:	2400183c 	.word	0x2400183c

70007e84 <CAD_StateMachine>:
70007e84:	b430      	push	{r4, r5}
70007e86:	2500      	movs	r5, #0
70007e88:	4b12      	ldr	r3, [pc, #72]	@ (70007ed4 <CAD_StateMachine+0x50>)
70007e8a:	4604      	mov	r4, r0
70007e8c:	700d      	strb	r5, [r1, #0]
70007e8e:	250c      	movs	r5, #12
70007e90:	fb05 3300 	mla	r3, r5, r0, r3
70007e94:	785d      	ldrb	r5, [r3, #1]
70007e96:	f015 0f3e 	tst.w	r5, #62	@ 0x3e
70007e9a:	d002      	beq.n	70007ea2 <CAD_StateMachine+0x1e>
70007e9c:	689b      	ldr	r3, [r3, #8]
70007e9e:	bc30      	pop	{r4, r5}
70007ea0:	4718      	bx	r3
70007ea2:	223c      	movs	r2, #60	@ 0x3c
70007ea4:	4354      	muls	r4, r2
70007ea6:	4a0c      	ldr	r2, [pc, #48]	@ (70007ed8 <CAD_StateMachine+0x54>)
70007ea8:	5912      	ldr	r2, [r2, r4]
70007eaa:	6911      	ldr	r1, [r2, #16]
70007eac:	f441 4100 	orr.w	r1, r1, #32768	@ 0x8000
70007eb0:	6111      	str	r1, [r2, #16]
70007eb2:	6911      	ldr	r1, [r2, #16]
70007eb4:	f441 4180 	orr.w	r1, r1, #16384	@ 0x4000
70007eb8:	6111      	str	r1, [r2, #16]
70007eba:	2160      	movs	r1, #96	@ 0x60
70007ebc:	4a07      	ldr	r2, [pc, #28]	@ (70007edc <CAD_StateMachine+0x58>)
70007ebe:	f882 1380 	strb.w	r1, [r2, #896]	@ 0x380
70007ec2:	2101      	movs	r1, #1
70007ec4:	6111      	str	r1, [r2, #16]
70007ec6:	785a      	ldrb	r2, [r3, #1]
70007ec8:	2002      	movs	r0, #2
70007eca:	f361 0245 	bfi	r2, r1, #1, #5
70007ece:	bc30      	pop	{r4, r5}
70007ed0:	705a      	strb	r2, [r3, #1]
70007ed2:	4770      	bx	lr
70007ed4:	2400182c 	.word	0x2400182c
70007ed8:	2400183c 	.word	0x2400183c
70007edc:	e000e100 	.word	0xe000e100

70007ee0 <USBPD_HW_GetUSPDInstance>:
70007ee0:	4800      	ldr	r0, [pc, #0]	@ (70007ee4 <USBPD_HW_GetUSPDInstance+0x4>)
70007ee2:	4770      	bx	lr
70007ee4:	4000ec00 	.word	0x4000ec00

70007ee8 <PORTx_IRQHandler>:
70007ee8:	233c      	movs	r3, #60	@ 0x3c
70007eea:	b570      	push	{r4, r5, r6, lr}
70007eec:	4343      	muls	r3, r0
70007eee:	4e64      	ldr	r6, [pc, #400]	@ (70008080 <PORTx_IRQHandler+0x198>)
70007ef0:	4605      	mov	r5, r0
70007ef2:	58f4      	ldr	r4, [r6, r3]
70007ef4:	18f2      	adds	r2, r6, r3
70007ef6:	6963      	ldr	r3, [r4, #20]
70007ef8:	6921      	ldr	r1, [r4, #16]
70007efa:	4219      	tst	r1, r3
70007efc:	d068      	beq.n	70007fd0 <PORTx_IRQHandler+0xe8>
70007efe:	0799      	lsls	r1, r3, #30
70007f00:	d514      	bpl.n	70007f2c <PORTx_IRQHandler+0x44>
70007f02:	69a3      	ldr	r3, [r4, #24]
70007f04:	f043 0302 	orr.w	r3, r3, #2
70007f08:	61a3      	str	r3, [r4, #24]
70007f0a:	6853      	ldr	r3, [r2, #4]
70007f0c:	695a      	ldr	r2, [r3, #20]
70007f0e:	f042 0206 	orr.w	r2, r2, #6
70007f12:	615a      	str	r2, [r3, #20]
70007f14:	695a      	ldr	r2, [r3, #20]
70007f16:	07d0      	lsls	r0, r2, #31
70007f18:	d4fc      	bmi.n	70007f14 <PORTx_IRQHandler+0x2c>
70007f1a:	233c      	movs	r3, #60	@ 0x3c
70007f1c:	2101      	movs	r1, #1
70007f1e:	fb03 6305 	mla	r3, r3, r5, r6
70007f22:	695b      	ldr	r3, [r3, #20]
70007f24:	4628      	mov	r0, r5
70007f26:	e8bd 4070 	ldmia.w	sp!, {r4, r5, r6, lr}
70007f2a:	4718      	bx	r3
70007f2c:	0759      	lsls	r1, r3, #29
70007f2e:	d511      	bpl.n	70007f54 <PORTx_IRQHandler+0x6c>
70007f30:	69a3      	ldr	r3, [r4, #24]
70007f32:	f043 0304 	orr.w	r3, r3, #4
70007f36:	61a3      	str	r3, [r4, #24]
70007f38:	6853      	ldr	r3, [r2, #4]
70007f3a:	695a      	ldr	r2, [r3, #20]
70007f3c:	f042 0206 	orr.w	r2, r2, #6
70007f40:	615a      	str	r2, [r3, #20]
70007f42:	6959      	ldr	r1, [r3, #20]
70007f44:	f011 0101 	ands.w	r1, r1, #1
70007f48:	d1fb      	bne.n	70007f42 <PORTx_IRQHandler+0x5a>
70007f4a:	233c      	movs	r3, #60	@ 0x3c
70007f4c:	fb03 6305 	mla	r3, r3, r5, r6
70007f50:	695b      	ldr	r3, [r3, #20]
70007f52:	e7e7      	b.n	70007f24 <PORTx_IRQHandler+0x3c>
70007f54:	0719      	lsls	r1, r3, #28
70007f56:	d511      	bpl.n	70007f7c <PORTx_IRQHandler+0x94>
70007f58:	69a3      	ldr	r3, [r4, #24]
70007f5a:	f043 0308 	orr.w	r3, r3, #8
70007f5e:	61a3      	str	r3, [r4, #24]
70007f60:	6853      	ldr	r3, [r2, #4]
70007f62:	695a      	ldr	r2, [r3, #20]
70007f64:	f042 0206 	orr.w	r2, r2, #6
70007f68:	615a      	str	r2, [r3, #20]
70007f6a:	695a      	ldr	r2, [r3, #20]
70007f6c:	07d0      	lsls	r0, r2, #31
70007f6e:	d4fc      	bmi.n	70007f6a <PORTx_IRQHandler+0x82>
70007f70:	233c      	movs	r3, #60	@ 0x3c
70007f72:	2102      	movs	r1, #2
70007f74:	fb03 6305 	mla	r3, r3, r5, r6
70007f78:	695b      	ldr	r3, [r3, #20]
70007f7a:	e7d3      	b.n	70007f24 <PORTx_IRQHandler+0x3c>
70007f7c:	06d9      	lsls	r1, r3, #27
70007f7e:	d504      	bpl.n	70007f8a <PORTx_IRQHandler+0xa2>
70007f80:	69a3      	ldr	r3, [r4, #24]
70007f82:	f043 0310 	orr.w	r3, r3, #16
70007f86:	61a3      	str	r3, [r4, #24]
70007f88:	e022      	b.n	70007fd0 <PORTx_IRQHandler+0xe8>
70007f8a:	0699      	lsls	r1, r3, #26
70007f8c:	d508      	bpl.n	70007fa0 <PORTx_IRQHandler+0xb8>
70007f8e:	69a3      	ldr	r3, [r4, #24]
70007f90:	2105      	movs	r1, #5
70007f92:	f043 0320 	orr.w	r3, r3, #32
70007f96:	61a3      	str	r3, [r4, #24]
70007f98:	6a53      	ldr	r3, [r2, #36]	@ 0x24
70007f9a:	e8bd 4070 	ldmia.w	sp!, {r4, r5, r6, lr}
70007f9e:	4718      	bx	r3
70007fa0:	0659      	lsls	r1, r3, #25
70007fa2:	d503      	bpl.n	70007fac <PORTx_IRQHandler+0xc4>
70007fa4:	69a3      	ldr	r3, [r4, #24]
70007fa6:	f043 0340 	orr.w	r3, r3, #64	@ 0x40
70007faa:	e7ec      	b.n	70007f86 <PORTx_IRQHandler+0x9e>
70007fac:	0599      	lsls	r1, r3, #22
70007fae:	d510      	bpl.n	70007fd2 <PORTx_IRQHandler+0xea>
70007fb0:	6aa3      	ldr	r3, [r4, #40]	@ 0x28
70007fb2:	2b05      	cmp	r3, #5
70007fb4:	d102      	bne.n	70007fbc <PORTx_IRQHandler+0xd4>
70007fb6:	69d3      	ldr	r3, [r2, #28]
70007fb8:	2106      	movs	r1, #6
70007fba:	4798      	blx	r3
70007fbc:	69a3      	ldr	r3, [r4, #24]
70007fbe:	2201      	movs	r2, #1
70007fc0:	f443 7300 	orr.w	r3, r3, #512	@ 0x200
70007fc4:	61a3      	str	r3, [r4, #24]
70007fc6:	233c      	movs	r3, #60	@ 0x3c
70007fc8:	fb03 6305 	mla	r3, r3, r5, r6
70007fcc:	f883 2038 	strb.w	r2, [r3, #56]	@ 0x38
70007fd0:	bd70      	pop	{r4, r5, r6, pc}
70007fd2:	0559      	lsls	r1, r3, #21
70007fd4:	d506      	bpl.n	70007fe4 <PORTx_IRQHandler+0xfc>
70007fd6:	69d3      	ldr	r3, [r2, #28]
70007fd8:	2105      	movs	r1, #5
70007fda:	4798      	blx	r3
70007fdc:	69a3      	ldr	r3, [r4, #24]
70007fde:	f443 6380 	orr.w	r3, r3, #1024	@ 0x400
70007fe2:	e7d0      	b.n	70007f86 <PORTx_IRQHandler+0x9e>
70007fe4:	051a      	lsls	r2, r3, #20
70007fe6:	d506      	bpl.n	70007ff6 <PORTx_IRQHandler+0x10e>
70007fe8:	4b26      	ldr	r3, [pc, #152]	@ (70008084 <PORTx_IRQHandler+0x19c>)
70007fea:	2201      	movs	r2, #1
70007fec:	701a      	strb	r2, [r3, #0]
70007fee:	69a3      	ldr	r3, [r4, #24]
70007ff0:	f443 6300 	orr.w	r3, r3, #2048	@ 0x800
70007ff4:	e7c7      	b.n	70007f86 <PORTx_IRQHandler+0x9e>
70007ff6:	04d8      	lsls	r0, r3, #19
70007ff8:	d52f      	bpl.n	7000805a <PORTx_IRQHandler+0x172>
70007ffa:	223c      	movs	r2, #60	@ 0x3c
70007ffc:	2100      	movs	r1, #0
70007ffe:	fb02 6205 	mla	r2, r2, r5, r6
70008002:	f882 1038 	strb.w	r1, [r2, #56]	@ 0x38
70008006:	69a1      	ldr	r1, [r4, #24]
70008008:	6892      	ldr	r2, [r2, #8]
7000800a:	f441 5180 	orr.w	r1, r1, #4096	@ 0x1000
7000800e:	61a1      	str	r1, [r4, #24]
70008010:	6951      	ldr	r1, [r2, #20]
70008012:	f041 0106 	orr.w	r1, r1, #6
70008016:	6151      	str	r1, [r2, #20]
70008018:	6951      	ldr	r1, [r2, #20]
7000801a:	07c9      	lsls	r1, r1, #31
7000801c:	d4fc      	bmi.n	70008018 <PORTx_IRQHandler+0x130>
7000801e:	203c      	movs	r0, #60	@ 0x3c
70008020:	f413 5f00 	tst.w	r3, #8192	@ 0x2000
70008024:	fb00 6005 	mla	r0, r0, r5, r6
70008028:	4e16      	ldr	r6, [pc, #88]	@ (70008084 <PORTx_IRQHandler+0x19c>)
7000802a:	6b01      	ldr	r1, [r0, #48]	@ 0x30
7000802c:	6511      	str	r1, [r2, #80]	@ 0x50
7000802e:	6c91      	ldr	r1, [r2, #72]	@ 0x48
70008030:	f36f 010f 	bfc	r1, #0, #16
70008034:	f441 7184 	orr.w	r1, r1, #264	@ 0x108
70008038:	6491      	str	r1, [r2, #72]	@ 0x48
7000803a:	6951      	ldr	r1, [r2, #20]
7000803c:	f041 0101 	orr.w	r1, r1, #1
70008040:	6151      	str	r1, [r2, #20]
70008042:	d107      	bne.n	70008054 <PORTx_IRQHandler+0x16c>
70008044:	7833      	ldrb	r3, [r6, #0]
70008046:	b92b      	cbnz	r3, 70008054 <PORTx_IRQHandler+0x16c>
70008048:	6aa1      	ldr	r1, [r4, #40]	@ 0x28
7000804a:	6a03      	ldr	r3, [r0, #32]
7000804c:	4628      	mov	r0, r5
7000804e:	f001 0107 	and.w	r1, r1, #7
70008052:	4798      	blx	r3
70008054:	2300      	movs	r3, #0
70008056:	7033      	strb	r3, [r6, #0]
70008058:	e7ba      	b.n	70007fd0 <PORTx_IRQHandler+0xe8>
7000805a:	f413 4f40 	tst.w	r3, #49152	@ 0xc000
7000805e:	d0b7      	beq.n	70007fd0 <PORTx_IRQHandler+0xe8>
70008060:	69a3      	ldr	r3, [r4, #24]
70008062:	f443 4380 	orr.w	r3, r3, #16384	@ 0x4000
70008066:	61a3      	str	r3, [r4, #24]
70008068:	69a3      	ldr	r3, [r4, #24]
7000806a:	f443 4300 	orr.w	r3, r3, #32768	@ 0x8000
7000806e:	61a3      	str	r3, [r4, #24]
70008070:	233c      	movs	r3, #60	@ 0x3c
70008072:	fb03 6605 	mla	r6, r3, r5, r6
70008076:	6af3      	ldr	r3, [r6, #44]	@ 0x2c
70008078:	e8bd 4070 	ldmia.w	sp!, {r4, r5, r6, lr}
7000807c:	4718      	bx	r3
7000807e:	bf00      	nop
70008080:	2400183c 	.word	0x2400183c
70008084:	24001838 	.word	0x24001838

70008088 <USBPD_PORT0_IRQHandler>:
70008088:	2000      	movs	r0, #0
7000808a:	f7ff bf2d 	b.w	70007ee8 <PORTx_IRQHandler>
	...

70008090 <USBPDM1_AssertRp>:
70008090:	233c      	movs	r3, #60	@ 0x3c
70008092:	4941      	ldr	r1, [pc, #260]	@ (70008198 <USBPDM1_AssertRp+0x108>)
70008094:	4343      	muls	r3, r0
70008096:	18ca      	adds	r2, r1, r3
70008098:	58cb      	ldr	r3, [r1, r3]
7000809a:	6912      	ldr	r2, [r2, #16]
7000809c:	7892      	ldrb	r2, [r2, #2]
7000809e:	f002 0203 	and.w	r2, r2, #3
700080a2:	2a01      	cmp	r2, #1
700080a4:	b430      	push	{r4, r5}
700080a6:	d01e      	beq.n	700080e6 <USBPDM1_AssertRp+0x56>
700080a8:	2a02      	cmp	r2, #2
700080aa:	d046      	beq.n	7000813a <USBPDM1_AssertRp+0xaa>
700080ac:	b92a      	cbnz	r2, 700080ba <USBPDM1_AssertRp+0x2a>
700080ae:	68da      	ldr	r2, [r3, #12]
700080b0:	f422 72c0 	bic.w	r2, r2, #384	@ 0x180
700080b4:	f042 0280 	orr.w	r2, r2, #128	@ 0x80
700080b8:	60da      	str	r2, [r3, #12]
700080ba:	68da      	ldr	r2, [r3, #12]
700080bc:	f422 6240 	bic.w	r2, r2, #3072	@ 0xc00
700080c0:	60da      	str	r2, [r3, #12]
700080c2:	68da      	ldr	r2, [r3, #12]
700080c4:	f422 7200 	bic.w	r2, r2, #512	@ 0x200
700080c8:	60da      	str	r2, [r3, #12]
700080ca:	223c      	movs	r2, #60	@ 0x3c
700080cc:	fb02 1100 	mla	r1, r2, r0, r1
700080d0:	6b4a      	ldr	r2, [r1, #52]	@ 0x34
700080d2:	2a00      	cmp	r2, #0
700080d4:	d155      	bne.n	70008182 <USBPDM1_AssertRp+0xf2>
700080d6:	68da      	ldr	r2, [r3, #12]
700080d8:	f442 6240 	orr.w	r2, r2, #3072	@ 0xc00
700080dc:	2100      	movs	r1, #0
700080de:	60da      	str	r2, [r3, #12]
700080e0:	bc30      	pop	{r4, r5}
700080e2:	f7f9 bce9 	b.w	70001ab8 <BSP_USBPD_PWR_SetRole>
700080e6:	68da      	ldr	r2, [r3, #12]
700080e8:	f422 72c0 	bic.w	r2, r2, #384	@ 0x180
700080ec:	f442 7280 	orr.w	r2, r2, #256	@ 0x100
700080f0:	60da      	str	r2, [r3, #12]
700080f2:	4a2a      	ldr	r2, [pc, #168]	@ (7000819c <USBPDM1_AssertRp+0x10c>)
700080f4:	6814      	ldr	r4, [r2, #0]
700080f6:	f240 4285 	movw	r2, #1157	@ 0x485
700080fa:	4294      	cmp	r4, r2
700080fc:	d1dd      	bne.n	700080ba <USBPDM1_AssertRp+0x2a>
700080fe:	4a28      	ldr	r2, [pc, #160]	@ (700081a0 <USBPDM1_AssertRp+0x110>)
70008100:	6812      	ldr	r2, [r2, #0]
70008102:	f5a2 5280 	sub.w	r2, r2, #4096	@ 0x1000
70008106:	2a01      	cmp	r2, #1
70008108:	d8d7      	bhi.n	700080ba <USBPDM1_AssertRp+0x2a>
7000810a:	4c26      	ldr	r4, [pc, #152]	@ (700081a4 <USBPDM1_AssertRp+0x114>)
7000810c:	68a2      	ldr	r2, [r4, #8]
7000810e:	f022 221e 	bic.w	r2, r2, #503324160	@ 0x1e001e00
70008112:	60a2      	str	r2, [r4, #8]
70008114:	4a24      	ldr	r2, [pc, #144]	@ (700081a8 <USBPDM1_AssertRp+0x118>)
70008116:	6812      	ldr	r2, [r2, #0]
70008118:	6812      	ldr	r2, [r2, #0]
7000811a:	68a5      	ldr	r5, [r4, #8]
7000811c:	0252      	lsls	r2, r2, #9
7000811e:	f402 52f0 	and.w	r2, r2, #7680	@ 0x1e00
70008122:	432a      	orrs	r2, r5
70008124:	60a2      	str	r2, [r4, #8]
70008126:	4a21      	ldr	r2, [pc, #132]	@ (700081ac <USBPDM1_AssertRp+0x11c>)
70008128:	6812      	ldr	r2, [r2, #0]
7000812a:	6812      	ldr	r2, [r2, #0]
7000812c:	68a5      	ldr	r5, [r4, #8]
7000812e:	0552      	lsls	r2, r2, #21
70008130:	f002 52f0 	and.w	r2, r2, #503316480	@ 0x1e000000
70008134:	432a      	orrs	r2, r5
70008136:	60a2      	str	r2, [r4, #8]
70008138:	e7bf      	b.n	700080ba <USBPDM1_AssertRp+0x2a>
7000813a:	68da      	ldr	r2, [r3, #12]
7000813c:	f442 72c0 	orr.w	r2, r2, #384	@ 0x180
70008140:	60da      	str	r2, [r3, #12]
70008142:	4a16      	ldr	r2, [pc, #88]	@ (7000819c <USBPDM1_AssertRp+0x10c>)
70008144:	6814      	ldr	r4, [r2, #0]
70008146:	f240 4285 	movw	r2, #1157	@ 0x485
7000814a:	4294      	cmp	r4, r2
7000814c:	d1b5      	bne.n	700080ba <USBPDM1_AssertRp+0x2a>
7000814e:	4a14      	ldr	r2, [pc, #80]	@ (700081a0 <USBPDM1_AssertRp+0x110>)
70008150:	6812      	ldr	r2, [r2, #0]
70008152:	f5a2 5280 	sub.w	r2, r2, #4096	@ 0x1000
70008156:	2a01      	cmp	r2, #1
70008158:	d8af      	bhi.n	700080ba <USBPDM1_AssertRp+0x2a>
7000815a:	4c12      	ldr	r4, [pc, #72]	@ (700081a4 <USBPDM1_AssertRp+0x114>)
7000815c:	68a2      	ldr	r2, [r4, #8]
7000815e:	f022 221e 	bic.w	r2, r2, #503324160	@ 0x1e001e00
70008162:	60a2      	str	r2, [r4, #8]
70008164:	4a12      	ldr	r2, [pc, #72]	@ (700081b0 <USBPDM1_AssertRp+0x120>)
70008166:	6812      	ldr	r2, [r2, #0]
70008168:	6812      	ldr	r2, [r2, #0]
7000816a:	68a5      	ldr	r5, [r4, #8]
7000816c:	0152      	lsls	r2, r2, #5
7000816e:	f402 52f0 	and.w	r2, r2, #7680	@ 0x1e00
70008172:	432a      	orrs	r2, r5
70008174:	60a2      	str	r2, [r4, #8]
70008176:	4a0f      	ldr	r2, [pc, #60]	@ (700081b4 <USBPDM1_AssertRp+0x124>)
70008178:	6812      	ldr	r2, [r2, #0]
7000817a:	6812      	ldr	r2, [r2, #0]
7000817c:	68a5      	ldr	r5, [r4, #8]
7000817e:	0152      	lsls	r2, r2, #5
70008180:	e7d6      	b.n	70008130 <USBPDM1_AssertRp+0xa0>
70008182:	2a01      	cmp	r2, #1
70008184:	68da      	ldr	r2, [r3, #12]
70008186:	bf14      	ite	ne
70008188:	f44f 6100 	movne.w	r1, #2048	@ 0x800
7000818c:	f44f 6180 	moveq.w	r1, #1024	@ 0x400
70008190:	f422 6240 	bic.w	r2, r2, #3072	@ 0xc00
70008194:	430a      	orrs	r2, r1
70008196:	e7a1      	b.n	700080dc <USBPDM1_AssertRp+0x4c>
70008198:	2400183c 	.word	0x2400183c
7000819c:	2400187c 	.word	0x2400187c
700081a0:	24001878 	.word	0x24001878
700081a4:	4000ec00 	.word	0x4000ec00
700081a8:	240000fc 	.word	0x240000fc
700081ac:	240000f8 	.word	0x240000f8
700081b0:	24000104 	.word	0x24000104
700081b4:	24000100 	.word	0x24000100

700081b8 <USBPDM1_DeAssertRp>:
700081b8:	4770      	bx	lr
	...

700081bc <USBPDM1_AssertRd>:
700081bc:	b538      	push	{r3, r4, r5, lr}
700081be:	233c      	movs	r3, #60	@ 0x3c
700081c0:	4d1c      	ldr	r5, [pc, #112]	@ (70008234 <USBPDM1_AssertRd+0x78>)
700081c2:	4604      	mov	r4, r0
700081c4:	4343      	muls	r3, r0
700081c6:	18e9      	adds	r1, r5, r3
700081c8:	58eb      	ldr	r3, [r5, r3]
700081ca:	68da      	ldr	r2, [r3, #12]
700081cc:	f442 1200 	orr.w	r2, r2, #2097152	@ 0x200000
700081d0:	60da      	str	r2, [r3, #12]
700081d2:	68da      	ldr	r2, [r3, #12]
700081d4:	f442 1280 	orr.w	r2, r2, #1048576	@ 0x100000
700081d8:	60da      	str	r2, [r3, #12]
700081da:	68da      	ldr	r2, [r3, #12]
700081dc:	f422 6240 	bic.w	r2, r2, #3072	@ 0xc00
700081e0:	60da      	str	r2, [r3, #12]
700081e2:	68da      	ldr	r2, [r3, #12]
700081e4:	f442 7200 	orr.w	r2, r2, #512	@ 0x200
700081e8:	60da      	str	r2, [r3, #12]
700081ea:	6b4a      	ldr	r2, [r1, #52]	@ 0x34
700081ec:	b9ba      	cbnz	r2, 7000821e <USBPDM1_AssertRd+0x62>
700081ee:	68da      	ldr	r2, [r3, #12]
700081f0:	f442 6240 	orr.w	r2, r2, #3072	@ 0xc00
700081f4:	60da      	str	r2, [r3, #12]
700081f6:	2001      	movs	r0, #1
700081f8:	f7f9 ff2e 	bl	70002058 <HAL_Delay>
700081fc:	233c      	movs	r3, #60	@ 0x3c
700081fe:	4620      	mov	r0, r4
70008200:	2101      	movs	r1, #1
70008202:	4363      	muls	r3, r4
70008204:	58eb      	ldr	r3, [r5, r3]
70008206:	68da      	ldr	r2, [r3, #12]
70008208:	f422 1200 	bic.w	r2, r2, #2097152	@ 0x200000
7000820c:	60da      	str	r2, [r3, #12]
7000820e:	68da      	ldr	r2, [r3, #12]
70008210:	f422 1280 	bic.w	r2, r2, #1048576	@ 0x100000
70008214:	60da      	str	r2, [r3, #12]
70008216:	e8bd 4038 	ldmia.w	sp!, {r3, r4, r5, lr}
7000821a:	f7f9 bc4d 	b.w	70001ab8 <BSP_USBPD_PWR_SetRole>
7000821e:	2a01      	cmp	r2, #1
70008220:	68da      	ldr	r2, [r3, #12]
70008222:	bf14      	ite	ne
70008224:	f44f 6100 	movne.w	r1, #2048	@ 0x800
70008228:	f44f 6180 	moveq.w	r1, #1024	@ 0x400
7000822c:	f422 6240 	bic.w	r2, r2, #3072	@ 0xc00
70008230:	430a      	orrs	r2, r1
70008232:	e7df      	b.n	700081f4 <USBPDM1_AssertRd+0x38>
70008234:	2400183c 	.word	0x2400183c

70008238 <USBPDM1_DeAssertRd>:
70008238:	4770      	bx	lr
	...

7000823c <USBPDM1_EnterErrorRecovery>:
7000823c:	233c      	movs	r3, #60	@ 0x3c
7000823e:	4358      	muls	r0, r3
70008240:	4b07      	ldr	r3, [pc, #28]	@ (70008260 <USBPDM1_EnterErrorRecovery+0x24>)
70008242:	581b      	ldr	r3, [r3, r0]
70008244:	68da      	ldr	r2, [r3, #12]
70008246:	f422 7200 	bic.w	r2, r2, #512	@ 0x200
7000824a:	60da      	str	r2, [r3, #12]
7000824c:	68da      	ldr	r2, [r3, #12]
7000824e:	f422 72c0 	bic.w	r2, r2, #384	@ 0x180
70008252:	60da      	str	r2, [r3, #12]
70008254:	68da      	ldr	r2, [r3, #12]
70008256:	f022 0220 	bic.w	r2, r2, #32
7000825a:	60da      	str	r2, [r3, #12]
7000825c:	4770      	bx	lr
7000825e:	bf00      	nop
70008260:	2400183c 	.word	0x2400183c

70008264 <HW_SignalAttachement>:
70008264:	4b02      	ldr	r3, [pc, #8]	@ (70008270 <HW_SignalAttachement+0xc>)
70008266:	223c      	movs	r2, #60	@ 0x3c
70008268:	fb02 3300 	mla	r3, r2, r0, r3
7000826c:	6359      	str	r1, [r3, #52]	@ 0x34
7000826e:	4770      	bx	lr
70008270:	2400183c 	.word	0x2400183c

70008274 <HW_SignalDetachment>:
70008274:	223c      	movs	r2, #60	@ 0x3c
70008276:	4b03      	ldr	r3, [pc, #12]	@ (70008284 <HW_SignalDetachment+0x10>)
70008278:	fb02 3300 	mla	r3, r2, r0, r3
7000827c:	2200      	movs	r2, #0
7000827e:	635a      	str	r2, [r3, #52]	@ 0x34
70008280:	4770      	bx	lr
70008282:	bf00      	nop
70008284:	2400183c 	.word	0x2400183c

70008288 <HW_IF_PWR_GetVoltage>:
70008288:	b507      	push	{r0, r1, r2, lr}
7000828a:	a901      	add	r1, sp, #4
7000828c:	f7f9 fd5a 	bl	70001d44 <BSP_USBPD_PWR_VBUSGetVoltage>
70008290:	f8bd 0004 	ldrh.w	r0, [sp, #4]
70008294:	b003      	add	sp, #12
70008296:	f85d fb04 	ldr.w	pc, [sp], #4

7000829a <USBPD_TRACE_Add>:
7000829a:	4770      	bx	lr

7000829c <USBD_Init>:
7000829c:	b178      	cbz	r0, 700082be <USBD_Init+0x22>
7000829e:	2300      	movs	r3, #0
700082a0:	f8c0 32b8 	str.w	r3, [r0, #696]	@ 0x2b8
700082a4:	f8c0 32c4 	str.w	r3, [r0, #708]	@ 0x2c4
700082a8:	f8c0 32d0 	str.w	r3, [r0, #720]	@ 0x2d0
700082ac:	b109      	cbz	r1, 700082b2 <USBD_Init+0x16>
700082ae:	f8c0 12b4 	str.w	r1, [r0, #692]	@ 0x2b4
700082b2:	2301      	movs	r3, #1
700082b4:	7002      	strb	r2, [r0, #0]
700082b6:	f880 329c 	strb.w	r3, [r0, #668]	@ 0x29c
700082ba:	f7f8 bb9b 	b.w	700009f4 <USBD_LL_Init>
700082be:	2003      	movs	r0, #3
700082c0:	4770      	bx	lr

700082c2 <USBD_RegisterClass>:
700082c2:	2300      	movs	r3, #0
700082c4:	b513      	push	{r0, r1, r4, lr}
700082c6:	4604      	mov	r4, r0
700082c8:	f8ad 3006 	strh.w	r3, [sp, #6]
700082cc:	b181      	cbz	r1, 700082f0 <USBD_RegisterClass+0x2e>
700082ce:	6acb      	ldr	r3, [r1, #44]	@ 0x2c
700082d0:	f8c0 12b8 	str.w	r1, [r0, #696]	@ 0x2b8
700082d4:	b123      	cbz	r3, 700082e0 <USBD_RegisterClass+0x1e>
700082d6:	f10d 0006 	add.w	r0, sp, #6
700082da:	4798      	blx	r3
700082dc:	f8c4 02d0 	str.w	r0, [r4, #720]	@ 0x2d0
700082e0:	f8d4 32d8 	ldr.w	r3, [r4, #728]	@ 0x2d8
700082e4:	2000      	movs	r0, #0
700082e6:	3301      	adds	r3, #1
700082e8:	f8c4 32d8 	str.w	r3, [r4, #728]	@ 0x2d8
700082ec:	b002      	add	sp, #8
700082ee:	bd10      	pop	{r4, pc}
700082f0:	2003      	movs	r0, #3
700082f2:	e7fb      	b.n	700082ec <USBD_RegisterClass+0x2a>

700082f4 <USBD_Start>:
700082f4:	f7f8 bbcf 	b.w	70000a96 <USBD_LL_Start>

700082f8 <USBD_Stop>:
700082f8:	b510      	push	{r4, lr}
700082fa:	4604      	mov	r4, r0
700082fc:	f7f8 fbd4 	bl	70000aa8 <USBD_LL_Stop>
70008300:	f8d4 32b8 	ldr.w	r3, [r4, #696]	@ 0x2b8
70008304:	b11b      	cbz	r3, 7000830e <USBD_Stop+0x16>
70008306:	685b      	ldr	r3, [r3, #4]
70008308:	4620      	mov	r0, r4
7000830a:	7921      	ldrb	r1, [r4, #4]
7000830c:	4798      	blx	r3
7000830e:	2000      	movs	r0, #0
70008310:	bd10      	pop	{r4, pc}

70008312 <USBD_SetClassConfig>:
70008312:	f8d0 32b8 	ldr.w	r3, [r0, #696]	@ 0x2b8
70008316:	b10b      	cbz	r3, 7000831c <USBD_SetClassConfig+0xa>
70008318:	681b      	ldr	r3, [r3, #0]
7000831a:	4718      	bx	r3
7000831c:	4618      	mov	r0, r3
7000831e:	4770      	bx	lr

70008320 <USBD_ClrClassConfig>:
70008320:	b508      	push	{r3, lr}
70008322:	f8d0 32b8 	ldr.w	r3, [r0, #696]	@ 0x2b8
70008326:	685b      	ldr	r3, [r3, #4]
70008328:	4798      	blx	r3
7000832a:	2800      	cmp	r0, #0
7000832c:	bf18      	it	ne
7000832e:	2003      	movne	r0, #3
70008330:	bd08      	pop	{r3, pc}

70008332 <USBD_LL_SetupStage>:
70008332:	b538      	push	{r3, r4, r5, lr}
70008334:	f200 25aa 	addw	r5, r0, #682	@ 0x2aa
70008338:	4604      	mov	r4, r0
7000833a:	4628      	mov	r0, r5
7000833c:	f000 fba2 	bl	70008a84 <USBD_ParseSetupRequest>
70008340:	2301      	movs	r3, #1
70008342:	f894 12aa 	ldrb.w	r1, [r4, #682]	@ 0x2aa
70008346:	f8c4 3294 	str.w	r3, [r4, #660]	@ 0x294
7000834a:	f8b4 32b0 	ldrh.w	r3, [r4, #688]	@ 0x2b0
7000834e:	f8c4 3298 	str.w	r3, [r4, #664]	@ 0x298
70008352:	f001 031f 	and.w	r3, r1, #31
70008356:	2b01      	cmp	r3, #1
70008358:	d008      	beq.n	7000836c <USBD_LL_SetupStage+0x3a>
7000835a:	2b02      	cmp	r3, #2
7000835c:	d00c      	beq.n	70008378 <USBD_LL_SetupStage+0x46>
7000835e:	b98b      	cbnz	r3, 70008384 <USBD_LL_SetupStage+0x52>
70008360:	4629      	mov	r1, r5
70008362:	4620      	mov	r0, r4
70008364:	e8bd 4038 	ldmia.w	sp!, {r3, r4, r5, lr}
70008368:	f000 b954 	b.w	70008614 <USBD_StdDevReq>
7000836c:	4629      	mov	r1, r5
7000836e:	4620      	mov	r0, r4
70008370:	e8bd 4038 	ldmia.w	sp!, {r3, r4, r5, lr}
70008374:	f000 bab2 	b.w	700088dc <USBD_StdItfReq>
70008378:	4629      	mov	r1, r5
7000837a:	4620      	mov	r0, r4
7000837c:	e8bd 4038 	ldmia.w	sp!, {r3, r4, r5, lr}
70008380:	f000 badb 	b.w	7000893a <USBD_StdEPReq>
70008384:	4620      	mov	r0, r4
70008386:	f001 0180 	and.w	r1, r1, #128	@ 0x80
7000838a:	e8bd 4038 	ldmia.w	sp!, {r3, r4, r5, lr}
7000838e:	f7f8 bbb2 	b.w	70000af6 <USBD_LL_StallEP>

70008392 <USBD_LL_DataOutStage>:
70008392:	b570      	push	{r4, r5, r6, lr}
70008394:	4604      	mov	r4, r0
70008396:	bb39      	cbnz	r1, 700083e8 <USBD_LL_DataOutStage+0x56>
70008398:	f8d0 3294 	ldr.w	r3, [r0, #660]	@ 0x294
7000839c:	2b03      	cmp	r3, #3
7000839e:	d112      	bne.n	700083c6 <USBD_LL_DataOutStage+0x34>
700083a0:	f8d0 3158 	ldr.w	r3, [r0, #344]	@ 0x158
700083a4:	f8b0 2160 	ldrh.w	r2, [r0, #352]	@ 0x160
700083a8:	4293      	cmp	r3, r2
700083aa:	d90e      	bls.n	700083ca <USBD_LL_DataOutStage+0x38>
700083ac:	1a9b      	subs	r3, r3, r2
700083ae:	f8d0 1164 	ldr.w	r1, [r0, #356]	@ 0x164
700083b2:	429a      	cmp	r2, r3
700083b4:	4411      	add	r1, r2
700083b6:	f8c0 3158 	str.w	r3, [r0, #344]	@ 0x158
700083ba:	bf38      	it	cc
700083bc:	461a      	movcc	r2, r3
700083be:	f8c0 1164 	str.w	r1, [r0, #356]	@ 0x164
700083c2:	f000 fbab 	bl	70008b1c <USBD_CtlContinueRx>
700083c6:	2000      	movs	r0, #0
700083c8:	bd70      	pop	{r4, r5, r6, pc}
700083ca:	f890 329c 	ldrb.w	r3, [r0, #668]	@ 0x29c
700083ce:	2b03      	cmp	r3, #3
700083d0:	d106      	bne.n	700083e0 <USBD_LL_DataOutStage+0x4e>
700083d2:	f8d0 32b8 	ldr.w	r3, [r0, #696]	@ 0x2b8
700083d6:	691b      	ldr	r3, [r3, #16]
700083d8:	b113      	cbz	r3, 700083e0 <USBD_LL_DataOutStage+0x4e>
700083da:	f8c0 12d4 	str.w	r1, [r0, #724]	@ 0x2d4
700083de:	4798      	blx	r3
700083e0:	4620      	mov	r0, r4
700083e2:	f000 fba3 	bl	70008b2c <USBD_CtlSendStatus>
700083e6:	e7ee      	b.n	700083c6 <USBD_LL_DataOutStage+0x34>
700083e8:	f890 329c 	ldrb.w	r3, [r0, #668]	@ 0x29c
700083ec:	2b03      	cmp	r3, #3
700083ee:	d1ea      	bne.n	700083c6 <USBD_LL_DataOutStage+0x34>
700083f0:	f8d0 32b8 	ldr.w	r3, [r0, #696]	@ 0x2b8
700083f4:	699b      	ldr	r3, [r3, #24]
700083f6:	2b00      	cmp	r3, #0
700083f8:	d0e5      	beq.n	700083c6 <USBD_LL_DataOutStage+0x34>
700083fa:	2200      	movs	r2, #0
700083fc:	e8bd 4070 	ldmia.w	sp!, {r4, r5, r6, lr}
70008400:	f8c0 22d4 	str.w	r2, [r0, #724]	@ 0x2d4
70008404:	4718      	bx	r3

70008406 <USBD_LL_DataInStage>:
70008406:	b570      	push	{r4, r5, r6, lr}
70008408:	4604      	mov	r4, r0
7000840a:	460d      	mov	r5, r1
7000840c:	2900      	cmp	r1, #0
7000840e:	d13f      	bne.n	70008490 <USBD_LL_DataInStage+0x8a>
70008410:	f8d0 3294 	ldr.w	r3, [r0, #660]	@ 0x294
70008414:	2b02      	cmp	r3, #2
70008416:	d110      	bne.n	7000843a <USBD_LL_DataInStage+0x34>
70008418:	6982      	ldr	r2, [r0, #24]
7000841a:	8c03      	ldrh	r3, [r0, #32]
7000841c:	429a      	cmp	r2, r3
7000841e:	d914      	bls.n	7000844a <USBD_LL_DataInStage+0x44>
70008420:	6a41      	ldr	r1, [r0, #36]	@ 0x24
70008422:	1ad2      	subs	r2, r2, r3
70008424:	4419      	add	r1, r3
70008426:	6182      	str	r2, [r0, #24]
70008428:	6241      	str	r1, [r0, #36]	@ 0x24
7000842a:	f000 fb6f 	bl	70008b0c <USBD_CtlContinueSendData>
7000842e:	462b      	mov	r3, r5
70008430:	462a      	mov	r2, r5
70008432:	4629      	mov	r1, r5
70008434:	4620      	mov	r0, r4
70008436:	f7f8 fb82 	bl	70000b3e <USBD_LL_PrepareReceive>
7000843a:	f894 32a0 	ldrb.w	r3, [r4, #672]	@ 0x2a0
7000843e:	b113      	cbz	r3, 70008446 <USBD_LL_DataInStage+0x40>
70008440:	2300      	movs	r3, #0
70008442:	f884 32a0 	strb.w	r3, [r4, #672]	@ 0x2a0
70008446:	2000      	movs	r0, #0
70008448:	bd70      	pop	{r4, r5, r6, pc}
7000844a:	d10c      	bne.n	70008466 <USBD_LL_DataInStage+0x60>
7000844c:	6943      	ldr	r3, [r0, #20]
7000844e:	429a      	cmp	r2, r3
70008450:	d809      	bhi.n	70008466 <USBD_LL_DataInStage+0x60>
70008452:	f8d0 2298 	ldr.w	r2, [r0, #664]	@ 0x298
70008456:	4293      	cmp	r3, r2
70008458:	d205      	bcs.n	70008466 <USBD_LL_DataInStage+0x60>
7000845a:	460a      	mov	r2, r1
7000845c:	f000 fb56 	bl	70008b0c <USBD_CtlContinueSendData>
70008460:	f8c4 5298 	str.w	r5, [r4, #664]	@ 0x298
70008464:	e7e3      	b.n	7000842e <USBD_LL_DataInStage+0x28>
70008466:	f894 329c 	ldrb.w	r3, [r4, #668]	@ 0x29c
7000846a:	2b03      	cmp	r3, #3
7000846c:	d108      	bne.n	70008480 <USBD_LL_DataInStage+0x7a>
7000846e:	f8d4 32b8 	ldr.w	r3, [r4, #696]	@ 0x2b8
70008472:	68db      	ldr	r3, [r3, #12]
70008474:	b123      	cbz	r3, 70008480 <USBD_LL_DataInStage+0x7a>
70008476:	2200      	movs	r2, #0
70008478:	4620      	mov	r0, r4
7000847a:	f8c4 22d4 	str.w	r2, [r4, #724]	@ 0x2d4
7000847e:	4798      	blx	r3
70008480:	2180      	movs	r1, #128	@ 0x80
70008482:	4620      	mov	r0, r4
70008484:	f7f8 fb37 	bl	70000af6 <USBD_LL_StallEP>
70008488:	4620      	mov	r0, r4
7000848a:	f000 fb5a 	bl	70008b42 <USBD_CtlReceiveStatus>
7000848e:	e7d4      	b.n	7000843a <USBD_LL_DataInStage+0x34>
70008490:	f890 329c 	ldrb.w	r3, [r0, #668]	@ 0x29c
70008494:	2b03      	cmp	r3, #3
70008496:	d1d6      	bne.n	70008446 <USBD_LL_DataInStage+0x40>
70008498:	f8d0 32b8 	ldr.w	r3, [r0, #696]	@ 0x2b8
7000849c:	695b      	ldr	r3, [r3, #20]
7000849e:	2b00      	cmp	r3, #0
700084a0:	d0d1      	beq.n	70008446 <USBD_LL_DataInStage+0x40>
700084a2:	2200      	movs	r2, #0
700084a4:	e8bd 4070 	ldmia.w	sp!, {r4, r5, r6, lr}
700084a8:	f8c0 22d4 	str.w	r2, [r0, #724]	@ 0x2d4
700084ac:	4718      	bx	r3

700084ae <USBD_LL_Reset>:
700084ae:	b5f8      	push	{r3, r4, r5, r6, r7, lr}
700084b0:	2301      	movs	r3, #1
700084b2:	2100      	movs	r1, #0
700084b4:	4604      	mov	r4, r0
700084b6:	f880 329c 	strb.w	r3, [r0, #668]	@ 0x29c
700084ba:	f8d0 32b8 	ldr.w	r3, [r0, #696]	@ 0x2b8
700084be:	f8c0 1294 	str.w	r1, [r0, #660]	@ 0x294
700084c2:	6041      	str	r1, [r0, #4]
700084c4:	f8c0 12a4 	str.w	r1, [r0, #676]	@ 0x2a4
700084c8:	f880 12a0 	strb.w	r1, [r0, #672]	@ 0x2a0
700084cc:	b9bb      	cbnz	r3, 700084fe <USBD_LL_Reset+0x50>
700084ce:	2600      	movs	r6, #0
700084d0:	2200      	movs	r2, #0
700084d2:	2540      	movs	r5, #64	@ 0x40
700084d4:	2701      	movs	r7, #1
700084d6:	2340      	movs	r3, #64	@ 0x40
700084d8:	4611      	mov	r1, r2
700084da:	4620      	mov	r0, r4
700084dc:	f7f8 faed 	bl	70000aba <USBD_LL_OpenEP>
700084e0:	462b      	mov	r3, r5
700084e2:	2200      	movs	r2, #0
700084e4:	2180      	movs	r1, #128	@ 0x80
700084e6:	4620      	mov	r0, r4
700084e8:	f884 7163 	strb.w	r7, [r4, #355]	@ 0x163
700084ec:	f8a4 5160 	strh.w	r5, [r4, #352]	@ 0x160
700084f0:	f7f8 fae3 	bl	70000aba <USBD_LL_OpenEP>
700084f4:	4630      	mov	r0, r6
700084f6:	f884 7023 	strb.w	r7, [r4, #35]	@ 0x23
700084fa:	8425      	strh	r5, [r4, #32]
700084fc:	bdf8      	pop	{r3, r4, r5, r6, r7, pc}
700084fe:	685b      	ldr	r3, [r3, #4]
70008500:	2b00      	cmp	r3, #0
70008502:	d0e4      	beq.n	700084ce <USBD_LL_Reset+0x20>
70008504:	4798      	blx	r3
70008506:	2800      	cmp	r0, #0
70008508:	d0e1      	beq.n	700084ce <USBD_LL_Reset+0x20>
7000850a:	2603      	movs	r6, #3
7000850c:	e7e0      	b.n	700084d0 <USBD_LL_Reset+0x22>

7000850e <USBD_LL_SetSpeed>:
7000850e:	7401      	strb	r1, [r0, #16]
70008510:	2000      	movs	r0, #0
70008512:	4770      	bx	lr

70008514 <USBD_LL_Suspend>:
70008514:	f890 329c 	ldrb.w	r3, [r0, #668]	@ 0x29c
70008518:	2b04      	cmp	r3, #4
7000851a:	d004      	beq.n	70008526 <USBD_LL_Suspend+0x12>
7000851c:	f890 329c 	ldrb.w	r3, [r0, #668]	@ 0x29c
70008520:	b2db      	uxtb	r3, r3
70008522:	f880 329d 	strb.w	r3, [r0, #669]	@ 0x29d
70008526:	2304      	movs	r3, #4
70008528:	f880 329c 	strb.w	r3, [r0, #668]	@ 0x29c
7000852c:	2000      	movs	r0, #0
7000852e:	4770      	bx	lr

70008530 <USBD_LL_Resume>:
70008530:	f890 329c 	ldrb.w	r3, [r0, #668]	@ 0x29c
70008534:	2b04      	cmp	r3, #4
70008536:	d104      	bne.n	70008542 <USBD_LL_Resume+0x12>
70008538:	f890 329d 	ldrb.w	r3, [r0, #669]	@ 0x29d
7000853c:	b2db      	uxtb	r3, r3
7000853e:	f880 329c 	strb.w	r3, [r0, #668]	@ 0x29c
70008542:	2000      	movs	r0, #0
70008544:	4770      	bx	lr

70008546 <USBD_LL_SOF>:
70008546:	b508      	push	{r3, lr}
70008548:	f890 229c 	ldrb.w	r2, [r0, #668]	@ 0x29c
7000854c:	2a03      	cmp	r2, #3
7000854e:	d105      	bne.n	7000855c <USBD_LL_SOF+0x16>
70008550:	f8d0 32b8 	ldr.w	r3, [r0, #696]	@ 0x2b8
70008554:	b113      	cbz	r3, 7000855c <USBD_LL_SOF+0x16>
70008556:	69db      	ldr	r3, [r3, #28]
70008558:	b103      	cbz	r3, 7000855c <USBD_LL_SOF+0x16>
7000855a:	4798      	blx	r3
7000855c:	2000      	movs	r0, #0
7000855e:	bd08      	pop	{r3, pc}

70008560 <USBD_LL_IsoINIncomplete>:
70008560:	f8d0 22d4 	ldr.w	r2, [r0, #724]	@ 0x2d4
70008564:	32ae      	adds	r2, #174	@ 0xae
70008566:	f850 2022 	ldr.w	r2, [r0, r2, lsl #2]
7000856a:	b508      	push	{r3, lr}
7000856c:	b14a      	cbz	r2, 70008582 <USBD_LL_IsoINIncomplete+0x22>
7000856e:	f890 329c 	ldrb.w	r3, [r0, #668]	@ 0x29c
70008572:	2b03      	cmp	r3, #3
70008574:	d101      	bne.n	7000857a <USBD_LL_IsoINIncomplete+0x1a>
70008576:	6a13      	ldr	r3, [r2, #32]
70008578:	b90b      	cbnz	r3, 7000857e <USBD_LL_IsoINIncomplete+0x1e>
7000857a:	2000      	movs	r0, #0
7000857c:	bd08      	pop	{r3, pc}
7000857e:	4798      	blx	r3
70008580:	e7fb      	b.n	7000857a <USBD_LL_IsoINIncomplete+0x1a>
70008582:	2003      	movs	r0, #3
70008584:	e7fa      	b.n	7000857c <USBD_LL_IsoINIncomplete+0x1c>

70008586 <USBD_LL_IsoOUTIncomplete>:
70008586:	f8d0 22d4 	ldr.w	r2, [r0, #724]	@ 0x2d4
7000858a:	32ae      	adds	r2, #174	@ 0xae
7000858c:	f850 2022 	ldr.w	r2, [r0, r2, lsl #2]
70008590:	b508      	push	{r3, lr}
70008592:	b14a      	cbz	r2, 700085a8 <USBD_LL_IsoOUTIncomplete+0x22>
70008594:	f890 329c 	ldrb.w	r3, [r0, #668]	@ 0x29c
70008598:	2b03      	cmp	r3, #3
7000859a:	d101      	bne.n	700085a0 <USBD_LL_IsoOUTIncomplete+0x1a>
7000859c:	6a53      	ldr	r3, [r2, #36]	@ 0x24
7000859e:	b90b      	cbnz	r3, 700085a4 <USBD_LL_IsoOUTIncomplete+0x1e>
700085a0:	2000      	movs	r0, #0
700085a2:	bd08      	pop	{r3, pc}
700085a4:	4798      	blx	r3
700085a6:	e7fb      	b.n	700085a0 <USBD_LL_IsoOUTIncomplete+0x1a>
700085a8:	2003      	movs	r0, #3
700085aa:	e7fa      	b.n	700085a2 <USBD_LL_IsoOUTIncomplete+0x1c>

700085ac <USBD_LL_DevConnected>:
700085ac:	2000      	movs	r0, #0
700085ae:	4770      	bx	lr

700085b0 <USBD_LL_DevDisconnected>:
700085b0:	2201      	movs	r2, #1
700085b2:	b508      	push	{r3, lr}
700085b4:	f880 229c 	strb.w	r2, [r0, #668]	@ 0x29c
700085b8:	f8d0 22b8 	ldr.w	r2, [r0, #696]	@ 0x2b8
700085bc:	b90a      	cbnz	r2, 700085c2 <USBD_LL_DevDisconnected+0x12>
700085be:	2000      	movs	r0, #0
700085c0:	bd08      	pop	{r3, pc}
700085c2:	6852      	ldr	r2, [r2, #4]
700085c4:	7901      	ldrb	r1, [r0, #4]
700085c6:	4790      	blx	r2
700085c8:	2800      	cmp	r0, #0
700085ca:	d0f8      	beq.n	700085be <USBD_LL_DevDisconnected+0xe>
700085cc:	2003      	movs	r0, #3
700085ce:	e7f7      	b.n	700085c0 <USBD_LL_DevDisconnected+0x10>

700085d0 <USBD_CoreFindIF>:
700085d0:	2000      	movs	r0, #0
700085d2:	4770      	bx	lr

700085d4 <USBD_CoreFindEP>:
700085d4:	2000      	movs	r0, #0
700085d6:	4770      	bx	lr

700085d8 <USBD_GetEpDesc>:
700085d8:	b510      	push	{r4, lr}
700085da:	8842      	ldrh	r2, [r0, #2]
700085dc:	7803      	ldrb	r3, [r0, #0]
700085de:	429a      	cmp	r2, r3
700085e0:	d90a      	bls.n	700085f8 <USBD_GetEpDesc+0x20>
700085e2:	7804      	ldrb	r4, [r0, #0]
700085e4:	4420      	add	r0, r4
700085e6:	4423      	add	r3, r4
700085e8:	7844      	ldrb	r4, [r0, #1]
700085ea:	b29b      	uxth	r3, r3
700085ec:	2c05      	cmp	r4, #5
700085ee:	d1f6      	bne.n	700085de <USBD_GetEpDesc+0x6>
700085f0:	7884      	ldrb	r4, [r0, #2]
700085f2:	428c      	cmp	r4, r1
700085f4:	d1f3      	bne.n	700085de <USBD_GetEpDesc+0x6>
700085f6:	bd10      	pop	{r4, pc}
700085f8:	2000      	movs	r0, #0
700085fa:	e7fc      	b.n	700085f6 <USBD_GetEpDesc+0x1e>

700085fc <USBD_CtlError.constprop.0>:
700085fc:	b510      	push	{r4, lr}
700085fe:	4604      	mov	r4, r0
70008600:	2180      	movs	r1, #128	@ 0x80
70008602:	f7f8 fa78 	bl	70000af6 <USBD_LL_StallEP>
70008606:	2100      	movs	r1, #0
70008608:	4620      	mov	r0, r4
7000860a:	e8bd 4010 	ldmia.w	sp!, {r4, lr}
7000860e:	f7f8 ba72 	b.w	70000af6 <USBD_LL_StallEP>
	...

70008614 <USBD_StdDevReq>:
70008614:	b573      	push	{r0, r1, r4, r5, r6, lr}
70008616:	780b      	ldrb	r3, [r1, #0]
70008618:	4604      	mov	r4, r0
7000861a:	460d      	mov	r5, r1
7000861c:	f003 0360 	and.w	r3, r3, #96	@ 0x60
70008620:	2b20      	cmp	r3, #32
70008622:	d009      	beq.n	70008638 <USBD_StdDevReq+0x24>
70008624:	2b40      	cmp	r3, #64	@ 0x40
70008626:	d007      	beq.n	70008638 <USBD_StdDevReq+0x24>
70008628:	b193      	cbz	r3, 70008650 <USBD_StdDevReq+0x3c>
7000862a:	4620      	mov	r0, r4
7000862c:	f7ff ffe6 	bl	700085fc <USBD_CtlError.constprop.0>
70008630:	2500      	movs	r5, #0
70008632:	4628      	mov	r0, r5
70008634:	b002      	add	sp, #8
70008636:	bd70      	pop	{r4, r5, r6, pc}
70008638:	f8d4 32d4 	ldr.w	r3, [r4, #724]	@ 0x2d4
7000863c:	4629      	mov	r1, r5
7000863e:	4620      	mov	r0, r4
70008640:	33ae      	adds	r3, #174	@ 0xae
70008642:	f854 3023 	ldr.w	r3, [r4, r3, lsl #2]
70008646:	689b      	ldr	r3, [r3, #8]
70008648:	b002      	add	sp, #8
7000864a:	e8bd 4070 	ldmia.w	sp!, {r4, r5, r6, lr}
7000864e:	4718      	bx	r3
70008650:	784b      	ldrb	r3, [r1, #1]
70008652:	2b09      	cmp	r3, #9
70008654:	d8e9      	bhi.n	7000862a <USBD_StdDevReq+0x16>
70008656:	a201      	add	r2, pc, #4	@ (adr r2, 7000865c <USBD_StdDevReq+0x48>)
70008658:	f852 f023 	ldr.w	pc, [r2, r3, lsl #2]
7000865c:	7000887d 	.word	0x7000887d
70008660:	700088c1 	.word	0x700088c1
70008664:	7000862b 	.word	0x7000862b
70008668:	700088a5 	.word	0x700088a5
7000866c:	7000862b 	.word	0x7000862b
70008670:	70008777 	.word	0x70008777
70008674:	70008685 	.word	0x70008685
70008678:	7000862b 	.word	0x7000862b
7000867c:	70008851 	.word	0x70008851
70008680:	700087b9 	.word	0x700087b9
70008684:	2300      	movs	r3, #0
70008686:	f8ad 3006 	strh.w	r3, [sp, #6]
7000868a:	884b      	ldrh	r3, [r1, #2]
7000868c:	0a1a      	lsrs	r2, r3, #8
7000868e:	3a01      	subs	r2, #1
70008690:	2a06      	cmp	r2, #6
70008692:	d8ca      	bhi.n	7000862a <USBD_StdDevReq+0x16>
70008694:	a101      	add	r1, pc, #4	@ (adr r1, 7000869c <USBD_StdDevReq+0x88>)
70008696:	f851 f022 	ldr.w	pc, [r1, r2, lsl #2]
7000869a:	bf00      	nop
7000869c:	700086b9 	.word	0x700086b9
700086a0:	700086eb 	.word	0x700086eb
700086a4:	70008705 	.word	0x70008705
700086a8:	7000862b 	.word	0x7000862b
700086ac:	7000862b 	.word	0x7000862b
700086b0:	70008749 	.word	0x70008749
700086b4:	7000875f 	.word	0x7000875f
700086b8:	f8d0 32b4 	ldr.w	r3, [r0, #692]	@ 0x2b4
700086bc:	681b      	ldr	r3, [r3, #0]
700086be:	f10d 0106 	add.w	r1, sp, #6
700086c2:	7c20      	ldrb	r0, [r4, #16]
700086c4:	4798      	blx	r3
700086c6:	88ea      	ldrh	r2, [r5, #6]
700086c8:	2a00      	cmp	r2, #0
700086ca:	f000 80a4 	beq.w	70008816 <USBD_StdDevReq+0x202>
700086ce:	f8bd 3006 	ldrh.w	r3, [sp, #6]
700086d2:	2b00      	cmp	r3, #0
700086d4:	d0a9      	beq.n	7000862a <USBD_StdDevReq+0x16>
700086d6:	429a      	cmp	r2, r3
700086d8:	4601      	mov	r1, r0
700086da:	bf28      	it	cs
700086dc:	461a      	movcs	r2, r3
700086de:	f8ad 2006 	strh.w	r2, [sp, #6]
700086e2:	4620      	mov	r0, r4
700086e4:	f000 fa04 	bl	70008af0 <USBD_CtlSendData>
700086e8:	e7a2      	b.n	70008630 <USBD_StdDevReq+0x1c>
700086ea:	7c02      	ldrb	r2, [r0, #16]
700086ec:	f8d0 32b8 	ldr.w	r3, [r0, #696]	@ 0x2b8
700086f0:	b932      	cbnz	r2, 70008700 <USBD_StdDevReq+0xec>
700086f2:	6a9b      	ldr	r3, [r3, #40]	@ 0x28
700086f4:	f10d 0006 	add.w	r0, sp, #6
700086f8:	4798      	blx	r3
700086fa:	2302      	movs	r3, #2
700086fc:	7043      	strb	r3, [r0, #1]
700086fe:	e7e2      	b.n	700086c6 <USBD_StdDevReq+0xb2>
70008700:	6adb      	ldr	r3, [r3, #44]	@ 0x2c
70008702:	e7f7      	b.n	700086f4 <USBD_StdDevReq+0xe0>
70008704:	b2db      	uxtb	r3, r3
70008706:	2b05      	cmp	r3, #5
70008708:	d88f      	bhi.n	7000862a <USBD_StdDevReq+0x16>
7000870a:	e8df f003 	tbb	[pc, r3]
7000870e:	0903      	.short	0x0903
70008710:	1915110d 	.word	0x1915110d
70008714:	f8d0 32b4 	ldr.w	r3, [r0, #692]	@ 0x2b4
70008718:	685b      	ldr	r3, [r3, #4]
7000871a:	2b00      	cmp	r3, #0
7000871c:	d1cf      	bne.n	700086be <USBD_StdDevReq+0xaa>
7000871e:	e784      	b.n	7000862a <USBD_StdDevReq+0x16>
70008720:	f8d0 32b4 	ldr.w	r3, [r0, #692]	@ 0x2b4
70008724:	689b      	ldr	r3, [r3, #8]
70008726:	e7f8      	b.n	7000871a <USBD_StdDevReq+0x106>
70008728:	f8d0 32b4 	ldr.w	r3, [r0, #692]	@ 0x2b4
7000872c:	68db      	ldr	r3, [r3, #12]
7000872e:	e7f4      	b.n	7000871a <USBD_StdDevReq+0x106>
70008730:	f8d0 32b4 	ldr.w	r3, [r0, #692]	@ 0x2b4
70008734:	691b      	ldr	r3, [r3, #16]
70008736:	e7f0      	b.n	7000871a <USBD_StdDevReq+0x106>
70008738:	f8d0 32b4 	ldr.w	r3, [r0, #692]	@ 0x2b4
7000873c:	695b      	ldr	r3, [r3, #20]
7000873e:	e7ec      	b.n	7000871a <USBD_StdDevReq+0x106>
70008740:	f8d0 32b4 	ldr.w	r3, [r0, #692]	@ 0x2b4
70008744:	699b      	ldr	r3, [r3, #24]
70008746:	e7e8      	b.n	7000871a <USBD_StdDevReq+0x106>
70008748:	7c03      	ldrb	r3, [r0, #16]
7000874a:	2b00      	cmp	r3, #0
7000874c:	f47f af6d 	bne.w	7000862a <USBD_StdDevReq+0x16>
70008750:	f8d0 32b8 	ldr.w	r3, [r0, #696]	@ 0x2b8
70008754:	f10d 0006 	add.w	r0, sp, #6
70008758:	6b5b      	ldr	r3, [r3, #52]	@ 0x34
7000875a:	4798      	blx	r3
7000875c:	e7b3      	b.n	700086c6 <USBD_StdDevReq+0xb2>
7000875e:	7c03      	ldrb	r3, [r0, #16]
70008760:	2b00      	cmp	r3, #0
70008762:	f47f af62 	bne.w	7000862a <USBD_StdDevReq+0x16>
70008766:	f8d0 32b8 	ldr.w	r3, [r0, #696]	@ 0x2b8
7000876a:	f10d 0006 	add.w	r0, sp, #6
7000876e:	6b1b      	ldr	r3, [r3, #48]	@ 0x30
70008770:	4798      	blx	r3
70008772:	2307      	movs	r3, #7
70008774:	e7c2      	b.n	700086fc <USBD_StdDevReq+0xe8>
70008776:	888b      	ldrh	r3, [r1, #4]
70008778:	2b00      	cmp	r3, #0
7000877a:	f47f af56 	bne.w	7000862a <USBD_StdDevReq+0x16>
7000877e:	88cb      	ldrh	r3, [r1, #6]
70008780:	2b00      	cmp	r3, #0
70008782:	f47f af52 	bne.w	7000862a <USBD_StdDevReq+0x16>
70008786:	884d      	ldrh	r5, [r1, #2]
70008788:	2d7f      	cmp	r5, #127	@ 0x7f
7000878a:	f63f af4e 	bhi.w	7000862a <USBD_StdDevReq+0x16>
7000878e:	f890 329c 	ldrb.w	r3, [r0, #668]	@ 0x29c
70008792:	2b03      	cmp	r3, #3
70008794:	f43f af49 	beq.w	7000862a <USBD_StdDevReq+0x16>
70008798:	b2ed      	uxtb	r5, r5
7000879a:	4629      	mov	r1, r5
7000879c:	f880 529e 	strb.w	r5, [r0, #670]	@ 0x29e
700087a0:	f7f8 f9bb 	bl	70000b1a <USBD_LL_SetUSBAddress>
700087a4:	4620      	mov	r0, r4
700087a6:	f000 f9c1 	bl	70008b2c <USBD_CtlSendStatus>
700087aa:	b11d      	cbz	r5, 700087b4 <USBD_StdDevReq+0x1a0>
700087ac:	2302      	movs	r3, #2
700087ae:	f884 329c 	strb.w	r3, [r4, #668]	@ 0x29c
700087b2:	e73d      	b.n	70008630 <USBD_StdDevReq+0x1c>
700087b4:	2301      	movs	r3, #1
700087b6:	e7fa      	b.n	700087ae <USBD_StdDevReq+0x19a>
700087b8:	7889      	ldrb	r1, [r1, #2]
700087ba:	4d47      	ldr	r5, [pc, #284]	@ (700088d8 <USBD_StdDevReq+0x2c4>)
700087bc:	2901      	cmp	r1, #1
700087be:	7029      	strb	r1, [r5, #0]
700087c0:	d903      	bls.n	700087ca <USBD_StdDevReq+0x1b6>
700087c2:	f7ff ff1b 	bl	700085fc <USBD_CtlError.constprop.0>
700087c6:	2503      	movs	r5, #3
700087c8:	e733      	b.n	70008632 <USBD_StdDevReq+0x1e>
700087ca:	f890 329c 	ldrb.w	r3, [r0, #668]	@ 0x29c
700087ce:	2b02      	cmp	r3, #2
700087d0:	b2de      	uxtb	r6, r3
700087d2:	d008      	beq.n	700087e6 <USBD_StdDevReq+0x1d2>
700087d4:	2e03      	cmp	r6, #3
700087d6:	d017      	beq.n	70008808 <USBD_StdDevReq+0x1f4>
700087d8:	f7ff ff10 	bl	700085fc <USBD_CtlError.constprop.0>
700087dc:	7829      	ldrb	r1, [r5, #0]
700087de:	4620      	mov	r0, r4
700087e0:	f7ff fd9e 	bl	70008320 <USBD_ClrClassConfig>
700087e4:	e7ef      	b.n	700087c6 <USBD_StdDevReq+0x1b2>
700087e6:	b1b1      	cbz	r1, 70008816 <USBD_StdDevReq+0x202>
700087e8:	2101      	movs	r1, #1
700087ea:	6041      	str	r1, [r0, #4]
700087ec:	f7ff fd91 	bl	70008312 <USBD_SetClassConfig>
700087f0:	4605      	mov	r5, r0
700087f2:	4620      	mov	r0, r4
700087f4:	b125      	cbz	r5, 70008800 <USBD_StdDevReq+0x1ec>
700087f6:	f7ff ff01 	bl	700085fc <USBD_CtlError.constprop.0>
700087fa:	f884 629c 	strb.w	r6, [r4, #668]	@ 0x29c
700087fe:	e718      	b.n	70008632 <USBD_StdDevReq+0x1e>
70008800:	f000 f994 	bl	70008b2c <USBD_CtlSendStatus>
70008804:	2303      	movs	r3, #3
70008806:	e7d2      	b.n	700087ae <USBD_StdDevReq+0x19a>
70008808:	b949      	cbnz	r1, 7000881e <USBD_StdDevReq+0x20a>
7000880a:	2302      	movs	r3, #2
7000880c:	6041      	str	r1, [r0, #4]
7000880e:	f880 329c 	strb.w	r3, [r0, #668]	@ 0x29c
70008812:	f7ff fd85 	bl	70008320 <USBD_ClrClassConfig>
70008816:	4620      	mov	r0, r4
70008818:	f000 f988 	bl	70008b2c <USBD_CtlSendStatus>
7000881c:	e708      	b.n	70008630 <USBD_StdDevReq+0x1c>
7000881e:	6841      	ldr	r1, [r0, #4]
70008820:	2901      	cmp	r1, #1
70008822:	d0f8      	beq.n	70008816 <USBD_StdDevReq+0x202>
70008824:	b2c9      	uxtb	r1, r1
70008826:	f7ff fd7b 	bl	70008320 <USBD_ClrClassConfig>
7000882a:	7829      	ldrb	r1, [r5, #0]
7000882c:	4620      	mov	r0, r4
7000882e:	6061      	str	r1, [r4, #4]
70008830:	f7ff fd6f 	bl	70008312 <USBD_SetClassConfig>
70008834:	4605      	mov	r5, r0
70008836:	2800      	cmp	r0, #0
70008838:	d0ed      	beq.n	70008816 <USBD_StdDevReq+0x202>
7000883a:	4620      	mov	r0, r4
7000883c:	f7ff fede 	bl	700085fc <USBD_CtlError.constprop.0>
70008840:	7921      	ldrb	r1, [r4, #4]
70008842:	4620      	mov	r0, r4
70008844:	f7ff fd6c 	bl	70008320 <USBD_ClrClassConfig>
70008848:	2302      	movs	r3, #2
7000884a:	f884 329c 	strb.w	r3, [r4, #668]	@ 0x29c
7000884e:	e6f0      	b.n	70008632 <USBD_StdDevReq+0x1e>
70008850:	88ca      	ldrh	r2, [r1, #6]
70008852:	2a01      	cmp	r2, #1
70008854:	f47f aee9 	bne.w	7000862a <USBD_StdDevReq+0x16>
70008858:	f890 129c 	ldrb.w	r1, [r0, #668]	@ 0x29c
7000885c:	2902      	cmp	r1, #2
7000885e:	b2cb      	uxtb	r3, r1
70008860:	d807      	bhi.n	70008872 <USBD_StdDevReq+0x25e>
70008862:	2b00      	cmp	r3, #0
70008864:	f43f aee1 	beq.w	7000862a <USBD_StdDevReq+0x16>
70008868:	4601      	mov	r1, r0
7000886a:	2300      	movs	r3, #0
7000886c:	f841 3f08 	str.w	r3, [r1, #8]!
70008870:	e737      	b.n	700086e2 <USBD_StdDevReq+0xce>
70008872:	2b03      	cmp	r3, #3
70008874:	f47f aed9 	bne.w	7000862a <USBD_StdDevReq+0x16>
70008878:	1d01      	adds	r1, r0, #4
7000887a:	e732      	b.n	700086e2 <USBD_StdDevReq+0xce>
7000887c:	f890 329c 	ldrb.w	r3, [r0, #668]	@ 0x29c
70008880:	3b01      	subs	r3, #1
70008882:	2b02      	cmp	r3, #2
70008884:	f63f aed1 	bhi.w	7000862a <USBD_StdDevReq+0x16>
70008888:	88ca      	ldrh	r2, [r1, #6]
7000888a:	2a02      	cmp	r2, #2
7000888c:	f47f aecd 	bne.w	7000862a <USBD_StdDevReq+0x16>
70008890:	f8d0 32a4 	ldr.w	r3, [r0, #676]	@ 0x2a4
70008894:	4601      	mov	r1, r0
70008896:	2b00      	cmp	r3, #0
70008898:	bf0c      	ite	eq
7000889a:	2301      	moveq	r3, #1
7000889c:	2303      	movne	r3, #3
7000889e:	f841 3f0c 	str.w	r3, [r1, #12]!
700088a2:	e71e      	b.n	700086e2 <USBD_StdDevReq+0xce>
700088a4:	884b      	ldrh	r3, [r1, #2]
700088a6:	2b01      	cmp	r3, #1
700088a8:	d102      	bne.n	700088b0 <USBD_StdDevReq+0x29c>
700088aa:	f8c4 32a4 	str.w	r3, [r4, #676]	@ 0x2a4
700088ae:	e7b2      	b.n	70008816 <USBD_StdDevReq+0x202>
700088b0:	2b02      	cmp	r3, #2
700088b2:	f47f aeba 	bne.w	7000862a <USBD_StdDevReq+0x16>
700088b6:	888b      	ldrh	r3, [r1, #4]
700088b8:	0a1b      	lsrs	r3, r3, #8
700088ba:	f880 32a0 	strb.w	r3, [r0, #672]	@ 0x2a0
700088be:	e7aa      	b.n	70008816 <USBD_StdDevReq+0x202>
700088c0:	f890 329c 	ldrb.w	r3, [r0, #668]	@ 0x29c
700088c4:	3b01      	subs	r3, #1
700088c6:	2b02      	cmp	r3, #2
700088c8:	f63f aeaf 	bhi.w	7000862a <USBD_StdDevReq+0x16>
700088cc:	884b      	ldrh	r3, [r1, #2]
700088ce:	2b01      	cmp	r3, #1
700088d0:	f47f aeae 	bne.w	70008630 <USBD_StdDevReq+0x1c>
700088d4:	2300      	movs	r3, #0
700088d6:	e7e8      	b.n	700088aa <USBD_StdDevReq+0x296>
700088d8:	24001880 	.word	0x24001880

700088dc <USBD_StdItfReq>:
700088dc:	b570      	push	{r4, r5, r6, lr}
700088de:	780b      	ldrb	r3, [r1, #0]
700088e0:	4604      	mov	r4, r0
700088e2:	460e      	mov	r6, r1
700088e4:	f003 0260 	and.w	r2, r3, #96	@ 0x60
700088e8:	065b      	lsls	r3, r3, #25
700088ea:	d501      	bpl.n	700088f0 <USBD_StdItfReq+0x14>
700088ec:	2a40      	cmp	r2, #64	@ 0x40
700088ee:	d11f      	bne.n	70008930 <USBD_StdItfReq+0x54>
700088f0:	f894 329c 	ldrb.w	r3, [r4, #668]	@ 0x29c
700088f4:	3b01      	subs	r3, #1
700088f6:	2b02      	cmp	r3, #2
700088f8:	d81a      	bhi.n	70008930 <USBD_StdItfReq+0x54>
700088fa:	7931      	ldrb	r1, [r6, #4]
700088fc:	4620      	mov	r0, r4
700088fe:	2901      	cmp	r1, #1
70008900:	d817      	bhi.n	70008932 <USBD_StdItfReq+0x56>
70008902:	f7ff fe65 	bl	700085d0 <USBD_CoreFindIF>
70008906:	b988      	cbnz	r0, 7000892c <USBD_StdItfReq+0x50>
70008908:	f8d4 32b8 	ldr.w	r3, [r4, #696]	@ 0x2b8
7000890c:	689b      	ldr	r3, [r3, #8]
7000890e:	b16b      	cbz	r3, 7000892c <USBD_StdItfReq+0x50>
70008910:	f8c4 02d4 	str.w	r0, [r4, #724]	@ 0x2d4
70008914:	4631      	mov	r1, r6
70008916:	4620      	mov	r0, r4
70008918:	4798      	blx	r3
7000891a:	4605      	mov	r5, r0
7000891c:	88f3      	ldrh	r3, [r6, #6]
7000891e:	b91b      	cbnz	r3, 70008928 <USBD_StdItfReq+0x4c>
70008920:	b915      	cbnz	r5, 70008928 <USBD_StdItfReq+0x4c>
70008922:	4620      	mov	r0, r4
70008924:	f000 f902 	bl	70008b2c <USBD_CtlSendStatus>
70008928:	4628      	mov	r0, r5
7000892a:	bd70      	pop	{r4, r5, r6, pc}
7000892c:	2503      	movs	r5, #3
7000892e:	e7f5      	b.n	7000891c <USBD_StdItfReq+0x40>
70008930:	4620      	mov	r0, r4
70008932:	2500      	movs	r5, #0
70008934:	f7ff fe62 	bl	700085fc <USBD_CtlError.constprop.0>
70008938:	e7f6      	b.n	70008928 <USBD_StdItfReq+0x4c>

7000893a <USBD_StdEPReq>:
7000893a:	b570      	push	{r4, r5, r6, lr}
7000893c:	780b      	ldrb	r3, [r1, #0]
7000893e:	4604      	mov	r4, r0
70008940:	460e      	mov	r6, r1
70008942:	888a      	ldrh	r2, [r1, #4]
70008944:	f003 0360 	and.w	r3, r3, #96	@ 0x60
70008948:	790d      	ldrb	r5, [r1, #4]
7000894a:	2b20      	cmp	r3, #32
7000894c:	d058      	beq.n	70008a00 <USBD_StdEPReq+0xc6>
7000894e:	2b40      	cmp	r3, #64	@ 0x40
70008950:	d056      	beq.n	70008a00 <USBD_StdEPReq+0xc6>
70008952:	b11b      	cbz	r3, 7000895c <USBD_StdEPReq+0x22>
70008954:	4620      	mov	r0, r4
70008956:	f7ff fe51 	bl	700085fc <USBD_CtlError.constprop.0>
7000895a:	e03d      	b.n	700089d8 <USBD_StdEPReq+0x9e>
7000895c:	784b      	ldrb	r3, [r1, #1]
7000895e:	2b01      	cmp	r3, #1
70008960:	d03c      	beq.n	700089dc <USBD_StdEPReq+0xa2>
70008962:	2b03      	cmp	r3, #3
70008964:	d025      	beq.n	700089b2 <USBD_StdEPReq+0x78>
70008966:	2b00      	cmp	r3, #0
70008968:	d1f4      	bne.n	70008954 <USBD_StdEPReq+0x1a>
7000896a:	f890 329c 	ldrb.w	r3, [r0, #668]	@ 0x29c
7000896e:	2b02      	cmp	r3, #2
70008970:	b2d9      	uxtb	r1, r3
70008972:	d061      	beq.n	70008a38 <USBD_StdEPReq+0xfe>
70008974:	2903      	cmp	r1, #3
70008976:	d1ed      	bne.n	70008954 <USBD_StdEPReq+0x1a>
70008978:	f005 030f 	and.w	r3, r5, #15
7000897c:	f012 0f80 	tst.w	r2, #128	@ 0x80
70008980:	f04f 0214 	mov.w	r2, #20
70008984:	fb02 0303 	mla	r3, r2, r3, r0
70008988:	d068      	beq.n	70008a5c <USBD_StdEPReq+0x122>
7000898a:	f893 3023 	ldrb.w	r3, [r3, #35]	@ 0x23
7000898e:	2b00      	cmp	r3, #0
70008990:	d0e0      	beq.n	70008954 <USBD_StdEPReq+0x1a>
70008992:	f005 037f 	and.w	r3, r5, #127	@ 0x7f
70008996:	2614      	movs	r6, #20
70008998:	2d80      	cmp	r5, #128	@ 0x80
7000899a:	fb03 6606 	mla	r6, r3, r6, r6
7000899e:	4406      	add	r6, r0
700089a0:	d068      	beq.n	70008a74 <USBD_StdEPReq+0x13a>
700089a2:	4629      	mov	r1, r5
700089a4:	4620      	mov	r0, r4
700089a6:	f7f8 f855 	bl	70000a54 <USBD_LL_IsStallEP>
700089aa:	2800      	cmp	r0, #0
700089ac:	d068      	beq.n	70008a80 <USBD_StdEPReq+0x146>
700089ae:	2301      	movs	r3, #1
700089b0:	e061      	b.n	70008a76 <USBD_StdEPReq+0x13c>
700089b2:	f890 329c 	ldrb.w	r3, [r0, #668]	@ 0x29c
700089b6:	2b02      	cmp	r3, #2
700089b8:	b2da      	uxtb	r2, r3
700089ba:	d033      	beq.n	70008a24 <USBD_StdEPReq+0xea>
700089bc:	2a03      	cmp	r2, #3
700089be:	d1c9      	bne.n	70008954 <USBD_StdEPReq+0x1a>
700089c0:	884b      	ldrh	r3, [r1, #2]
700089c2:	b933      	cbnz	r3, 700089d2 <USBD_StdEPReq+0x98>
700089c4:	0669      	lsls	r1, r5, #25
700089c6:	d004      	beq.n	700089d2 <USBD_StdEPReq+0x98>
700089c8:	88f3      	ldrh	r3, [r6, #6]
700089ca:	b913      	cbnz	r3, 700089d2 <USBD_StdEPReq+0x98>
700089cc:	4629      	mov	r1, r5
700089ce:	f7f8 f892 	bl	70000af6 <USBD_LL_StallEP>
700089d2:	4620      	mov	r0, r4
700089d4:	f000 f8aa 	bl	70008b2c <USBD_CtlSendStatus>
700089d8:	2000      	movs	r0, #0
700089da:	bd70      	pop	{r4, r5, r6, pc}
700089dc:	f890 329c 	ldrb.w	r3, [r0, #668]	@ 0x29c
700089e0:	2b02      	cmp	r3, #2
700089e2:	b2da      	uxtb	r2, r3
700089e4:	d01e      	beq.n	70008a24 <USBD_StdEPReq+0xea>
700089e6:	2a03      	cmp	r2, #3
700089e8:	d1b4      	bne.n	70008954 <USBD_StdEPReq+0x1a>
700089ea:	884b      	ldrh	r3, [r1, #2]
700089ec:	2b00      	cmp	r3, #0
700089ee:	d1f3      	bne.n	700089d8 <USBD_StdEPReq+0x9e>
700089f0:	066b      	lsls	r3, r5, #25
700089f2:	d002      	beq.n	700089fa <USBD_StdEPReq+0xc0>
700089f4:	4629      	mov	r1, r5
700089f6:	f7f8 f887 	bl	70000b08 <USBD_LL_ClearStallEP>
700089fa:	4620      	mov	r0, r4
700089fc:	f000 f896 	bl	70008b2c <USBD_CtlSendStatus>
70008a00:	4629      	mov	r1, r5
70008a02:	4620      	mov	r0, r4
70008a04:	f7ff fde6 	bl	700085d4 <USBD_CoreFindEP>
70008a08:	2800      	cmp	r0, #0
70008a0a:	d1e5      	bne.n	700089d8 <USBD_StdEPReq+0x9e>
70008a0c:	f8d4 32b8 	ldr.w	r3, [r4, #696]	@ 0x2b8
70008a10:	f8c4 02d4 	str.w	r0, [r4, #724]	@ 0x2d4
70008a14:	689b      	ldr	r3, [r3, #8]
70008a16:	2b00      	cmp	r3, #0
70008a18:	d0de      	beq.n	700089d8 <USBD_StdEPReq+0x9e>
70008a1a:	4631      	mov	r1, r6
70008a1c:	4620      	mov	r0, r4
70008a1e:	e8bd 4070 	ldmia.w	sp!, {r4, r5, r6, lr}
70008a22:	4718      	bx	r3
70008a24:	066a      	lsls	r2, r5, #25
70008a26:	d095      	beq.n	70008954 <USBD_StdEPReq+0x1a>
70008a28:	4629      	mov	r1, r5
70008a2a:	f7f8 f864 	bl	70000af6 <USBD_LL_StallEP>
70008a2e:	2180      	movs	r1, #128	@ 0x80
70008a30:	4620      	mov	r0, r4
70008a32:	f7f8 f860 	bl	70000af6 <USBD_LL_StallEP>
70008a36:	e7cf      	b.n	700089d8 <USBD_StdEPReq+0x9e>
70008a38:	0669      	lsls	r1, r5, #25
70008a3a:	d18b      	bne.n	70008954 <USBD_StdEPReq+0x1a>
70008a3c:	0613      	lsls	r3, r2, #24
70008a3e:	f04f 0300 	mov.w	r3, #0
70008a42:	f04f 0202 	mov.w	r2, #2
70008a46:	bf4c      	ite	mi
70008a48:	f100 0114 	addmi.w	r1, r0, #20
70008a4c:	f500 71aa 	addpl.w	r1, r0, #340	@ 0x154
70008a50:	f801 3f0e 	strb.w	r3, [r1, #14]!
70008a54:	4620      	mov	r0, r4
70008a56:	f000 f84b 	bl	70008af0 <USBD_CtlSendData>
70008a5a:	e7bd      	b.n	700089d8 <USBD_StdEPReq+0x9e>
70008a5c:	f893 3163 	ldrb.w	r3, [r3, #355]	@ 0x163
70008a60:	2b00      	cmp	r3, #0
70008a62:	f43f af77 	beq.w	70008954 <USBD_StdEPReq+0x1a>
70008a66:	2614      	movs	r6, #20
70008a68:	fb06 0605 	mla	r6, r6, r5, r0
70008a6c:	f506 76aa 	add.w	r6, r6, #340	@ 0x154
70008a70:	2d00      	cmp	r5, #0
70008a72:	d196      	bne.n	700089a2 <USBD_StdEPReq+0x68>
70008a74:	2300      	movs	r3, #0
70008a76:	73b3      	strb	r3, [r6, #14]
70008a78:	2202      	movs	r2, #2
70008a7a:	f106 010e 	add.w	r1, r6, #14
70008a7e:	e7e9      	b.n	70008a54 <USBD_StdEPReq+0x11a>
70008a80:	73b0      	strb	r0, [r6, #14]
70008a82:	e7f9      	b.n	70008a78 <USBD_StdEPReq+0x13e>

70008a84 <USBD_ParseSetupRequest>:
70008a84:	780b      	ldrb	r3, [r1, #0]
70008a86:	7003      	strb	r3, [r0, #0]
70008a88:	784b      	ldrb	r3, [r1, #1]
70008a8a:	7043      	strb	r3, [r0, #1]
70008a8c:	884b      	ldrh	r3, [r1, #2]
70008a8e:	8043      	strh	r3, [r0, #2]
70008a90:	888b      	ldrh	r3, [r1, #4]
70008a92:	8083      	strh	r3, [r0, #4]
70008a94:	88cb      	ldrh	r3, [r1, #6]
70008a96:	80c3      	strh	r3, [r0, #6]
70008a98:	4770      	bx	lr

70008a9a <USBD_CtlError>:
70008a9a:	b510      	push	{r4, lr}
70008a9c:	4604      	mov	r4, r0
70008a9e:	2180      	movs	r1, #128	@ 0x80
70008aa0:	f7f8 f829 	bl	70000af6 <USBD_LL_StallEP>
70008aa4:	2100      	movs	r1, #0
70008aa6:	4620      	mov	r0, r4
70008aa8:	e8bd 4010 	ldmia.w	sp!, {r4, lr}
70008aac:	f7f8 b823 	b.w	70000af6 <USBD_LL_StallEP>

70008ab0 <USBD_GetString>:
70008ab0:	b570      	push	{r4, r5, r6, lr}
70008ab2:	460d      	mov	r5, r1
70008ab4:	4616      	mov	r6, r2
70008ab6:	4604      	mov	r4, r0
70008ab8:	b190      	cbz	r0, 70008ae0 <USBD_GetString+0x30>
70008aba:	f7f7 fcb8 	bl	7000042e <strlen>
70008abe:	3c01      	subs	r4, #1
70008ac0:	b2c0      	uxtb	r0, r0
70008ac2:	2100      	movs	r1, #0
70008ac4:	3001      	adds	r0, #1
70008ac6:	0043      	lsls	r3, r0, #1
70008ac8:	2820      	cmp	r0, #32
70008aca:	bf8c      	ite	hi
70008acc:	2340      	movhi	r3, #64	@ 0x40
70008ace:	b29b      	uxthls	r3, r3
70008ad0:	8033      	strh	r3, [r6, #0]
70008ad2:	702b      	strb	r3, [r5, #0]
70008ad4:	2303      	movs	r3, #3
70008ad6:	706b      	strb	r3, [r5, #1]
70008ad8:	2302      	movs	r3, #2
70008ada:	f814 2f01 	ldrb.w	r2, [r4, #1]!
70008ade:	b902      	cbnz	r2, 70008ae2 <USBD_GetString+0x32>
70008ae0:	bd70      	pop	{r4, r5, r6, pc}
70008ae2:	54ea      	strb	r2, [r5, r3]
70008ae4:	1c5a      	adds	r2, r3, #1
70008ae6:	3302      	adds	r3, #2
70008ae8:	b2d2      	uxtb	r2, r2
70008aea:	b2db      	uxtb	r3, r3
70008aec:	54a9      	strb	r1, [r5, r2]
70008aee:	e7f4      	b.n	70008ada <USBD_GetString+0x2a>

70008af0 <USBD_CtlSendData>:
70008af0:	4613      	mov	r3, r2
70008af2:	2202      	movs	r2, #2
70008af4:	b510      	push	{r4, lr}
70008af6:	f8c0 2294 	str.w	r2, [r0, #660]	@ 0x294
70008afa:	460a      	mov	r2, r1
70008afc:	6143      	str	r3, [r0, #20]
70008afe:	6241      	str	r1, [r0, #36]	@ 0x24
70008b00:	2100      	movs	r1, #0
70008b02:	6183      	str	r3, [r0, #24]
70008b04:	f7f8 f812 	bl	70000b2c <USBD_LL_Transmit>
70008b08:	2000      	movs	r0, #0
70008b0a:	bd10      	pop	{r4, pc}

70008b0c <USBD_CtlContinueSendData>:
70008b0c:	b508      	push	{r3, lr}
70008b0e:	4613      	mov	r3, r2
70008b10:	460a      	mov	r2, r1
70008b12:	2100      	movs	r1, #0
70008b14:	f7f8 f80a 	bl	70000b2c <USBD_LL_Transmit>
70008b18:	2000      	movs	r0, #0
70008b1a:	bd08      	pop	{r3, pc}

70008b1c <USBD_CtlContinueRx>:
70008b1c:	b508      	push	{r3, lr}
70008b1e:	4613      	mov	r3, r2
70008b20:	460a      	mov	r2, r1
70008b22:	2100      	movs	r1, #0
70008b24:	f7f8 f80b 	bl	70000b3e <USBD_LL_PrepareReceive>
70008b28:	2000      	movs	r0, #0
70008b2a:	bd08      	pop	{r3, pc}

70008b2c <USBD_CtlSendStatus>:
70008b2c:	b508      	push	{r3, lr}
70008b2e:	2204      	movs	r2, #4
70008b30:	2300      	movs	r3, #0
70008b32:	f8c0 2294 	str.w	r2, [r0, #660]	@ 0x294
70008b36:	4619      	mov	r1, r3
70008b38:	461a      	mov	r2, r3
70008b3a:	f7f7 fff7 	bl	70000b2c <USBD_LL_Transmit>
70008b3e:	2000      	movs	r0, #0
70008b40:	bd08      	pop	{r3, pc}

70008b42 <USBD_CtlReceiveStatus>:
70008b42:	b508      	push	{r3, lr}
70008b44:	2205      	movs	r2, #5
70008b46:	2300      	movs	r3, #0
70008b48:	f8c0 2294 	str.w	r2, [r0, #660]	@ 0x294
70008b4c:	4619      	mov	r1, r3
70008b4e:	461a      	mov	r2, r3
70008b50:	f7f7 fff5 	bl	70000b3e <USBD_LL_PrepareReceive>
70008b54:	2000      	movs	r0, #0
70008b56:	bd08      	pop	{r3, pc}

70008b58 <USBD_MSC_GetDeviceQualifierDescriptor>:
70008b58:	230a      	movs	r3, #10
70008b5a:	8003      	strh	r3, [r0, #0]
70008b5c:	4800      	ldr	r0, [pc, #0]	@ (70008b60 <USBD_MSC_GetDeviceQualifierDescriptor+0x8>)
70008b5e:	4770      	bx	lr
70008b60:	2400010c 	.word	0x2400010c

70008b64 <USBD_MSC_Init>:
70008b64:	b5f8      	push	{r3, r4, r5, r6, r7, lr}
70008b66:	4604      	mov	r4, r0
70008b68:	f44f 7021 	mov.w	r0, #644	@ 0x284
70008b6c:	f7f7 ff88 	bl	70000a80 <USBD_static_malloc>
70008b70:	f8d4 32d4 	ldr.w	r3, [r4, #724]	@ 0x2d4
70008b74:	33b0      	adds	r3, #176	@ 0xb0
70008b76:	f844 0023 	str.w	r0, [r4, r3, lsl #2]
70008b7a:	b908      	cbnz	r0, 70008b80 <USBD_MSC_Init+0x1c>
70008b7c:	2002      	movs	r0, #2
70008b7e:	bdf8      	pop	{r3, r4, r5, r6, r7, pc}
70008b80:	4e1c      	ldr	r6, [pc, #112]	@ (70008bf4 <USBD_MSC_Init+0x90>)
70008b82:	7c23      	ldrb	r3, [r4, #16]
70008b84:	7831      	ldrb	r1, [r6, #0]
70008b86:	4d1c      	ldr	r5, [pc, #112]	@ (70008bf8 <USBD_MSC_Init+0x94>)
70008b88:	f8c4 02bc 	str.w	r0, [r4, #700]	@ 0x2bc
70008b8c:	bb0b      	cbnz	r3, 70008bd2 <USBD_MSC_Init+0x6e>
70008b8e:	f44f 7300 	mov.w	r3, #512	@ 0x200
70008b92:	2202      	movs	r2, #2
70008b94:	4620      	mov	r0, r4
70008b96:	2714      	movs	r7, #20
70008b98:	f7f7 ff8f 	bl	70000aba <USBD_LL_OpenEP>
70008b9c:	7833      	ldrb	r3, [r6, #0]
70008b9e:	2601      	movs	r6, #1
70008ba0:	f003 030f 	and.w	r3, r3, #15
70008ba4:	fb07 4303 	mla	r3, r7, r3, r4
70008ba8:	f883 6163 	strb.w	r6, [r3, #355]	@ 0x163
70008bac:	f44f 7300 	mov.w	r3, #512	@ 0x200
70008bb0:	2202      	movs	r2, #2
70008bb2:	7829      	ldrb	r1, [r5, #0]
70008bb4:	4620      	mov	r0, r4
70008bb6:	f7f7 ff80 	bl	70000aba <USBD_LL_OpenEP>
70008bba:	782b      	ldrb	r3, [r5, #0]
70008bbc:	4620      	mov	r0, r4
70008bbe:	f003 030f 	and.w	r3, r3, #15
70008bc2:	fb07 4303 	mla	r3, r7, r3, r4
70008bc6:	f883 6023 	strb.w	r6, [r3, #35]	@ 0x23
70008bca:	f000 f951 	bl	70008e70 <MSC_BOT_Init>
70008bce:	2000      	movs	r0, #0
70008bd0:	e7d5      	b.n	70008b7e <USBD_MSC_Init+0x1a>
70008bd2:	2340      	movs	r3, #64	@ 0x40
70008bd4:	2202      	movs	r2, #2
70008bd6:	4620      	mov	r0, r4
70008bd8:	2714      	movs	r7, #20
70008bda:	f7f7 ff6e 	bl	70000aba <USBD_LL_OpenEP>
70008bde:	7833      	ldrb	r3, [r6, #0]
70008be0:	2601      	movs	r6, #1
70008be2:	f003 030f 	and.w	r3, r3, #15
70008be6:	fb07 4303 	mla	r3, r7, r3, r4
70008bea:	f883 6163 	strb.w	r6, [r3, #355]	@ 0x163
70008bee:	2340      	movs	r3, #64	@ 0x40
70008bf0:	e7de      	b.n	70008bb0 <USBD_MSC_Init+0x4c>
70008bf2:	bf00      	nop
70008bf4:	24000108 	.word	0x24000108
70008bf8:	24000109 	.word	0x24000109

70008bfc <USBD_MSC_Setup>:
70008bfc:	b5f7      	push	{r0, r1, r2, r4, r5, r6, r7, lr}
70008bfe:	460d      	mov	r5, r1
70008c00:	f8d0 12d4 	ldr.w	r1, [r0, #724]	@ 0x2d4
70008c04:	2300      	movs	r3, #0
70008c06:	4604      	mov	r4, r0
70008c08:	eb00 0181 	add.w	r1, r0, r1, lsl #2
70008c0c:	f8ad 3006 	strh.w	r3, [sp, #6]
70008c10:	f8d1 62c0 	ldr.w	r6, [r1, #704]	@ 0x2c0
70008c14:	b176      	cbz	r6, 70008c34 <USBD_MSC_Setup+0x38>
70008c16:	782b      	ldrb	r3, [r5, #0]
70008c18:	f013 0260 	ands.w	r2, r3, #96	@ 0x60
70008c1c:	d02f      	beq.n	70008c7e <USBD_MSC_Setup+0x82>
70008c1e:	2a20      	cmp	r2, #32
70008c20:	d104      	bne.n	70008c2c <USBD_MSC_Setup+0x30>
70008c22:	786a      	ldrb	r2, [r5, #1]
70008c24:	2afe      	cmp	r2, #254	@ 0xfe
70008c26:	d007      	beq.n	70008c38 <USBD_MSC_Setup+0x3c>
70008c28:	2aff      	cmp	r2, #255	@ 0xff
70008c2a:	d01b      	beq.n	70008c64 <USBD_MSC_Setup+0x68>
70008c2c:	4629      	mov	r1, r5
70008c2e:	4620      	mov	r0, r4
70008c30:	f7ff ff33 	bl	70008a9a <USBD_CtlError>
70008c34:	2003      	movs	r0, #3
70008c36:	e020      	b.n	70008c7a <USBD_MSC_Setup+0x7e>
70008c38:	886a      	ldrh	r2, [r5, #2]
70008c3a:	2a00      	cmp	r2, #0
70008c3c:	d1f6      	bne.n	70008c2c <USBD_MSC_Setup+0x30>
70008c3e:	88ef      	ldrh	r7, [r5, #6]
70008c40:	2f01      	cmp	r7, #1
70008c42:	d1f3      	bne.n	70008c2c <USBD_MSC_Setup+0x30>
70008c44:	061a      	lsls	r2, r3, #24
70008c46:	d5f1      	bpl.n	70008c2c <USBD_MSC_Setup+0x30>
70008c48:	f8d1 32c4 	ldr.w	r3, [r1, #708]	@ 0x2c4
70008c4c:	699b      	ldr	r3, [r3, #24]
70008c4e:	4798      	blx	r3
70008c50:	2802      	cmp	r0, #2
70008c52:	463a      	mov	r2, r7
70008c54:	4631      	mov	r1, r6
70008c56:	bf28      	it	cs
70008c58:	2002      	movcs	r0, #2
70008c5a:	6030      	str	r0, [r6, #0]
70008c5c:	4620      	mov	r0, r4
70008c5e:	f7ff ff47 	bl	70008af0 <USBD_CtlSendData>
70008c62:	e009      	b.n	70008c78 <USBD_MSC_Setup+0x7c>
70008c64:	886a      	ldrh	r2, [r5, #2]
70008c66:	2a00      	cmp	r2, #0
70008c68:	d1e0      	bne.n	70008c2c <USBD_MSC_Setup+0x30>
70008c6a:	88ea      	ldrh	r2, [r5, #6]
70008c6c:	2a00      	cmp	r2, #0
70008c6e:	d1dd      	bne.n	70008c2c <USBD_MSC_Setup+0x30>
70008c70:	061b      	lsls	r3, r3, #24
70008c72:	d4db      	bmi.n	70008c2c <USBD_MSC_Setup+0x30>
70008c74:	f000 f928 	bl	70008ec8 <MSC_BOT_Reset>
70008c78:	2000      	movs	r0, #0
70008c7a:	b003      	add	sp, #12
70008c7c:	bdf0      	pop	{r4, r5, r6, r7, pc}
70008c7e:	786b      	ldrb	r3, [r5, #1]
70008c80:	2b0b      	cmp	r3, #11
70008c82:	d8d3      	bhi.n	70008c2c <USBD_MSC_Setup+0x30>
70008c84:	a201      	add	r2, pc, #4	@ (adr r2, 70008c8c <USBD_MSC_Setup+0x90>)
70008c86:	f852 f023 	ldr.w	pc, [r2, r3, lsl #2]
70008c8a:	bf00      	nop
70008c8c:	70008cbd 	.word	0x70008cbd
70008c90:	70008ce9 	.word	0x70008ce9
70008c94:	70008c2d 	.word	0x70008c2d
70008c98:	70008c2d 	.word	0x70008c2d
70008c9c:	70008c2d 	.word	0x70008c2d
70008ca0:	70008c2d 	.word	0x70008c2d
70008ca4:	70008c2d 	.word	0x70008c2d
70008ca8:	70008c2d 	.word	0x70008c2d
70008cac:	70008c2d 	.word	0x70008c2d
70008cb0:	70008c2d 	.word	0x70008c2d
70008cb4:	70008ccd 	.word	0x70008ccd
70008cb8:	70008cdb 	.word	0x70008cdb
70008cbc:	f890 329c 	ldrb.w	r3, [r0, #668]	@ 0x29c
70008cc0:	2b03      	cmp	r3, #3
70008cc2:	d1b3      	bne.n	70008c2c <USBD_MSC_Setup+0x30>
70008cc4:	2202      	movs	r2, #2
70008cc6:	f10d 0106 	add.w	r1, sp, #6
70008cca:	e7c7      	b.n	70008c5c <USBD_MSC_Setup+0x60>
70008ccc:	f890 329c 	ldrb.w	r3, [r0, #668]	@ 0x29c
70008cd0:	2b03      	cmp	r3, #3
70008cd2:	d1ab      	bne.n	70008c2c <USBD_MSC_Setup+0x30>
70008cd4:	2201      	movs	r2, #1
70008cd6:	1d31      	adds	r1, r6, #4
70008cd8:	e7c0      	b.n	70008c5c <USBD_MSC_Setup+0x60>
70008cda:	f890 329c 	ldrb.w	r3, [r0, #668]	@ 0x29c
70008cde:	2b03      	cmp	r3, #3
70008ce0:	d1a4      	bne.n	70008c2c <USBD_MSC_Setup+0x30>
70008ce2:	78ab      	ldrb	r3, [r5, #2]
70008ce4:	6073      	str	r3, [r6, #4]
70008ce6:	e7c7      	b.n	70008c78 <USBD_MSC_Setup+0x7c>
70008ce8:	f890 329c 	ldrb.w	r3, [r0, #668]	@ 0x29c
70008cec:	2b03      	cmp	r3, #3
70008cee:	d1c3      	bne.n	70008c78 <USBD_MSC_Setup+0x7c>
70008cf0:	886b      	ldrh	r3, [r5, #2]
70008cf2:	2b00      	cmp	r3, #0
70008cf4:	d1c0      	bne.n	70008c78 <USBD_MSC_Setup+0x7c>
70008cf6:	7929      	ldrb	r1, [r5, #4]
70008cf8:	f7f7 fef4 	bl	70000ae4 <USBD_LL_FlushEP>
70008cfc:	7929      	ldrb	r1, [r5, #4]
70008cfe:	4620      	mov	r0, r4
70008d00:	f000 f9d2 	bl	700090a8 <MSC_BOT_CplClrFeature>
70008d04:	e7b8      	b.n	70008c78 <USBD_MSC_Setup+0x7c>
70008d06:	bf00      	nop

70008d08 <USBD_MSC_DataIn>:
70008d08:	b508      	push	{r3, lr}
70008d0a:	f000 f931 	bl	70008f70 <MSC_BOT_DataIn>
70008d0e:	2000      	movs	r0, #0
70008d10:	bd08      	pop	{r3, pc}

70008d12 <USBD_MSC_DataOut>:
70008d12:	b508      	push	{r3, lr}
70008d14:	f000 f94c 	bl	70008fb0 <MSC_BOT_DataOut>
70008d18:	2000      	movs	r0, #0
70008d1a:	bd08      	pop	{r3, pc}

70008d1c <USBD_MSC_GetHSCfgDesc>:
70008d1c:	b538      	push	{r3, r4, r5, lr}
70008d1e:	2181      	movs	r1, #129	@ 0x81
70008d20:	4605      	mov	r5, r0
70008d22:	480b      	ldr	r0, [pc, #44]	@ (70008d50 <USBD_MSC_GetHSCfgDesc+0x34>)
70008d24:	f7ff fc58 	bl	700085d8 <USBD_GetEpDesc>
70008d28:	4604      	mov	r4, r0
70008d2a:	2101      	movs	r1, #1
70008d2c:	4808      	ldr	r0, [pc, #32]	@ (70008d50 <USBD_MSC_GetHSCfgDesc+0x34>)
70008d2e:	f7ff fc53 	bl	700085d8 <USBD_GetEpDesc>
70008d32:	b11c      	cbz	r4, 70008d3c <USBD_MSC_GetHSCfgDesc+0x20>
70008d34:	2200      	movs	r2, #0
70008d36:	7122      	strb	r2, [r4, #4]
70008d38:	2202      	movs	r2, #2
70008d3a:	7162      	strb	r2, [r4, #5]
70008d3c:	b118      	cbz	r0, 70008d46 <USBD_MSC_GetHSCfgDesc+0x2a>
70008d3e:	2200      	movs	r2, #0
70008d40:	7102      	strb	r2, [r0, #4]
70008d42:	2202      	movs	r2, #2
70008d44:	7142      	strb	r2, [r0, #5]
70008d46:	2320      	movs	r3, #32
70008d48:	4801      	ldr	r0, [pc, #4]	@ (70008d50 <USBD_MSC_GetHSCfgDesc+0x34>)
70008d4a:	802b      	strh	r3, [r5, #0]
70008d4c:	bd38      	pop	{r3, r4, r5, pc}
70008d4e:	bf00      	nop
70008d50:	24000118 	.word	0x24000118

70008d54 <USBD_MSC_GetFSCfgDesc>:
70008d54:	b538      	push	{r3, r4, r5, lr}
70008d56:	2181      	movs	r1, #129	@ 0x81
70008d58:	4605      	mov	r5, r0
70008d5a:	480b      	ldr	r0, [pc, #44]	@ (70008d88 <USBD_MSC_GetFSCfgDesc+0x34>)
70008d5c:	f7ff fc3c 	bl	700085d8 <USBD_GetEpDesc>
70008d60:	4604      	mov	r4, r0
70008d62:	2101      	movs	r1, #1
70008d64:	4808      	ldr	r0, [pc, #32]	@ (70008d88 <USBD_MSC_GetFSCfgDesc+0x34>)
70008d66:	f7ff fc37 	bl	700085d8 <USBD_GetEpDesc>
70008d6a:	b11c      	cbz	r4, 70008d74 <USBD_MSC_GetFSCfgDesc+0x20>
70008d6c:	2240      	movs	r2, #64	@ 0x40
70008d6e:	7122      	strb	r2, [r4, #4]
70008d70:	2200      	movs	r2, #0
70008d72:	7162      	strb	r2, [r4, #5]
70008d74:	b118      	cbz	r0, 70008d7e <USBD_MSC_GetFSCfgDesc+0x2a>
70008d76:	2240      	movs	r2, #64	@ 0x40
70008d78:	7102      	strb	r2, [r0, #4]
70008d7a:	2200      	movs	r2, #0
70008d7c:	7142      	strb	r2, [r0, #5]
70008d7e:	2320      	movs	r3, #32
70008d80:	4801      	ldr	r0, [pc, #4]	@ (70008d88 <USBD_MSC_GetFSCfgDesc+0x34>)
70008d82:	802b      	strh	r3, [r5, #0]
70008d84:	bd38      	pop	{r3, r4, r5, pc}
70008d86:	bf00      	nop
70008d88:	24000118 	.word	0x24000118

70008d8c <USBD_MSC_GetOtherSpeedCfgDesc>:
70008d8c:	f7ff bfe2 	b.w	70008d54 <USBD_MSC_GetFSCfgDesc>

70008d90 <USBD_MSC_DeInit>:
70008d90:	b5f8      	push	{r3, r4, r5, r6, r7, lr}
70008d92:	4d19      	ldr	r5, [pc, #100]	@ (70008df8 <USBD_MSC_DeInit+0x68>)
70008d94:	4604      	mov	r4, r0
70008d96:	2614      	movs	r6, #20
70008d98:	4f18      	ldr	r7, [pc, #96]	@ (70008dfc <USBD_MSC_DeInit+0x6c>)
70008d9a:	7829      	ldrb	r1, [r5, #0]
70008d9c:	f7f7 fe99 	bl	70000ad2 <USBD_LL_CloseEP>
70008da0:	782b      	ldrb	r3, [r5, #0]
70008da2:	2500      	movs	r5, #0
70008da4:	7839      	ldrb	r1, [r7, #0]
70008da6:	f003 030f 	and.w	r3, r3, #15
70008daa:	4620      	mov	r0, r4
70008dac:	fb06 4303 	mla	r3, r6, r3, r4
70008db0:	f883 5163 	strb.w	r5, [r3, #355]	@ 0x163
70008db4:	f7f7 fe8d 	bl	70000ad2 <USBD_LL_CloseEP>
70008db8:	783b      	ldrb	r3, [r7, #0]
70008dba:	f003 030f 	and.w	r3, r3, #15
70008dbe:	fb06 4303 	mla	r3, r6, r3, r4
70008dc2:	f883 5023 	strb.w	r5, [r3, #35]	@ 0x23
70008dc6:	f8d4 32d4 	ldr.w	r3, [r4, #724]	@ 0x2d4
70008dca:	33b0      	adds	r3, #176	@ 0xb0
70008dcc:	f854 3023 	ldr.w	r3, [r4, r3, lsl #2]
70008dd0:	b183      	cbz	r3, 70008df4 <USBD_MSC_DeInit+0x64>
70008dd2:	4620      	mov	r0, r4
70008dd4:	f000 f89a 	bl	70008f0c <MSC_BOT_DeInit>
70008dd8:	f8d4 32d4 	ldr.w	r3, [r4, #724]	@ 0x2d4
70008ddc:	33b0      	adds	r3, #176	@ 0xb0
70008dde:	f854 0023 	ldr.w	r0, [r4, r3, lsl #2]
70008de2:	f7f7 fe51 	bl	70000a88 <USBD_static_free>
70008de6:	f8d4 32d4 	ldr.w	r3, [r4, #724]	@ 0x2d4
70008dea:	33b0      	adds	r3, #176	@ 0xb0
70008dec:	f844 5023 	str.w	r5, [r4, r3, lsl #2]
70008df0:	f8c4 52bc 	str.w	r5, [r4, #700]	@ 0x2bc
70008df4:	2000      	movs	r0, #0
70008df6:	bdf8      	pop	{r3, r4, r5, r6, r7, pc}
70008df8:	24000108 	.word	0x24000108
70008dfc:	24000109 	.word	0x24000109

70008e00 <USBD_MSC_RegisterStorage>:
70008e00:	b139      	cbz	r1, 70008e12 <USBD_MSC_RegisterStorage+0x12>
70008e02:	f8d0 32d4 	ldr.w	r3, [r0, #724]	@ 0x2d4
70008e06:	eb00 0083 	add.w	r0, r0, r3, lsl #2
70008e0a:	f8c0 12c4 	str.w	r1, [r0, #708]	@ 0x2c4
70008e0e:	2000      	movs	r0, #0
70008e10:	4770      	bx	lr
70008e12:	2003      	movs	r0, #3
70008e14:	4770      	bx	lr
	...

70008e18 <MSC_BOT_Abort>:
70008e18:	f8d0 32d4 	ldr.w	r3, [r0, #724]	@ 0x2d4
70008e1c:	33b0      	adds	r3, #176	@ 0xb0
70008e1e:	b570      	push	{r4, r5, r6, lr}
70008e20:	f850 5023 	ldr.w	r5, [r0, r3, lsl #2]
70008e24:	4604      	mov	r4, r0
70008e26:	b1f5      	cbz	r5, 70008e66 <MSC_BOT_Abort+0x4e>
70008e28:	f895 321c 	ldrb.w	r3, [r5, #540]	@ 0x21c
70008e2c:	b943      	cbnz	r3, 70008e40 <MSC_BOT_Abort+0x28>
70008e2e:	f8d5 3218 	ldr.w	r3, [r5, #536]	@ 0x218
70008e32:	b12b      	cbz	r3, 70008e40 <MSC_BOT_Abort+0x28>
70008e34:	7a6b      	ldrb	r3, [r5, #9]
70008e36:	b91b      	cbnz	r3, 70008e40 <MSC_BOT_Abort+0x28>
70008e38:	4b0b      	ldr	r3, [pc, #44]	@ (70008e68 <MSC_BOT_Abort+0x50>)
70008e3a:	7819      	ldrb	r1, [r3, #0]
70008e3c:	f7f7 fe5b 	bl	70000af6 <USBD_LL_StallEP>
70008e40:	4e0a      	ldr	r6, [pc, #40]	@ (70008e6c <MSC_BOT_Abort+0x54>)
70008e42:	4620      	mov	r0, r4
70008e44:	7831      	ldrb	r1, [r6, #0]
70008e46:	f7f7 fe56 	bl	70000af6 <USBD_LL_StallEP>
70008e4a:	7a6b      	ldrb	r3, [r5, #9]
70008e4c:	2b02      	cmp	r3, #2
70008e4e:	d10a      	bne.n	70008e66 <MSC_BOT_Abort+0x4e>
70008e50:	7831      	ldrb	r1, [r6, #0]
70008e52:	4620      	mov	r0, r4
70008e54:	f7f7 fe4f 	bl	70000af6 <USBD_LL_StallEP>
70008e58:	4b03      	ldr	r3, [pc, #12]	@ (70008e68 <MSC_BOT_Abort+0x50>)
70008e5a:	4620      	mov	r0, r4
70008e5c:	7819      	ldrb	r1, [r3, #0]
70008e5e:	e8bd 4070 	ldmia.w	sp!, {r4, r5, r6, lr}
70008e62:	f7f7 be48 	b.w	70000af6 <USBD_LL_StallEP>
70008e66:	bd70      	pop	{r4, r5, r6, pc}
70008e68:	24000108 	.word	0x24000108
70008e6c:	24000109 	.word	0x24000109

70008e70 <MSC_BOT_Init>:
70008e70:	f8d0 32d4 	ldr.w	r3, [r0, #724]	@ 0x2d4
70008e74:	eb00 0383 	add.w	r3, r0, r3, lsl #2
70008e78:	b570      	push	{r4, r5, r6, lr}
70008e7a:	f8d3 52c0 	ldr.w	r5, [r3, #704]	@ 0x2c0
70008e7e:	4604      	mov	r4, r0
70008e80:	b1e5      	cbz	r5, 70008ebc <MSC_BOT_Init+0x4c>
70008e82:	2000      	movs	r0, #0
70008e84:	4e0e      	ldr	r6, [pc, #56]	@ (70008ec0 <MSC_BOT_Init+0x50>)
70008e86:	8128      	strh	r0, [r5, #8]
70008e88:	f8a5 0260 	strh.w	r0, [r5, #608]	@ 0x260
70008e8c:	f885 0262 	strb.w	r0, [r5, #610]	@ 0x262
70008e90:	f8d3 32c4 	ldr.w	r3, [r3, #708]	@ 0x2c4
70008e94:	681b      	ldr	r3, [r3, #0]
70008e96:	4798      	blx	r3
70008e98:	7831      	ldrb	r1, [r6, #0]
70008e9a:	4620      	mov	r0, r4
70008e9c:	f7f7 fe22 	bl	70000ae4 <USBD_LL_FlushEP>
70008ea0:	4b08      	ldr	r3, [pc, #32]	@ (70008ec4 <MSC_BOT_Init+0x54>)
70008ea2:	4620      	mov	r0, r4
70008ea4:	7819      	ldrb	r1, [r3, #0]
70008ea6:	f7f7 fe1d 	bl	70000ae4 <USBD_LL_FlushEP>
70008eaa:	f505 7204 	add.w	r2, r5, #528	@ 0x210
70008eae:	7831      	ldrb	r1, [r6, #0]
70008eb0:	4620      	mov	r0, r4
70008eb2:	231f      	movs	r3, #31
70008eb4:	e8bd 4070 	ldmia.w	sp!, {r4, r5, r6, lr}
70008eb8:	f7f7 be41 	b.w	70000b3e <USBD_LL_PrepareReceive>
70008ebc:	bd70      	pop	{r4, r5, r6, pc}
70008ebe:	bf00      	nop
70008ec0:	24000108 	.word	0x24000108
70008ec4:	24000109 	.word	0x24000109

70008ec8 <MSC_BOT_Reset>:
70008ec8:	f8d0 32d4 	ldr.w	r3, [r0, #724]	@ 0x2d4
70008ecc:	33b0      	adds	r3, #176	@ 0xb0
70008ece:	b570      	push	{r4, r5, r6, lr}
70008ed0:	f850 5023 	ldr.w	r5, [r0, r3, lsl #2]
70008ed4:	4604      	mov	r4, r0
70008ed6:	b1a5      	cbz	r5, 70008f02 <MSC_BOT_Reset+0x3a>
70008ed8:	f44f 7380 	mov.w	r3, #256	@ 0x100
70008edc:	4e09      	ldr	r6, [pc, #36]	@ (70008f04 <MSC_BOT_Reset+0x3c>)
70008ede:	812b      	strh	r3, [r5, #8]
70008ee0:	4b09      	ldr	r3, [pc, #36]	@ (70008f08 <MSC_BOT_Reset+0x40>)
70008ee2:	7819      	ldrb	r1, [r3, #0]
70008ee4:	f7f7 fe10 	bl	70000b08 <USBD_LL_ClearStallEP>
70008ee8:	7831      	ldrb	r1, [r6, #0]
70008eea:	4620      	mov	r0, r4
70008eec:	f7f7 fe0c 	bl	70000b08 <USBD_LL_ClearStallEP>
70008ef0:	f505 7204 	add.w	r2, r5, #528	@ 0x210
70008ef4:	7831      	ldrb	r1, [r6, #0]
70008ef6:	4620      	mov	r0, r4
70008ef8:	231f      	movs	r3, #31
70008efa:	e8bd 4070 	ldmia.w	sp!, {r4, r5, r6, lr}
70008efe:	f7f7 be1e 	b.w	70000b3e <USBD_LL_PrepareReceive>
70008f02:	bd70      	pop	{r4, r5, r6, pc}
70008f04:	24000108 	.word	0x24000108
70008f08:	24000109 	.word	0x24000109

70008f0c <MSC_BOT_DeInit>:
70008f0c:	f8d0 32d4 	ldr.w	r3, [r0, #724]	@ 0x2d4
70008f10:	33b0      	adds	r3, #176	@ 0xb0
70008f12:	f850 3023 	ldr.w	r3, [r0, r3, lsl #2]
70008f16:	b10b      	cbz	r3, 70008f1c <MSC_BOT_DeInit+0x10>
70008f18:	2200      	movs	r2, #0
70008f1a:	721a      	strb	r2, [r3, #8]
70008f1c:	4770      	bx	lr
	...

70008f20 <MSC_BOT_SendCSW>:
70008f20:	f8d0 32d4 	ldr.w	r3, [r0, #724]	@ 0x2d4
70008f24:	33b0      	adds	r3, #176	@ 0xb0
70008f26:	b570      	push	{r4, r5, r6, lr}
70008f28:	f850 4023 	ldr.w	r4, [r0, r3, lsl #2]
70008f2c:	4605      	mov	r5, r0
70008f2e:	b1bc      	cbz	r4, 70008f60 <MSC_BOT_SendCSW+0x40>
70008f30:	4b0c      	ldr	r3, [pc, #48]	@ (70008f64 <MSC_BOT_SendCSW+0x44>)
70008f32:	f504 720c 	add.w	r2, r4, #560	@ 0x230
70008f36:	f884 123c 	strb.w	r1, [r4, #572]	@ 0x23c
70008f3a:	f8c4 3230 	str.w	r3, [r4, #560]	@ 0x230
70008f3e:	2300      	movs	r3, #0
70008f40:	4909      	ldr	r1, [pc, #36]	@ (70008f68 <MSC_BOT_SendCSW+0x48>)
70008f42:	7223      	strb	r3, [r4, #8]
70008f44:	230d      	movs	r3, #13
70008f46:	7809      	ldrb	r1, [r1, #0]
70008f48:	f7f7 fdf0 	bl	70000b2c <USBD_LL_Transmit>
70008f4c:	4907      	ldr	r1, [pc, #28]	@ (70008f6c <MSC_BOT_SendCSW+0x4c>)
70008f4e:	f504 7204 	add.w	r2, r4, #528	@ 0x210
70008f52:	4628      	mov	r0, r5
70008f54:	231f      	movs	r3, #31
70008f56:	7809      	ldrb	r1, [r1, #0]
70008f58:	e8bd 4070 	ldmia.w	sp!, {r4, r5, r6, lr}
70008f5c:	f7f7 bdef 	b.w	70000b3e <USBD_LL_PrepareReceive>
70008f60:	bd70      	pop	{r4, r5, r6, pc}
70008f62:	bf00      	nop
70008f64:	53425355 	.word	0x53425355
70008f68:	24000109 	.word	0x24000109
70008f6c:	24000108 	.word	0x24000108

70008f70 <MSC_BOT_DataIn>:
70008f70:	f8d0 32d4 	ldr.w	r3, [r0, #724]	@ 0x2d4
70008f74:	33b0      	adds	r3, #176	@ 0xb0
70008f76:	f850 3023 	ldr.w	r3, [r0, r3, lsl #2]
70008f7a:	b510      	push	{r4, lr}
70008f7c:	4604      	mov	r4, r0
70008f7e:	b1ab      	cbz	r3, 70008fac <MSC_BOT_DataIn+0x3c>
70008f80:	7a1a      	ldrb	r2, [r3, #8]
70008f82:	2a02      	cmp	r2, #2
70008f84:	d007      	beq.n	70008f96 <MSC_BOT_DataIn+0x26>
70008f86:	3a03      	subs	r2, #3
70008f88:	2a01      	cmp	r2, #1
70008f8a:	d80f      	bhi.n	70008fac <MSC_BOT_DataIn+0x3c>
70008f8c:	2100      	movs	r1, #0
70008f8e:	e8bd 4010 	ldmia.w	sp!, {r4, lr}
70008f92:	f7ff bfc5 	b.w	70008f20 <MSC_BOT_SendCSW>
70008f96:	f203 221f 	addw	r2, r3, #543	@ 0x21f
70008f9a:	f893 121d 	ldrb.w	r1, [r3, #541]	@ 0x21d
70008f9e:	f000 f98f 	bl	700092c0 <SCSI_ProcessCmd>
70008fa2:	2800      	cmp	r0, #0
70008fa4:	da02      	bge.n	70008fac <MSC_BOT_DataIn+0x3c>
70008fa6:	2101      	movs	r1, #1
70008fa8:	4620      	mov	r0, r4
70008faa:	e7f0      	b.n	70008f8e <MSC_BOT_DataIn+0x1e>
70008fac:	bd10      	pop	{r4, pc}
	...

70008fb0 <MSC_BOT_DataOut>:
70008fb0:	f8d0 32d4 	ldr.w	r3, [r0, #724]	@ 0x2d4
70008fb4:	33b0      	adds	r3, #176	@ 0xb0
70008fb6:	b570      	push	{r4, r5, r6, lr}
70008fb8:	f850 4023 	ldr.w	r4, [r0, r3, lsl #2]
70008fbc:	4605      	mov	r5, r0
70008fbe:	b11c      	cbz	r4, 70008fc8 <MSC_BOT_DataOut+0x18>
70008fc0:	7a23      	ldrb	r3, [r4, #8]
70008fc2:	b113      	cbz	r3, 70008fca <MSC_BOT_DataOut+0x1a>
70008fc4:	2b01      	cmp	r3, #1
70008fc6:	d05f      	beq.n	70009088 <MSC_BOT_DataOut+0xd8>
70008fc8:	bd70      	pop	{r4, r5, r6, pc}
70008fca:	f8d4 3214 	ldr.w	r3, [r4, #532]	@ 0x214
70008fce:	f8c4 3234 	str.w	r3, [r4, #564]	@ 0x234
70008fd2:	f8d4 3218 	ldr.w	r3, [r4, #536]	@ 0x218
70008fd6:	f8c4 3238 	str.w	r3, [r4, #568]	@ 0x238
70008fda:	4b30      	ldr	r3, [pc, #192]	@ (7000909c <MSC_BOT_DataOut+0xec>)
70008fdc:	7819      	ldrb	r1, [r3, #0]
70008fde:	f7f7 fd4b 	bl	70000a78 <USBD_LL_GetRxDataSize>
70008fe2:	281f      	cmp	r0, #31
70008fe4:	f894 121d 	ldrb.w	r1, [r4, #541]	@ 0x21d
70008fe8:	d10c      	bne.n	70009004 <MSC_BOT_DataOut+0x54>
70008fea:	f8d4 2210 	ldr.w	r2, [r4, #528]	@ 0x210
70008fee:	4b2c      	ldr	r3, [pc, #176]	@ (700090a0 <MSC_BOT_DataOut+0xf0>)
70008ff0:	429a      	cmp	r2, r3
70008ff2:	d107      	bne.n	70009004 <MSC_BOT_DataOut+0x54>
70008ff4:	6823      	ldr	r3, [r4, #0]
70008ff6:	4299      	cmp	r1, r3
70008ff8:	d804      	bhi.n	70009004 <MSC_BOT_DataOut+0x54>
70008ffa:	f894 321e 	ldrb.w	r3, [r4, #542]	@ 0x21e
70008ffe:	3b01      	subs	r3, #1
70009000:	2b0f      	cmp	r3, #15
70009002:	d90b      	bls.n	7000901c <MSC_BOT_DataOut+0x6c>
70009004:	2320      	movs	r3, #32
70009006:	2205      	movs	r2, #5
70009008:	4628      	mov	r0, r5
7000900a:	f000 fc3f 	bl	7000988c <SCSI_SenseCode>
7000900e:	2302      	movs	r3, #2
70009010:	7263      	strb	r3, [r4, #9]
70009012:	4628      	mov	r0, r5
70009014:	e8bd 4070 	ldmia.w	sp!, {r4, r5, r6, lr}
70009018:	f7ff befe 	b.w	70008e18 <MSC_BOT_Abort>
7000901c:	f204 221f 	addw	r2, r4, #543	@ 0x21f
70009020:	4628      	mov	r0, r5
70009022:	f000 f94d 	bl	700092c0 <SCSI_ProcessCmd>
70009026:	2800      	cmp	r0, #0
70009028:	7a23      	ldrb	r3, [r4, #8]
7000902a:	da07      	bge.n	7000903c <MSC_BOT_DataOut+0x8c>
7000902c:	2b05      	cmp	r3, #5
7000902e:	d1f0      	bne.n	70009012 <MSC_BOT_DataOut+0x62>
70009030:	2101      	movs	r1, #1
70009032:	4628      	mov	r0, r5
70009034:	e8bd 4070 	ldmia.w	sp!, {r4, r5, r6, lr}
70009038:	f7ff bf72 	b.w	70008f20 <MSC_BOT_SendCSW>
7000903c:	3b01      	subs	r3, #1
7000903e:	2b02      	cmp	r3, #2
70009040:	d9c2      	bls.n	70008fc8 <MSC_BOT_DataOut+0x18>
70009042:	68e1      	ldr	r1, [r4, #12]
70009044:	2900      	cmp	r1, #0
70009046:	d0f4      	beq.n	70009032 <MSC_BOT_DataOut+0x82>
70009048:	f8d5 32d4 	ldr.w	r3, [r5, #724]	@ 0x2d4
7000904c:	33b0      	adds	r3, #176	@ 0xb0
7000904e:	f855 2023 	ldr.w	r2, [r5, r3, lsl #2]
70009052:	2a00      	cmp	r2, #0
70009054:	d0b8      	beq.n	70008fc8 <MSC_BOT_DataOut+0x18>
70009056:	f8d2 0238 	ldr.w	r0, [r2, #568]	@ 0x238
7000905a:	f8d2 3218 	ldr.w	r3, [r2, #536]	@ 0x218
7000905e:	1a40      	subs	r0, r0, r1
70009060:	428b      	cmp	r3, r1
70009062:	f8c2 0238 	str.w	r0, [r2, #568]	@ 0x238
70009066:	f04f 0000 	mov.w	r0, #0
7000906a:	bf28      	it	cs
7000906c:	460b      	movcs	r3, r1
7000906e:	490d      	ldr	r1, [pc, #52]	@ (700090a4 <MSC_BOT_DataOut+0xf4>)
70009070:	f882 023c 	strb.w	r0, [r2, #572]	@ 0x23c
70009074:	2004      	movs	r0, #4
70009076:	7809      	ldrb	r1, [r1, #0]
70009078:	7210      	strb	r0, [r2, #8]
7000907a:	f104 0210 	add.w	r2, r4, #16
7000907e:	4628      	mov	r0, r5
70009080:	e8bd 4070 	ldmia.w	sp!, {r4, r5, r6, lr}
70009084:	f7f7 bd52 	b.w	70000b2c <USBD_LL_Transmit>
70009088:	f204 221f 	addw	r2, r4, #543	@ 0x21f
7000908c:	f894 121d 	ldrb.w	r1, [r4, #541]	@ 0x21d
70009090:	f000 f916 	bl	700092c0 <SCSI_ProcessCmd>
70009094:	2800      	cmp	r0, #0
70009096:	da97      	bge.n	70008fc8 <MSC_BOT_DataOut+0x18>
70009098:	e7ca      	b.n	70009030 <MSC_BOT_DataOut+0x80>
7000909a:	bf00      	nop
7000909c:	24000108 	.word	0x24000108
700090a0:	43425355 	.word	0x43425355
700090a4:	24000109 	.word	0x24000109

700090a8 <MSC_BOT_CplClrFeature>:
700090a8:	f8d0 32d4 	ldr.w	r3, [r0, #724]	@ 0x2d4
700090ac:	33b0      	adds	r3, #176	@ 0xb0
700090ae:	f850 3023 	ldr.w	r3, [r0, r3, lsl #2]
700090b2:	b510      	push	{r4, lr}
700090b4:	4604      	mov	r4, r0
700090b6:	b1b3      	cbz	r3, 700090e6 <MSC_BOT_CplClrFeature+0x3e>
700090b8:	7a5b      	ldrb	r3, [r3, #9]
700090ba:	2b02      	cmp	r3, #2
700090bc:	d10a      	bne.n	700090d4 <MSC_BOT_CplClrFeature+0x2c>
700090be:	4b0a      	ldr	r3, [pc, #40]	@ (700090e8 <MSC_BOT_CplClrFeature+0x40>)
700090c0:	7819      	ldrb	r1, [r3, #0]
700090c2:	f7f7 fd18 	bl	70000af6 <USBD_LL_StallEP>
700090c6:	4b09      	ldr	r3, [pc, #36]	@ (700090ec <MSC_BOT_CplClrFeature+0x44>)
700090c8:	4620      	mov	r0, r4
700090ca:	7819      	ldrb	r1, [r3, #0]
700090cc:	e8bd 4010 	ldmia.w	sp!, {r4, lr}
700090d0:	f7f7 bd11 	b.w	70000af6 <USBD_LL_StallEP>
700090d4:	060a      	lsls	r2, r1, #24
700090d6:	d506      	bpl.n	700090e6 <MSC_BOT_CplClrFeature+0x3e>
700090d8:	2b01      	cmp	r3, #1
700090da:	d004      	beq.n	700090e6 <MSC_BOT_CplClrFeature+0x3e>
700090dc:	2101      	movs	r1, #1
700090de:	e8bd 4010 	ldmia.w	sp!, {r4, lr}
700090e2:	f7ff bf1d 	b.w	70008f20 <MSC_BOT_SendCSW>
700090e6:	bd10      	pop	{r4, pc}
700090e8:	24000109 	.word	0x24000109
700090ec:	24000108 	.word	0x24000108

700090f0 <SCSI_SenseCode.constprop.0>:
700090f0:	f8d0 32d4 	ldr.w	r3, [r0, #724]	@ 0x2d4
700090f4:	33b0      	adds	r3, #176	@ 0xb0
700090f6:	f850 0023 	ldr.w	r0, [r0, r3, lsl #2]
700090fa:	b510      	push	{r4, lr}
700090fc:	b190      	cbz	r0, 70009124 <SCSI_SenseCode.constprop.0+0x34>
700090fe:	f890 3261 	ldrb.w	r3, [r0, #609]	@ 0x261
70009102:	eb00 04c3 	add.w	r4, r0, r3, lsl #3
70009106:	3301      	adds	r3, #1
70009108:	b2db      	uxtb	r3, r3
7000910a:	f884 2244 	strb.w	r2, [r4, #580]	@ 0x244
7000910e:	2200      	movs	r2, #0
70009110:	f884 1240 	strb.w	r1, [r4, #576]	@ 0x240
70009114:	2b04      	cmp	r3, #4
70009116:	f884 2245 	strb.w	r2, [r4, #581]	@ 0x245
7000911a:	bf14      	ite	ne
7000911c:	f880 3261 	strbne.w	r3, [r0, #609]	@ 0x261
70009120:	f880 2261 	strbeq.w	r2, [r0, #609]	@ 0x261
70009124:	bd10      	pop	{r4, pc}
	...

70009128 <SCSI_ProcessWrite>:
70009128:	e92d 43f8 	stmdb	sp!, {r3, r4, r5, r6, r7, r8, r9, lr}
7000912c:	4605      	mov	r5, r0
7000912e:	4608      	mov	r0, r1
70009130:	f8d5 22d4 	ldr.w	r2, [r5, #724]	@ 0x2d4
70009134:	eb05 0282 	add.w	r2, r5, r2, lsl #2
70009138:	f8d2 72c0 	ldr.w	r7, [r2, #704]	@ 0x2c0
7000913c:	b1ff      	cbz	r7, 7000917e <SCSI_ProcessWrite+0x56>
7000913e:	eb07 1401 	add.w	r4, r7, r1, lsl #4
70009142:	f8d2 22c4 	ldr.w	r2, [r2, #708]	@ 0x2c4
70009146:	f107 0810 	add.w	r8, r7, #16
7000914a:	f8b4 3264 	ldrh.w	r3, [r4, #612]	@ 0x264
7000914e:	f8d4 6270 	ldr.w	r6, [r4, #624]	@ 0x270
70009152:	4641      	mov	r1, r8
70009154:	f8d2 9014 	ldr.w	r9, [r2, #20]
70009158:	435e      	muls	r6, r3
7000915a:	f8d4 226c 	ldr.w	r2, [r4, #620]	@ 0x26c
7000915e:	f5b6 7f00 	cmp.w	r6, #512	@ 0x200
70009162:	bf28      	it	cs
70009164:	f44f 7600 	movcs.w	r6, #512	@ 0x200
70009168:	fbb6 f3f3 	udiv	r3, r6, r3
7000916c:	b29b      	uxth	r3, r3
7000916e:	47c8      	blx	r9
70009170:	2800      	cmp	r0, #0
70009172:	da07      	bge.n	70009184 <SCSI_ProcessWrite+0x5c>
70009174:	2203      	movs	r2, #3
70009176:	2104      	movs	r1, #4
70009178:	4628      	mov	r0, r5
7000917a:	f7ff ffb9 	bl	700090f0 <SCSI_SenseCode.constprop.0>
7000917e:	f04f 30ff 	mov.w	r0, #4294967295	@ 0xffffffff
70009182:	e017      	b.n	700091b4 <SCSI_ProcessWrite+0x8c>
70009184:	f8b4 3264 	ldrh.w	r3, [r4, #612]	@ 0x264
70009188:	f8d4 226c 	ldr.w	r2, [r4, #620]	@ 0x26c
7000918c:	fbb6 f1f3 	udiv	r1, r6, r3
70009190:	440a      	add	r2, r1
70009192:	f8c4 226c 	str.w	r2, [r4, #620]	@ 0x26c
70009196:	f8d4 2270 	ldr.w	r2, [r4, #624]	@ 0x270
7000919a:	1a51      	subs	r1, r2, r1
7000919c:	f8c4 1270 	str.w	r1, [r4, #624]	@ 0x270
700091a0:	f8d7 2238 	ldr.w	r2, [r7, #568]	@ 0x238
700091a4:	1b92      	subs	r2, r2, r6
700091a6:	f8c7 2238 	str.w	r2, [r7, #568]	@ 0x238
700091aa:	b929      	cbnz	r1, 700091b8 <SCSI_ProcessWrite+0x90>
700091ac:	4628      	mov	r0, r5
700091ae:	f7ff feb7 	bl	70008f20 <MSC_BOT_SendCSW>
700091b2:	2000      	movs	r0, #0
700091b4:	e8bd 83f8 	ldmia.w	sp!, {r3, r4, r5, r6, r7, r8, r9, pc}
700091b8:	434b      	muls	r3, r1
700091ba:	4906      	ldr	r1, [pc, #24]	@ (700091d4 <SCSI_ProcessWrite+0xac>)
700091bc:	4642      	mov	r2, r8
700091be:	4628      	mov	r0, r5
700091c0:	f5b3 7f00 	cmp.w	r3, #512	@ 0x200
700091c4:	7809      	ldrb	r1, [r1, #0]
700091c6:	bf28      	it	cs
700091c8:	f44f 7300 	movcs.w	r3, #512	@ 0x200
700091cc:	f7f7 fcb7 	bl	70000b3e <USBD_LL_PrepareReceive>
700091d0:	e7ef      	b.n	700091b2 <SCSI_ProcessWrite+0x8a>
700091d2:	bf00      	nop
700091d4:	24000108 	.word	0x24000108

700091d8 <SCSI_ProcessRead>:
700091d8:	e92d 43f8 	stmdb	sp!, {r3, r4, r5, r6, r7, r8, r9, lr}
700091dc:	4607      	mov	r7, r0
700091de:	4608      	mov	r0, r1
700091e0:	f8d7 22d4 	ldr.w	r2, [r7, #724]	@ 0x2d4
700091e4:	eb07 0282 	add.w	r2, r7, r2, lsl #2
700091e8:	f8d2 62c0 	ldr.w	r6, [r2, #704]	@ 0x2c0
700091ec:	b1fe      	cbz	r6, 7000922e <SCSI_ProcessRead+0x56>
700091ee:	eb06 1501 	add.w	r5, r6, r1, lsl #4
700091f2:	f8d2 22c4 	ldr.w	r2, [r2, #708]	@ 0x2c4
700091f6:	f106 0810 	add.w	r8, r6, #16
700091fa:	f8b5 3264 	ldrh.w	r3, [r5, #612]	@ 0x264
700091fe:	f8d5 4270 	ldr.w	r4, [r5, #624]	@ 0x270
70009202:	4641      	mov	r1, r8
70009204:	f8d2 9010 	ldr.w	r9, [r2, #16]
70009208:	435c      	muls	r4, r3
7000920a:	f8d5 226c 	ldr.w	r2, [r5, #620]	@ 0x26c
7000920e:	f5b4 7f00 	cmp.w	r4, #512	@ 0x200
70009212:	bf28      	it	cs
70009214:	f44f 7400 	movcs.w	r4, #512	@ 0x200
70009218:	fbb4 f3f3 	udiv	r3, r4, r3
7000921c:	b29b      	uxth	r3, r3
7000921e:	47c8      	blx	r9
70009220:	2800      	cmp	r0, #0
70009222:	da07      	bge.n	70009234 <SCSI_ProcessRead+0x5c>
70009224:	2211      	movs	r2, #17
70009226:	2104      	movs	r1, #4
70009228:	4638      	mov	r0, r7
7000922a:	f7ff ff61 	bl	700090f0 <SCSI_SenseCode.constprop.0>
7000922e:	f04f 30ff 	mov.w	r0, #4294967295	@ 0xffffffff
70009232:	e01b      	b.n	7000926c <SCSI_ProcessRead+0x94>
70009234:	4910      	ldr	r1, [pc, #64]	@ (70009278 <SCSI_ProcessRead+0xa0>)
70009236:	4623      	mov	r3, r4
70009238:	4642      	mov	r2, r8
7000923a:	4638      	mov	r0, r7
7000923c:	7809      	ldrb	r1, [r1, #0]
7000923e:	f7f7 fc75 	bl	70000b2c <USBD_LL_Transmit>
70009242:	f8b5 2264 	ldrh.w	r2, [r5, #612]	@ 0x264
70009246:	f8d5 326c 	ldr.w	r3, [r5, #620]	@ 0x26c
7000924a:	fbb4 f2f2 	udiv	r2, r4, r2
7000924e:	4413      	add	r3, r2
70009250:	f8c5 326c 	str.w	r3, [r5, #620]	@ 0x26c
70009254:	f8d5 3270 	ldr.w	r3, [r5, #624]	@ 0x270
70009258:	1a9b      	subs	r3, r3, r2
7000925a:	f8c5 3270 	str.w	r3, [r5, #624]	@ 0x270
7000925e:	f8d6 2238 	ldr.w	r2, [r6, #568]	@ 0x238
70009262:	1b12      	subs	r2, r2, r4
70009264:	f8c6 2238 	str.w	r2, [r6, #568]	@ 0x238
70009268:	b113      	cbz	r3, 70009270 <SCSI_ProcessRead+0x98>
7000926a:	2000      	movs	r0, #0
7000926c:	e8bd 83f8 	ldmia.w	sp!, {r3, r4, r5, r6, r7, r8, r9, pc}
70009270:	2303      	movs	r3, #3
70009272:	7233      	strb	r3, [r6, #8]
70009274:	e7f9      	b.n	7000926a <SCSI_ProcessRead+0x92>
70009276:	bf00      	nop
70009278:	24000109 	.word	0x24000109

7000927c <SCSI_CheckAddressRange>:
7000927c:	b538      	push	{r3, r4, r5, lr}
7000927e:	f8d0 52d4 	ldr.w	r5, [r0, #724]	@ 0x2d4
70009282:	35b0      	adds	r5, #176	@ 0xb0
70009284:	f850 4025 	ldr.w	r4, [r0, r5, lsl #2]
70009288:	b154      	cbz	r4, 700092a0 <SCSI_CheckAddressRange+0x24>
7000928a:	eb04 1401 	add.w	r4, r4, r1, lsl #4
7000928e:	441a      	add	r2, r3
70009290:	f8d4 3268 	ldr.w	r3, [r4, #616]	@ 0x268
70009294:	429a      	cmp	r2, r3
70009296:	d906      	bls.n	700092a6 <SCSI_CheckAddressRange+0x2a>
70009298:	2221      	movs	r2, #33	@ 0x21
7000929a:	2105      	movs	r1, #5
7000929c:	f7ff ff28 	bl	700090f0 <SCSI_SenseCode.constprop.0>
700092a0:	f04f 30ff 	mov.w	r0, #4294967295	@ 0xffffffff
700092a4:	bd38      	pop	{r3, r4, r5, pc}
700092a6:	2000      	movs	r0, #0
700092a8:	e7fc      	b.n	700092a4 <SCSI_CheckAddressRange+0x28>

700092aa <SCSI_UpdateBotData.isra.0>:
700092aa:	b510      	push	{r4, lr}
700092ac:	b108      	cbz	r0, 700092b2 <SCSI_UpdateBotData.isra.0+0x8>
700092ae:	60c2      	str	r2, [r0, #12]
700092b0:	b902      	cbnz	r2, 700092b4 <SCSI_UpdateBotData.isra.0+0xa>
700092b2:	bd10      	pop	{r4, pc}
700092b4:	3a01      	subs	r2, #1
700092b6:	b292      	uxth	r2, r2
700092b8:	5c8c      	ldrb	r4, [r1, r2]
700092ba:	1883      	adds	r3, r0, r2
700092bc:	741c      	strb	r4, [r3, #16]
700092be:	e7f7      	b.n	700092b0 <SCSI_UpdateBotData.isra.0+0x6>

700092c0 <SCSI_ProcessCmd>:
700092c0:	f8d0 32d4 	ldr.w	r3, [r0, #724]	@ 0x2d4
700092c4:	eb00 0383 	add.w	r3, r0, r3, lsl #2
700092c8:	e92d 41f3 	stmdb	sp!, {r0, r1, r4, r5, r6, r7, r8, lr}
700092cc:	f8d3 42c0 	ldr.w	r4, [r3, #704]	@ 0x2c0
700092d0:	4606      	mov	r6, r0
700092d2:	460d      	mov	r5, r1
700092d4:	4617      	mov	r7, r2
700092d6:	2c00      	cmp	r4, #0
700092d8:	f000 80c3 	beq.w	70009462 <SCSI_ProcessCmd+0x1a2>
700092dc:	7812      	ldrb	r2, [r2, #0]
700092de:	2a2f      	cmp	r2, #47	@ 0x2f
700092e0:	d84c      	bhi.n	7000937c <SCSI_ProcessCmd+0xbc>
700092e2:	2a11      	cmp	r2, #17
700092e4:	d807      	bhi.n	700092f6 <SCSI_ProcessCmd+0x36>
700092e6:	2a00      	cmp	r2, #0
700092e8:	f000 80ad 	beq.w	70009446 <SCSI_ProcessCmd+0x186>
700092ec:	2a03      	cmp	r2, #3
700092ee:	f000 80ca 	beq.w	70009486 <SCSI_ProcessCmd+0x1c6>
700092f2:	2220      	movs	r2, #32
700092f4:	e122      	b.n	7000953c <SCSI_ProcessCmd+0x27c>
700092f6:	3a12      	subs	r2, #18
700092f8:	2a1d      	cmp	r2, #29
700092fa:	d8fa      	bhi.n	700092f2 <SCSI_ProcessCmd+0x32>
700092fc:	a101      	add	r1, pc, #4	@ (adr r1, 70009304 <SCSI_ProcessCmd+0x44>)
700092fe:	f851 f022 	ldr.w	pc, [r1, r2, lsl #2]
70009302:	bf00      	nop
70009304:	700094e3 	.word	0x700094e3
70009308:	700092f3 	.word	0x700092f3
7000930c:	700092f3 	.word	0x700092f3
70009310:	700092f3 	.word	0x700092f3
70009314:	700092f3 	.word	0x700092f3
70009318:	700092f3 	.word	0x700092f3
7000931c:	700092f3 	.word	0x700092f3
70009320:	700092f3 	.word	0x700092f3
70009324:	7000955f 	.word	0x7000955f
70009328:	70009527 	.word	0x70009527
7000932c:	7000985d 	.word	0x7000985d
70009330:	700092f3 	.word	0x700092f3
70009334:	70009555 	.word	0x70009555
70009338:	700092f3 	.word	0x700092f3
7000933c:	700092f3 	.word	0x700092f3
70009340:	700092f3 	.word	0x700092f3
70009344:	700092f3 	.word	0x700092f3
70009348:	700095b3 	.word	0x700095b3
7000934c:	700092f3 	.word	0x700092f3
70009350:	70009605 	.word	0x70009605
70009354:	700092f3 	.word	0x700092f3
70009358:	700092f3 	.word	0x700092f3
7000935c:	70009653 	.word	0x70009653
70009360:	700092f3 	.word	0x700092f3
70009364:	70009723 	.word	0x70009723
70009368:	700092f3 	.word	0x700092f3
7000936c:	700092f3 	.word	0x700092f3
70009370:	700092f3 	.word	0x700092f3
70009374:	700092f3 	.word	0x700092f3
70009378:	700097f9 	.word	0x700097f9
7000937c:	2aa0      	cmp	r2, #160	@ 0xa0
7000937e:	f000 824c 	beq.w	7000981a <SCSI_ProcessCmd+0x55a>
70009382:	d838      	bhi.n	700093f6 <SCSI_ProcessCmd+0x136>
70009384:	2a5a      	cmp	r2, #90	@ 0x5a
70009386:	f000 8100 	beq.w	7000958a <SCSI_ProcessCmd+0x2ca>
7000938a:	2a9e      	cmp	r2, #158	@ 0x9e
7000938c:	d1b1      	bne.n	700092f2 <SCSI_ProcessCmd+0x32>
7000938e:	ea4f 1801 	mov.w	r8, r1, lsl #4
70009392:	f8d3 32c4 	ldr.w	r3, [r3, #708]	@ 0x2c4
70009396:	4628      	mov	r0, r5
70009398:	f508 7219 	add.w	r2, r8, #612	@ 0x264
7000939c:	f508 711a 	add.w	r1, r8, #616	@ 0x268
700093a0:	685b      	ldr	r3, [r3, #4]
700093a2:	4422      	add	r2, r4
700093a4:	4421      	add	r1, r4
700093a6:	4798      	blx	r3
700093a8:	2800      	cmp	r0, #0
700093aa:	f040 810f 	bne.w	700095cc <SCSI_ProcessCmd+0x30c>
700093ae:	f894 3262 	ldrb.w	r3, [r4, #610]	@ 0x262
700093b2:	2b02      	cmp	r3, #2
700093b4:	f000 810a 	beq.w	700095cc <SCSI_ProcessCmd+0x30c>
700093b8:	f8d7 300a 	ldr.w	r3, [r7, #10]
700093bc:	f104 020f 	add.w	r2, r4, #15
700093c0:	ba1b      	rev	r3, r3
700093c2:	60e3      	str	r3, [r4, #12]
700093c4:	4413      	add	r3, r2
700093c6:	429a      	cmp	r2, r3
700093c8:	f040 8140 	bne.w	7000964c <SCSI_ProcessCmd+0x38c>
700093cc:	44a0      	add	r8, r4
700093ce:	f8d8 3268 	ldr.w	r3, [r8, #616]	@ 0x268
700093d2:	3b01      	subs	r3, #1
700093d4:	0e1a      	lsrs	r2, r3, #24
700093d6:	75e3      	strb	r3, [r4, #23]
700093d8:	7522      	strb	r2, [r4, #20]
700093da:	0c1a      	lsrs	r2, r3, #16
700093dc:	7562      	strb	r2, [r4, #21]
700093de:	0a1a      	lsrs	r2, r3, #8
700093e0:	2300      	movs	r3, #0
700093e2:	75a2      	strb	r2, [r4, #22]
700093e4:	8323      	strh	r3, [r4, #24]
700093e6:	f8b8 3264 	ldrh.w	r3, [r8, #612]	@ 0x264
700093ea:	ba5b      	rev16	r3, r3
700093ec:	8363      	strh	r3, [r4, #26]
700093ee:	f8d7 300a 	ldr.w	r3, [r7, #10]
700093f2:	ba1b      	rev	r3, r3
700093f4:	e073      	b.n	700094de <SCSI_ProcessCmd+0x21e>
700093f6:	2aa8      	cmp	r2, #168	@ 0xa8
700093f8:	f000 8167 	beq.w	700096ca <SCSI_ProcessCmd+0x40a>
700093fc:	2aaa      	cmp	r2, #170	@ 0xaa
700093fe:	f47f af78 	bne.w	700092f2 <SCSI_ProcessCmd+0x32>
70009402:	7a22      	ldrb	r2, [r4, #8]
70009404:	2a00      	cmp	r2, #0
70009406:	f040 81da 	bne.w	700097be <SCSI_ProcessCmd+0x4fe>
7000940a:	f8d4 2218 	ldr.w	r2, [r4, #536]	@ 0x218
7000940e:	2a00      	cmp	r2, #0
70009410:	f43f af6f 	beq.w	700092f2 <SCSI_ProcessCmd+0x32>
70009414:	f994 221c 	ldrsb.w	r2, [r4, #540]	@ 0x21c
70009418:	2a00      	cmp	r2, #0
7000941a:	f6ff af6a 	blt.w	700092f2 <SCSI_ProcessCmd+0x32>
7000941e:	f8d3 32c4 	ldr.w	r3, [r3, #708]	@ 0x2c4
70009422:	4608      	mov	r0, r1
70009424:	689b      	ldr	r3, [r3, #8]
70009426:	4798      	blx	r3
70009428:	bb20      	cbnz	r0, 70009474 <SCSI_ProcessCmd+0x1b4>
7000942a:	f8d6 32d4 	ldr.w	r3, [r6, #724]	@ 0x2d4
7000942e:	4628      	mov	r0, r5
70009430:	eb06 0383 	add.w	r3, r6, r3, lsl #2
70009434:	f8d3 32c4 	ldr.w	r3, [r3, #708]	@ 0x2c4
70009438:	68db      	ldr	r3, [r3, #12]
7000943a:	4798      	blx	r3
7000943c:	2800      	cmp	r0, #0
7000943e:	f000 81c5 	beq.w	700097cc <SCSI_ProcessCmd+0x50c>
70009442:	2227      	movs	r2, #39	@ 0x27
70009444:	e017      	b.n	70009476 <SCSI_ProcessCmd+0x1b6>
70009446:	f8d4 2218 	ldr.w	r2, [r4, #536]	@ 0x218
7000944a:	2a00      	cmp	r2, #0
7000944c:	f47f af51 	bne.w	700092f2 <SCSI_ProcessCmd+0x32>
70009450:	f894 1262 	ldrb.w	r1, [r4, #610]	@ 0x262
70009454:	2902      	cmp	r1, #2
70009456:	d107      	bne.n	70009468 <SCSI_ProcessCmd+0x1a8>
70009458:	223a      	movs	r2, #58	@ 0x3a
7000945a:	f7ff fe49 	bl	700090f0 <SCSI_SenseCode.constprop.0>
7000945e:	2305      	movs	r3, #5
70009460:	7223      	strb	r3, [r4, #8]
70009462:	f04f 30ff 	mov.w	r0, #4294967295	@ 0xffffffff
70009466:	e00b      	b.n	70009480 <SCSI_ProcessCmd+0x1c0>
70009468:	f8d3 32c4 	ldr.w	r3, [r3, #708]	@ 0x2c4
7000946c:	4628      	mov	r0, r5
7000946e:	689b      	ldr	r3, [r3, #8]
70009470:	4798      	blx	r3
70009472:	b118      	cbz	r0, 7000947c <SCSI_ProcessCmd+0x1bc>
70009474:	223a      	movs	r2, #58	@ 0x3a
70009476:	2102      	movs	r1, #2
70009478:	4630      	mov	r0, r6
7000947a:	e7ee      	b.n	7000945a <SCSI_ProcessCmd+0x19a>
7000947c:	60e0      	str	r0, [r4, #12]
7000947e:	2000      	movs	r0, #0
70009480:	b002      	add	sp, #8
70009482:	e8bd 81f0 	ldmia.w	sp!, {r4, r5, r6, r7, r8, pc}
70009486:	f8d4 3218 	ldr.w	r3, [r4, #536]	@ 0x218
7000948a:	2b00      	cmp	r3, #0
7000948c:	f43f af31 	beq.w	700092f2 <SCSI_ProcessCmd+0x32>
70009490:	2211      	movs	r2, #17
70009492:	2100      	movs	r1, #0
70009494:	18a0      	adds	r0, r4, r2
70009496:	f000 facb 	bl	70009a30 <memset>
7000949a:	2370      	movs	r3, #112	@ 0x70
7000949c:	f894 2261 	ldrb.w	r2, [r4, #609]	@ 0x261
700094a0:	7423      	strb	r3, [r4, #16]
700094a2:	230c      	movs	r3, #12
700094a4:	75e3      	strb	r3, [r4, #23]
700094a6:	f894 3260 	ldrb.w	r3, [r4, #608]	@ 0x260
700094aa:	429a      	cmp	r2, r3
700094ac:	d011      	beq.n	700094d2 <SCSI_ProcessCmd+0x212>
700094ae:	eb04 02c3 	add.w	r2, r4, r3, lsl #3
700094b2:	3301      	adds	r3, #1
700094b4:	f892 1240 	ldrb.w	r1, [r2, #576]	@ 0x240
700094b8:	b2db      	uxtb	r3, r3
700094ba:	74a1      	strb	r1, [r4, #18]
700094bc:	2b04      	cmp	r3, #4
700094be:	f892 1244 	ldrb.w	r1, [r2, #580]	@ 0x244
700094c2:	bf08      	it	eq
700094c4:	2300      	moveq	r3, #0
700094c6:	7721      	strb	r1, [r4, #28]
700094c8:	f892 2245 	ldrb.w	r2, [r2, #581]	@ 0x245
700094cc:	f884 3260 	strb.w	r3, [r4, #608]	@ 0x260
700094d0:	7762      	strb	r2, [r4, #29]
700094d2:	2312      	movs	r3, #18
700094d4:	60e3      	str	r3, [r4, #12]
700094d6:	793a      	ldrb	r2, [r7, #4]
700094d8:	429a      	cmp	r2, r3
700094da:	bf98      	it	ls
700094dc:	4613      	movls	r3, r2
700094de:	60e3      	str	r3, [r4, #12]
700094e0:	e7cd      	b.n	7000947e <SCSI_ProcessCmd+0x1be>
700094e2:	f8d4 2218 	ldr.w	r2, [r4, #536]	@ 0x218
700094e6:	2a00      	cmp	r2, #0
700094e8:	f43f af03 	beq.w	700092f2 <SCSI_ProcessCmd+0x32>
700094ec:	787a      	ldrb	r2, [r7, #1]
700094ee:	07d2      	lsls	r2, r2, #31
700094f0:	d50c      	bpl.n	7000950c <SCSI_ProcessCmd+0x24c>
700094f2:	78bb      	ldrb	r3, [r7, #2]
700094f4:	b92b      	cbnz	r3, 70009502 <SCSI_ProcessCmd+0x242>
700094f6:	2206      	movs	r2, #6
700094f8:	49ba      	ldr	r1, [pc, #744]	@ (700097e4 <SCSI_ProcessCmd+0x524>)
700094fa:	4620      	mov	r0, r4
700094fc:	f7ff fed5 	bl	700092aa <SCSI_UpdateBotData.isra.0>
70009500:	e7bd      	b.n	7000947e <SCSI_ProcessCmd+0x1be>
70009502:	2b80      	cmp	r3, #128	@ 0x80
70009504:	d119      	bne.n	7000953a <SCSI_ProcessCmd+0x27a>
70009506:	2208      	movs	r2, #8
70009508:	49b7      	ldr	r1, [pc, #732]	@ (700097e8 <SCSI_ProcessCmd+0x528>)
7000950a:	e7f6      	b.n	700094fa <SCSI_ProcessCmd+0x23a>
7000950c:	f8d3 32c4 	ldr.w	r3, [r3, #708]	@ 0x2c4
70009510:	793a      	ldrb	r2, [r7, #4]
70009512:	69d9      	ldr	r1, [r3, #28]
70009514:	2324      	movs	r3, #36	@ 0x24
70009516:	fb03 1105 	mla	r1, r3, r5, r1
7000951a:	790b      	ldrb	r3, [r1, #4]
7000951c:	3305      	adds	r3, #5
7000951e:	429a      	cmp	r2, r3
70009520:	bf28      	it	cs
70009522:	461a      	movcs	r2, r3
70009524:	e7e9      	b.n	700094fa <SCSI_ProcessCmd+0x23a>
70009526:	f894 2262 	ldrb.w	r2, [r4, #610]	@ 0x262
7000952a:	793b      	ldrb	r3, [r7, #4]
7000952c:	2a01      	cmp	r2, #1
7000952e:	f003 0303 	and.w	r3, r3, #3
70009532:	d105      	bne.n	70009540 <SCSI_ProcessCmd+0x280>
70009534:	2b02      	cmp	r3, #2
70009536:	f040 819d 	bne.w	70009874 <SCSI_ProcessCmd+0x5b4>
7000953a:	2224      	movs	r2, #36	@ 0x24
7000953c:	2105      	movs	r1, #5
7000953e:	e047      	b.n	700095d0 <SCSI_ProcessCmd+0x310>
70009540:	2b01      	cmp	r3, #1
70009542:	d101      	bne.n	70009548 <SCSI_ProcessCmd+0x288>
70009544:	2300      	movs	r3, #0
70009546:	e002      	b.n	7000954e <SCSI_ProcessCmd+0x28e>
70009548:	2b02      	cmp	r3, #2
7000954a:	f040 8196 	bne.w	7000987a <SCSI_ProcessCmd+0x5ba>
7000954e:	f884 3262 	strb.w	r3, [r4, #610]	@ 0x262
70009552:	e195      	b.n	70009880 <SCSI_ProcessCmd+0x5c0>
70009554:	793b      	ldrb	r3, [r7, #4]
70009556:	3b00      	subs	r3, #0
70009558:	bf18      	it	ne
7000955a:	2301      	movne	r3, #1
7000955c:	e7f7      	b.n	7000954e <SCSI_ProcessCmd+0x28e>
7000955e:	f8d3 32c4 	ldr.w	r3, [r3, #708]	@ 0x2c4
70009562:	4628      	mov	r0, r5
70009564:	68db      	ldr	r3, [r3, #12]
70009566:	4798      	blx	r3
70009568:	b150      	cbz	r0, 70009580 <SCSI_ProcessCmd+0x2c0>
7000956a:	4aa0      	ldr	r2, [pc, #640]	@ (700097ec <SCSI_ProcessCmd+0x52c>)
7000956c:	7893      	ldrb	r3, [r2, #2]
7000956e:	f063 037f 	orn	r3, r3, #127	@ 0x7f
70009572:	7093      	strb	r3, [r2, #2]
70009574:	793a      	ldrb	r2, [r7, #4]
70009576:	499d      	ldr	r1, [pc, #628]	@ (700097ec <SCSI_ProcessCmd+0x52c>)
70009578:	2a04      	cmp	r2, #4
7000957a:	bf28      	it	cs
7000957c:	2204      	movcs	r2, #4
7000957e:	e7bc      	b.n	700094fa <SCSI_ProcessCmd+0x23a>
70009580:	4a9b      	ldr	r2, [pc, #620]	@ (700097f0 <SCSI_ProcessCmd+0x530>)
70009582:	7893      	ldrb	r3, [r2, #2]
70009584:	f003 037f 	and.w	r3, r3, #127	@ 0x7f
70009588:	e7f3      	b.n	70009572 <SCSI_ProcessCmd+0x2b2>
7000958a:	f8d3 32c4 	ldr.w	r3, [r3, #708]	@ 0x2c4
7000958e:	4608      	mov	r0, r1
70009590:	68db      	ldr	r3, [r3, #12]
70009592:	4798      	blx	r3
70009594:	4a96      	ldr	r2, [pc, #600]	@ (700097f0 <SCSI_ProcessCmd+0x530>)
70009596:	78d3      	ldrb	r3, [r2, #3]
70009598:	b140      	cbz	r0, 700095ac <SCSI_ProcessCmd+0x2ec>
7000959a:	f043 0380 	orr.w	r3, r3, #128	@ 0x80
7000959e:	70d3      	strb	r3, [r2, #3]
700095a0:	7a3a      	ldrb	r2, [r7, #8]
700095a2:	4993      	ldr	r1, [pc, #588]	@ (700097f0 <SCSI_ProcessCmd+0x530>)
700095a4:	2a08      	cmp	r2, #8
700095a6:	bf28      	it	cs
700095a8:	2208      	movcs	r2, #8
700095aa:	e7a6      	b.n	700094fa <SCSI_ProcessCmd+0x23a>
700095ac:	f003 037f 	and.w	r3, r3, #127	@ 0x7f
700095b0:	e7f5      	b.n	7000959e <SCSI_ProcessCmd+0x2de>
700095b2:	f8d3 32c4 	ldr.w	r3, [r3, #708]	@ 0x2c4
700095b6:	f10d 0202 	add.w	r2, sp, #2
700095ba:	a901      	add	r1, sp, #4
700095bc:	4628      	mov	r0, r5
700095be:	685b      	ldr	r3, [r3, #4]
700095c0:	4798      	blx	r3
700095c2:	b918      	cbnz	r0, 700095cc <SCSI_ProcessCmd+0x30c>
700095c4:	f894 3262 	ldrb.w	r3, [r4, #610]	@ 0x262
700095c8:	2b02      	cmp	r3, #2
700095ca:	d105      	bne.n	700095d8 <SCSI_ProcessCmd+0x318>
700095cc:	223a      	movs	r2, #58	@ 0x3a
700095ce:	2102      	movs	r1, #2
700095d0:	4630      	mov	r0, r6
700095d2:	f7ff fd8d 	bl	700090f0 <SCSI_SenseCode.constprop.0>
700095d6:	e744      	b.n	70009462 <SCSI_ProcessCmd+0x1a2>
700095d8:	2308      	movs	r3, #8
700095da:	6120      	str	r0, [r4, #16]
700095dc:	61a0      	str	r0, [r4, #24]
700095de:	74e3      	strb	r3, [r4, #19]
700095e0:	9b01      	ldr	r3, [sp, #4]
700095e2:	3b01      	subs	r3, #1
700095e4:	0e1a      	lsrs	r2, r3, #24
700095e6:	75e3      	strb	r3, [r4, #23]
700095e8:	7522      	strb	r2, [r4, #20]
700095ea:	0c1a      	lsrs	r2, r3, #16
700095ec:	7562      	strb	r2, [r4, #21]
700095ee:	0a1a      	lsrs	r2, r3, #8
700095f0:	2302      	movs	r3, #2
700095f2:	75a2      	strb	r2, [r4, #22]
700095f4:	7623      	strb	r3, [r4, #24]
700095f6:	f8bd 3002 	ldrh.w	r3, [sp, #2]
700095fa:	ba5b      	rev16	r3, r3
700095fc:	8363      	strh	r3, [r4, #26]
700095fe:	230c      	movs	r3, #12
70009600:	60e3      	str	r3, [r4, #12]
70009602:	e73d      	b.n	70009480 <SCSI_ProcessCmd+0x1c0>
70009604:	012f      	lsls	r7, r5, #4
70009606:	f8d3 32c4 	ldr.w	r3, [r3, #708]	@ 0x2c4
7000960a:	4628      	mov	r0, r5
7000960c:	f507 7219 	add.w	r2, r7, #612	@ 0x264
70009610:	f507 711a 	add.w	r1, r7, #616	@ 0x268
70009614:	685b      	ldr	r3, [r3, #4]
70009616:	4422      	add	r2, r4
70009618:	4421      	add	r1, r4
7000961a:	4798      	blx	r3
7000961c:	2800      	cmp	r0, #0
7000961e:	d1d5      	bne.n	700095cc <SCSI_ProcessCmd+0x30c>
70009620:	f894 3262 	ldrb.w	r3, [r4, #610]	@ 0x262
70009624:	2b02      	cmp	r3, #2
70009626:	d0d1      	beq.n	700095cc <SCSI_ProcessCmd+0x30c>
70009628:	4427      	add	r7, r4
7000962a:	f8d7 3268 	ldr.w	r3, [r7, #616]	@ 0x268
7000962e:	82a0      	strh	r0, [r4, #20]
70009630:	3b01      	subs	r3, #1
70009632:	0e1a      	lsrs	r2, r3, #24
70009634:	74e3      	strb	r3, [r4, #19]
70009636:	7422      	strb	r2, [r4, #16]
70009638:	0c1a      	lsrs	r2, r3, #16
7000963a:	7462      	strb	r2, [r4, #17]
7000963c:	0a1a      	lsrs	r2, r3, #8
7000963e:	74a2      	strb	r2, [r4, #18]
70009640:	f8b7 3264 	ldrh.w	r3, [r7, #612]	@ 0x264
70009644:	ba5b      	rev16	r3, r3
70009646:	82e3      	strh	r3, [r4, #22]
70009648:	2308      	movs	r3, #8
7000964a:	e748      	b.n	700094de <SCSI_ProcessCmd+0x21e>
7000964c:	f802 0f01 	strb.w	r0, [r2, #1]!
70009650:	e6b9      	b.n	700093c6 <SCSI_ProcessCmd+0x106>
70009652:	7a22      	ldrb	r2, [r4, #8]
70009654:	bb7a      	cbnz	r2, 700096b6 <SCSI_ProcessCmd+0x3f6>
70009656:	f994 221c 	ldrsb.w	r2, [r4, #540]	@ 0x21c
7000965a:	2a00      	cmp	r2, #0
7000965c:	f6bf ae49 	bge.w	700092f2 <SCSI_ProcessCmd+0x32>
70009660:	f894 2262 	ldrb.w	r2, [r4, #610]	@ 0x262
70009664:	2a02      	cmp	r2, #2
70009666:	d0b1      	beq.n	700095cc <SCSI_ProcessCmd+0x30c>
70009668:	f8d3 32c4 	ldr.w	r3, [r3, #708]	@ 0x2c4
7000966c:	4628      	mov	r0, r5
7000966e:	689b      	ldr	r3, [r3, #8]
70009670:	4798      	blx	r3
70009672:	2800      	cmp	r0, #0
70009674:	d1aa      	bne.n	700095cc <SCSI_ProcessCmd+0x30c>
70009676:	f8d7 2002 	ldr.w	r2, [r7, #2]
7000967a:	eb04 1805 	add.w	r8, r4, r5, lsl #4
7000967e:	4629      	mov	r1, r5
70009680:	4630      	mov	r0, r6
70009682:	ba12      	rev	r2, r2
70009684:	f8c8 226c 	str.w	r2, [r8, #620]	@ 0x26c
70009688:	f8b7 3007 	ldrh.w	r3, [r7, #7]
7000968c:	ba5b      	rev16	r3, r3
7000968e:	b29b      	uxth	r3, r3
70009690:	f8c8 3270 	str.w	r3, [r8, #624]	@ 0x270
70009694:	f7ff fdf2 	bl	7000927c <SCSI_CheckAddressRange>
70009698:	3001      	adds	r0, #1
7000969a:	f43f aee2 	beq.w	70009462 <SCSI_ProcessCmd+0x1a2>
7000969e:	f8d8 2270 	ldr.w	r2, [r8, #624]	@ 0x270
700096a2:	f8b8 3264 	ldrh.w	r3, [r8, #612]	@ 0x264
700096a6:	4353      	muls	r3, r2
700096a8:	f8d4 2218 	ldr.w	r2, [r4, #536]	@ 0x218
700096ac:	429a      	cmp	r2, r3
700096ae:	f47f ae20 	bne.w	700092f2 <SCSI_ProcessCmd+0x32>
700096b2:	2302      	movs	r3, #2
700096b4:	7223      	strb	r3, [r4, #8]
700096b6:	f44f 7300 	mov.w	r3, #512	@ 0x200
700096ba:	4629      	mov	r1, r5
700096bc:	4630      	mov	r0, r6
700096be:	60e3      	str	r3, [r4, #12]
700096c0:	b002      	add	sp, #8
700096c2:	e8bd 41f0 	ldmia.w	sp!, {r4, r5, r6, r7, r8, lr}
700096c6:	f7ff bd87 	b.w	700091d8 <SCSI_ProcessRead>
700096ca:	7a22      	ldrb	r2, [r4, #8]
700096cc:	2a00      	cmp	r2, #0
700096ce:	d1f2      	bne.n	700096b6 <SCSI_ProcessCmd+0x3f6>
700096d0:	f994 221c 	ldrsb.w	r2, [r4, #540]	@ 0x21c
700096d4:	2a00      	cmp	r2, #0
700096d6:	f6bf ae0c 	bge.w	700092f2 <SCSI_ProcessCmd+0x32>
700096da:	f894 2262 	ldrb.w	r2, [r4, #610]	@ 0x262
700096de:	2a02      	cmp	r2, #2
700096e0:	f43f af74 	beq.w	700095cc <SCSI_ProcessCmd+0x30c>
700096e4:	f8d3 32c4 	ldr.w	r3, [r3, #708]	@ 0x2c4
700096e8:	4608      	mov	r0, r1
700096ea:	689b      	ldr	r3, [r3, #8]
700096ec:	4798      	blx	r3
700096ee:	2800      	cmp	r0, #0
700096f0:	f47f af6c 	bne.w	700095cc <SCSI_ProcessCmd+0x30c>
700096f4:	f8d7 2002 	ldr.w	r2, [r7, #2]
700096f8:	eb04 1105 	add.w	r1, r4, r5, lsl #4
700096fc:	4630      	mov	r0, r6
700096fe:	ea4f 1805 	mov.w	r8, r5, lsl #4
70009702:	ba12      	rev	r2, r2
70009704:	f8c1 226c 	str.w	r2, [r1, #620]	@ 0x26c
70009708:	f8d7 3006 	ldr.w	r3, [r7, #6]
7000970c:	ba1b      	rev	r3, r3
7000970e:	f8c1 3270 	str.w	r3, [r1, #624]	@ 0x270
70009712:	4629      	mov	r1, r5
70009714:	f7ff fdb2 	bl	7000927c <SCSI_CheckAddressRange>
70009718:	3001      	adds	r0, #1
7000971a:	f43f aea2 	beq.w	70009462 <SCSI_ProcessCmd+0x1a2>
7000971e:	44a0      	add	r8, r4
70009720:	e7bd      	b.n	7000969e <SCSI_ProcessCmd+0x3de>
70009722:	7a22      	ldrb	r2, [r4, #8]
70009724:	2a00      	cmp	r2, #0
70009726:	d14a      	bne.n	700097be <SCSI_ProcessCmd+0x4fe>
70009728:	f8d4 2218 	ldr.w	r2, [r4, #536]	@ 0x218
7000972c:	2a00      	cmp	r2, #0
7000972e:	f43f ade0 	beq.w	700092f2 <SCSI_ProcessCmd+0x32>
70009732:	f994 221c 	ldrsb.w	r2, [r4, #540]	@ 0x21c
70009736:	2a00      	cmp	r2, #0
70009738:	f6ff addb 	blt.w	700092f2 <SCSI_ProcessCmd+0x32>
7000973c:	f8d3 32c4 	ldr.w	r3, [r3, #708]	@ 0x2c4
70009740:	4628      	mov	r0, r5
70009742:	689b      	ldr	r3, [r3, #8]
70009744:	4798      	blx	r3
70009746:	2800      	cmp	r0, #0
70009748:	f47f af40 	bne.w	700095cc <SCSI_ProcessCmd+0x30c>
7000974c:	f8d6 32d4 	ldr.w	r3, [r6, #724]	@ 0x2d4
70009750:	4628      	mov	r0, r5
70009752:	eb06 0383 	add.w	r3, r6, r3, lsl #2
70009756:	f8d3 32c4 	ldr.w	r3, [r3, #708]	@ 0x2c4
7000975a:	68db      	ldr	r3, [r3, #12]
7000975c:	4798      	blx	r3
7000975e:	b108      	cbz	r0, 70009764 <SCSI_ProcessCmd+0x4a4>
70009760:	2227      	movs	r2, #39	@ 0x27
70009762:	e734      	b.n	700095ce <SCSI_ProcessCmd+0x30e>
70009764:	f8d7 2002 	ldr.w	r2, [r7, #2]
70009768:	eb04 1805 	add.w	r8, r4, r5, lsl #4
7000976c:	ba12      	rev	r2, r2
7000976e:	f8c8 226c 	str.w	r2, [r8, #620]	@ 0x26c
70009772:	f8b7 3007 	ldrh.w	r3, [r7, #7]
70009776:	ba5b      	rev16	r3, r3
70009778:	b29b      	uxth	r3, r3
7000977a:	4629      	mov	r1, r5
7000977c:	4630      	mov	r0, r6
7000977e:	f8c8 3270 	str.w	r3, [r8, #624]	@ 0x270
70009782:	f7ff fd7b 	bl	7000927c <SCSI_CheckAddressRange>
70009786:	3001      	adds	r0, #1
70009788:	f43f ae6b 	beq.w	70009462 <SCSI_ProcessCmd+0x1a2>
7000978c:	f8d8 2270 	ldr.w	r2, [r8, #624]	@ 0x270
70009790:	f8b8 3264 	ldrh.w	r3, [r8, #612]	@ 0x264
70009794:	4353      	muls	r3, r2
70009796:	f8d4 2218 	ldr.w	r2, [r4, #536]	@ 0x218
7000979a:	4293      	cmp	r3, r2
7000979c:	f47f ada9 	bne.w	700092f2 <SCSI_ProcessCmd+0x32>
700097a0:	2201      	movs	r2, #1
700097a2:	f5b3 7f00 	cmp.w	r3, #512	@ 0x200
700097a6:	4913      	ldr	r1, [pc, #76]	@ (700097f4 <SCSI_ProcessCmd+0x534>)
700097a8:	4630      	mov	r0, r6
700097aa:	7222      	strb	r2, [r4, #8]
700097ac:	bf28      	it	cs
700097ae:	f44f 7300 	movcs.w	r3, #512	@ 0x200
700097b2:	f104 0210 	add.w	r2, r4, #16
700097b6:	7809      	ldrb	r1, [r1, #0]
700097b8:	f7f7 f9c1 	bl	70000b3e <USBD_LL_PrepareReceive>
700097bc:	e65f      	b.n	7000947e <SCSI_ProcessCmd+0x1be>
700097be:	4629      	mov	r1, r5
700097c0:	4630      	mov	r0, r6
700097c2:	b002      	add	sp, #8
700097c4:	e8bd 41f0 	ldmia.w	sp!, {r4, r5, r6, r7, r8, lr}
700097c8:	f7ff bcae 	b.w	70009128 <SCSI_ProcessWrite>
700097cc:	f8d7 2002 	ldr.w	r2, [r7, #2]
700097d0:	eb04 1805 	add.w	r8, r4, r5, lsl #4
700097d4:	ba12      	rev	r2, r2
700097d6:	f8c8 226c 	str.w	r2, [r8, #620]	@ 0x26c
700097da:	f8d7 3006 	ldr.w	r3, [r7, #6]
700097de:	ba1b      	rev	r3, r3
700097e0:	e7cb      	b.n	7000977a <SCSI_ProcessCmd+0x4ba>
700097e2:	bf00      	nop
700097e4:	24000184 	.word	0x24000184
700097e8:	2400017c 	.word	0x2400017c
700097ec:	24000178 	.word	0x24000178
700097f0:	24000170 	.word	0x24000170
700097f4:	24000108 	.word	0x24000108
700097f8:	787b      	ldrb	r3, [r7, #1]
700097fa:	f013 0702 	ands.w	r7, r3, #2
700097fe:	f47f ae9c 	bne.w	7000953a <SCSI_ProcessCmd+0x27a>
70009802:	eb04 1205 	add.w	r2, r4, r5, lsl #4
70009806:	4629      	mov	r1, r5
70009808:	e9d2 239b 	ldrd	r2, r3, [r2, #620]	@ 0x26c
7000980c:	f7ff fd36 	bl	7000927c <SCSI_CheckAddressRange>
70009810:	3001      	adds	r0, #1
70009812:	f43f ae26 	beq.w	70009462 <SCSI_ProcessCmd+0x1a2>
70009816:	60e7      	str	r7, [r4, #12]
70009818:	e631      	b.n	7000947e <SCSI_ProcessCmd+0x1be>
7000981a:	4d1a      	ldr	r5, [pc, #104]	@ (70009884 <SCSI_ProcessCmd+0x5c4>)
7000981c:	2218      	movs	r2, #24
7000981e:	2100      	movs	r1, #0
70009820:	4628      	mov	r0, r5
70009822:	f000 f905 	bl	70009a30 <memset>
70009826:	6823      	ldr	r3, [r4, #0]
70009828:	3301      	adds	r3, #1
7000982a:	f3c3 5147 	ubfx	r1, r3, #21, #8
7000982e:	00da      	lsls	r2, r3, #3
70009830:	7029      	strb	r1, [r5, #0]
70009832:	f3c3 314f 	ubfx	r1, r3, #13, #16
70009836:	f3c3 1357 	ubfx	r3, r3, #5, #24
7000983a:	70ea      	strb	r2, [r5, #3]
7000983c:	7069      	strb	r1, [r5, #1]
7000983e:	2100      	movs	r1, #0
70009840:	70ab      	strb	r3, [r5, #2]
70009842:	b2cb      	uxtb	r3, r1
70009844:	6820      	ldr	r0, [r4, #0]
70009846:	3101      	adds	r1, #1
70009848:	4283      	cmp	r3, r0
7000984a:	d903      	bls.n	70009854 <SCSI_ProcessCmd+0x594>
7000984c:	3208      	adds	r2, #8
7000984e:	490d      	ldr	r1, [pc, #52]	@ (70009884 <SCSI_ProcessCmd+0x5c4>)
70009850:	b292      	uxth	r2, r2
70009852:	e652      	b.n	700094fa <SCSI_ProcessCmd+0x23a>
70009854:	eb05 00c3 	add.w	r0, r5, r3, lsl #3
70009858:	7243      	strb	r3, [r0, #9]
7000985a:	e7f2      	b.n	70009842 <SCSI_ProcessCmd+0x582>
7000985c:	f8b7 2003 	ldrh.w	r2, [r7, #3]
70009860:	2a00      	cmp	r2, #0
70009862:	f43f ae0c 	beq.w	7000947e <SCSI_ProcessCmd+0x1be>
70009866:	ba52      	rev16	r2, r2
70009868:	4907      	ldr	r1, [pc, #28]	@ (70009888 <SCSI_ProcessCmd+0x5c8>)
7000986a:	b292      	uxth	r2, r2
7000986c:	2a08      	cmp	r2, #8
7000986e:	bf28      	it	cs
70009870:	2208      	movcs	r2, #8
70009872:	e642      	b.n	700094fa <SCSI_ProcessCmd+0x23a>
70009874:	2b01      	cmp	r3, #1
70009876:	f43f ae65 	beq.w	70009544 <SCSI_ProcessCmd+0x284>
7000987a:	2b03      	cmp	r3, #3
7000987c:	f43f ae62 	beq.w	70009544 <SCSI_ProcessCmd+0x284>
70009880:	2300      	movs	r3, #0
70009882:	e62c      	b.n	700094de <SCSI_ProcessCmd+0x21e>
70009884:	24001889 	.word	0x24001889
70009888:	24001881 	.word	0x24001881

7000988c <SCSI_SenseCode>:
7000988c:	f8d0 12d4 	ldr.w	r1, [r0, #724]	@ 0x2d4
70009890:	31b0      	adds	r1, #176	@ 0xb0
70009892:	f850 0021 	ldr.w	r0, [r0, r1, lsl #2]
70009896:	b510      	push	{r4, lr}
70009898:	b190      	cbz	r0, 700098c0 <SCSI_SenseCode+0x34>
7000989a:	f890 1261 	ldrb.w	r1, [r0, #609]	@ 0x261
7000989e:	eb00 04c1 	add.w	r4, r0, r1, lsl #3
700098a2:	f884 3244 	strb.w	r3, [r4, #580]	@ 0x244
700098a6:	1c4b      	adds	r3, r1, #1
700098a8:	f884 2240 	strb.w	r2, [r4, #576]	@ 0x240
700098ac:	2200      	movs	r2, #0
700098ae:	b2db      	uxtb	r3, r3
700098b0:	f884 2245 	strb.w	r2, [r4, #581]	@ 0x245
700098b4:	2b04      	cmp	r3, #4
700098b6:	bf14      	ite	ne
700098b8:	f880 3261 	strbne.w	r3, [r0, #609]	@ 0x261
700098bc:	f880 2261 	strbeq.w	r2, [r0, #609]	@ 0x261
700098c0:	bd10      	pop	{r4, pc}
	...

700098c4 <malloc>:
700098c4:	4b02      	ldr	r3, [pc, #8]	@ (700098d0 <malloc+0xc>)
700098c6:	4601      	mov	r1, r0
700098c8:	6818      	ldr	r0, [r3, #0]
700098ca:	f000 b825 	b.w	70009918 <_malloc_r>
700098ce:	bf00      	nop
700098d0:	2400018c 	.word	0x2400018c

700098d4 <sbrk_aligned>:
700098d4:	b570      	push	{r4, r5, r6, lr}
700098d6:	4e0f      	ldr	r6, [pc, #60]	@ (70009914 <sbrk_aligned+0x40>)
700098d8:	460c      	mov	r4, r1
700098da:	6831      	ldr	r1, [r6, #0]
700098dc:	4605      	mov	r5, r0
700098de:	b911      	cbnz	r1, 700098e6 <sbrk_aligned+0x12>
700098e0:	f000 f8ae 	bl	70009a40 <_sbrk_r>
700098e4:	6030      	str	r0, [r6, #0]
700098e6:	4621      	mov	r1, r4
700098e8:	4628      	mov	r0, r5
700098ea:	f000 f8a9 	bl	70009a40 <_sbrk_r>
700098ee:	1c43      	adds	r3, r0, #1
700098f0:	d103      	bne.n	700098fa <sbrk_aligned+0x26>
700098f2:	f04f 34ff 	mov.w	r4, #4294967295	@ 0xffffffff
700098f6:	4620      	mov	r0, r4
700098f8:	bd70      	pop	{r4, r5, r6, pc}
700098fa:	1cc4      	adds	r4, r0, #3
700098fc:	f024 0403 	bic.w	r4, r4, #3
70009900:	42a0      	cmp	r0, r4
70009902:	d0f8      	beq.n	700098f6 <sbrk_aligned+0x22>
70009904:	1a21      	subs	r1, r4, r0
70009906:	4628      	mov	r0, r5
70009908:	f000 f89a 	bl	70009a40 <_sbrk_r>
7000990c:	3001      	adds	r0, #1
7000990e:	d1f2      	bne.n	700098f6 <sbrk_aligned+0x22>
70009910:	e7ef      	b.n	700098f2 <sbrk_aligned+0x1e>
70009912:	bf00      	nop
70009914:	240018a4 	.word	0x240018a4

70009918 <_malloc_r>:
70009918:	e92d 43f8 	stmdb	sp!, {r3, r4, r5, r6, r7, r8, r9, lr}
7000991c:	1ccd      	adds	r5, r1, #3
7000991e:	f025 0503 	bic.w	r5, r5, #3
70009922:	3508      	adds	r5, #8
70009924:	2d0c      	cmp	r5, #12
70009926:	bf38      	it	cc
70009928:	250c      	movcc	r5, #12
7000992a:	2d00      	cmp	r5, #0
7000992c:	4606      	mov	r6, r0
7000992e:	db01      	blt.n	70009934 <_malloc_r+0x1c>
70009930:	42a9      	cmp	r1, r5
70009932:	d904      	bls.n	7000993e <_malloc_r+0x26>
70009934:	230c      	movs	r3, #12
70009936:	6033      	str	r3, [r6, #0]
70009938:	2000      	movs	r0, #0
7000993a:	e8bd 83f8 	ldmia.w	sp!, {r3, r4, r5, r6, r7, r8, r9, pc}
7000993e:	f8df 80d4 	ldr.w	r8, [pc, #212]	@ 70009a14 <_malloc_r+0xfc>
70009942:	f000 f869 	bl	70009a18 <__malloc_lock>
70009946:	f8d8 3000 	ldr.w	r3, [r8]
7000994a:	461c      	mov	r4, r3
7000994c:	bb44      	cbnz	r4, 700099a0 <_malloc_r+0x88>
7000994e:	4629      	mov	r1, r5
70009950:	4630      	mov	r0, r6
70009952:	f7ff ffbf 	bl	700098d4 <sbrk_aligned>
70009956:	1c43      	adds	r3, r0, #1
70009958:	4604      	mov	r4, r0
7000995a:	d158      	bne.n	70009a0e <_malloc_r+0xf6>
7000995c:	f8d8 4000 	ldr.w	r4, [r8]
70009960:	4627      	mov	r7, r4
70009962:	2f00      	cmp	r7, #0
70009964:	d143      	bne.n	700099ee <_malloc_r+0xd6>
70009966:	2c00      	cmp	r4, #0
70009968:	d04b      	beq.n	70009a02 <_malloc_r+0xea>
7000996a:	6823      	ldr	r3, [r4, #0]
7000996c:	4639      	mov	r1, r7
7000996e:	4630      	mov	r0, r6
70009970:	eb04 0903 	add.w	r9, r4, r3
70009974:	f000 f864 	bl	70009a40 <_sbrk_r>
70009978:	4581      	cmp	r9, r0
7000997a:	d142      	bne.n	70009a02 <_malloc_r+0xea>
7000997c:	6821      	ldr	r1, [r4, #0]
7000997e:	1a6d      	subs	r5, r5, r1
70009980:	4629      	mov	r1, r5
70009982:	4630      	mov	r0, r6
70009984:	f7ff ffa6 	bl	700098d4 <sbrk_aligned>
70009988:	3001      	adds	r0, #1
7000998a:	d03a      	beq.n	70009a02 <_malloc_r+0xea>
7000998c:	6823      	ldr	r3, [r4, #0]
7000998e:	442b      	add	r3, r5
70009990:	6023      	str	r3, [r4, #0]
70009992:	f8d8 3000 	ldr.w	r3, [r8]
70009996:	685a      	ldr	r2, [r3, #4]
70009998:	bb62      	cbnz	r2, 700099f4 <_malloc_r+0xdc>
7000999a:	f8c8 7000 	str.w	r7, [r8]
7000999e:	e00f      	b.n	700099c0 <_malloc_r+0xa8>
700099a0:	6822      	ldr	r2, [r4, #0]
700099a2:	1b52      	subs	r2, r2, r5
700099a4:	d420      	bmi.n	700099e8 <_malloc_r+0xd0>
700099a6:	2a0b      	cmp	r2, #11
700099a8:	d917      	bls.n	700099da <_malloc_r+0xc2>
700099aa:	1961      	adds	r1, r4, r5
700099ac:	42a3      	cmp	r3, r4
700099ae:	6025      	str	r5, [r4, #0]
700099b0:	bf18      	it	ne
700099b2:	6059      	strne	r1, [r3, #4]
700099b4:	6863      	ldr	r3, [r4, #4]
700099b6:	bf08      	it	eq
700099b8:	f8c8 1000 	streq.w	r1, [r8]
700099bc:	5162      	str	r2, [r4, r5]
700099be:	604b      	str	r3, [r1, #4]
700099c0:	4630      	mov	r0, r6
700099c2:	f000 f82f 	bl	70009a24 <__malloc_unlock>
700099c6:	f104 000b 	add.w	r0, r4, #11
700099ca:	1d23      	adds	r3, r4, #4
700099cc:	f020 0007 	bic.w	r0, r0, #7
700099d0:	1ac2      	subs	r2, r0, r3
700099d2:	bf1c      	itt	ne
700099d4:	1a1b      	subne	r3, r3, r0
700099d6:	50a3      	strne	r3, [r4, r2]
700099d8:	e7af      	b.n	7000993a <_malloc_r+0x22>
700099da:	6862      	ldr	r2, [r4, #4]
700099dc:	42a3      	cmp	r3, r4
700099de:	bf0c      	ite	eq
700099e0:	f8c8 2000 	streq.w	r2, [r8]
700099e4:	605a      	strne	r2, [r3, #4]
700099e6:	e7eb      	b.n	700099c0 <_malloc_r+0xa8>
700099e8:	4623      	mov	r3, r4
700099ea:	6864      	ldr	r4, [r4, #4]
700099ec:	e7ae      	b.n	7000994c <_malloc_r+0x34>
700099ee:	463c      	mov	r4, r7
700099f0:	687f      	ldr	r7, [r7, #4]
700099f2:	e7b6      	b.n	70009962 <_malloc_r+0x4a>
700099f4:	461a      	mov	r2, r3
700099f6:	685b      	ldr	r3, [r3, #4]
700099f8:	42a3      	cmp	r3, r4
700099fa:	d1fb      	bne.n	700099f4 <_malloc_r+0xdc>
700099fc:	2300      	movs	r3, #0
700099fe:	6053      	str	r3, [r2, #4]
70009a00:	e7de      	b.n	700099c0 <_malloc_r+0xa8>
70009a02:	230c      	movs	r3, #12
70009a04:	6033      	str	r3, [r6, #0]
70009a06:	4630      	mov	r0, r6
70009a08:	f000 f80c 	bl	70009a24 <__malloc_unlock>
70009a0c:	e794      	b.n	70009938 <_malloc_r+0x20>
70009a0e:	6005      	str	r5, [r0, #0]
70009a10:	e7d6      	b.n	700099c0 <_malloc_r+0xa8>
70009a12:	bf00      	nop
70009a14:	240018a8 	.word	0x240018a8

70009a18 <__malloc_lock>:
70009a18:	4801      	ldr	r0, [pc, #4]	@ (70009a20 <__malloc_lock+0x8>)
70009a1a:	f000 b84b 	b.w	70009ab4 <__retarget_lock_acquire_recursive>
70009a1e:	bf00      	nop
70009a20:	240019e8 	.word	0x240019e8

70009a24 <__malloc_unlock>:
70009a24:	4801      	ldr	r0, [pc, #4]	@ (70009a2c <__malloc_unlock+0x8>)
70009a26:	f000 b846 	b.w	70009ab6 <__retarget_lock_release_recursive>
70009a2a:	bf00      	nop
70009a2c:	240019e8 	.word	0x240019e8

70009a30 <memset>:
70009a30:	4402      	add	r2, r0
70009a32:	4603      	mov	r3, r0
70009a34:	4293      	cmp	r3, r2
70009a36:	d100      	bne.n	70009a3a <memset+0xa>
70009a38:	4770      	bx	lr
70009a3a:	f803 1b01 	strb.w	r1, [r3], #1
70009a3e:	e7f9      	b.n	70009a34 <memset+0x4>

70009a40 <_sbrk_r>:
70009a40:	b538      	push	{r3, r4, r5, lr}
70009a42:	4d06      	ldr	r5, [pc, #24]	@ (70009a5c <_sbrk_r+0x1c>)
70009a44:	2300      	movs	r3, #0
70009a46:	4604      	mov	r4, r0
70009a48:	4608      	mov	r0, r1
70009a4a:	602b      	str	r3, [r5, #0]
70009a4c:	f7f6 fee4 	bl	70000818 <_sbrk>
70009a50:	1c43      	adds	r3, r0, #1
70009a52:	d102      	bne.n	70009a5a <_sbrk_r+0x1a>
70009a54:	682b      	ldr	r3, [r5, #0]
70009a56:	b103      	cbz	r3, 70009a5a <_sbrk_r+0x1a>
70009a58:	6023      	str	r3, [r4, #0]
70009a5a:	bd38      	pop	{r3, r4, r5, pc}
70009a5c:	240019e4 	.word	0x240019e4

70009a60 <__errno>:
70009a60:	4b01      	ldr	r3, [pc, #4]	@ (70009a68 <__errno+0x8>)
70009a62:	6818      	ldr	r0, [r3, #0]
70009a64:	4770      	bx	lr
70009a66:	bf00      	nop
70009a68:	2400018c 	.word	0x2400018c

70009a6c <__libc_init_array>:
70009a6c:	b570      	push	{r4, r5, r6, lr}
70009a6e:	4b0d      	ldr	r3, [pc, #52]	@ (70009aa4 <__libc_init_array+0x38>)
70009a70:	4d0d      	ldr	r5, [pc, #52]	@ (70009aa8 <__libc_init_array+0x3c>)
70009a72:	1b5b      	subs	r3, r3, r5
70009a74:	109c      	asrs	r4, r3, #2
70009a76:	2600      	movs	r6, #0
70009a78:	42a6      	cmp	r6, r4
70009a7a:	d109      	bne.n	70009a90 <__libc_init_array+0x24>
70009a7c:	f000 f820 	bl	70009ac0 <_init>
70009a80:	4d0a      	ldr	r5, [pc, #40]	@ (70009aac <__libc_init_array+0x40>)
70009a82:	4b0b      	ldr	r3, [pc, #44]	@ (70009ab0 <__libc_init_array+0x44>)
70009a84:	1b5b      	subs	r3, r3, r5
70009a86:	109c      	asrs	r4, r3, #2
70009a88:	2600      	movs	r6, #0
70009a8a:	42a6      	cmp	r6, r4
70009a8c:	d105      	bne.n	70009a9a <__libc_init_array+0x2e>
70009a8e:	bd70      	pop	{r4, r5, r6, pc}
70009a90:	f855 3b04 	ldr.w	r3, [r5], #4
70009a94:	4798      	blx	r3
70009a96:	3601      	adds	r6, #1
70009a98:	e7ee      	b.n	70009a78 <__libc_init_array+0xc>
70009a9a:	f855 3b04 	ldr.w	r3, [r5], #4
70009a9e:	4798      	blx	r3
70009aa0:	3601      	adds	r6, #1
70009aa2:	e7f2      	b.n	70009a8a <__libc_init_array+0x1e>
70009aa4:	70009ba8 	.word	0x70009ba8
70009aa8:	70009ba8 	.word	0x70009ba8
70009aac:	70009ba8 	.word	0x70009ba8
70009ab0:	70009bac 	.word	0x70009bac

70009ab4 <__retarget_lock_acquire_recursive>:
70009ab4:	4770      	bx	lr

70009ab6 <__retarget_lock_release_recursive>:
70009ab6:	4770      	bx	lr

70009ab8 <__aeabi_memclr>:
70009ab8:	2200      	movs	r2, #0
70009aba:	f7f6 bcc0 	b.w	7000043e <__aeabi_memset>
	...

70009ac0 <_init>:
70009ac0:	b5f8      	push	{r3, r4, r5, r6, r7, lr}
70009ac2:	bf00      	nop
70009ac4:	bcf8      	pop	{r3, r4, r5, r6, r7}
70009ac6:	bc08      	pop	{r3}
70009ac8:	469e      	mov	lr, r3
70009aca:	4770      	bx	lr

70009acc <_fini>:
70009acc:	b5f8      	push	{r3, r4, r5, r6, r7, lr}
70009ace:	bf00      	nop
70009ad0:	bcf8      	pop	{r3, r4, r5, r6, r7}
70009ad2:	bc08      	pop	{r3}
70009ad4:	469e      	mov	lr, r3
70009ad6:	4770      	bx	lr
